GAS LISTING /tmp/ccjfHZuC.s 			page 1


   1              		.file	"meteordefender.c"
   2              	#APP
   3              		.globl _jump_addr
   4              		_jump_addr:
   5 0000 7C44     		add	-4,sp;
   6 0002 E3DF0000 		st.w	lp,0[sp];
   7 0006 00AC0C00 		jal	__dojump;
   8 000a E3CF0000 		ld.w	0[sp],lp;
   9 000e 6444     		add	4,sp;
  10 0010 1F18     		jmp	[lp];
  11              		__dojump:
  12 0012 0618     		jmp	[r6];
  13              	#NO_APP
  14              		.section .text
  15              		.align 2
  16              		.global _vbWaitFrame
  17              		.type	_vbWaitFrame, @function
  18              	_vbWaitFrame:
  19 0014 C6B4FFFF 		andi 65535,r6,r6
  20 0018 40BD0000 		movhi hi(_VIP_REGS),r0,r10
  21 001c 4ACD0000 		ld.w lo(_VIP_REGS)[r10],r10
  22 0020 4AA54000 		addi 64,r10,r10
  23 0024 8041     		mov 0,r12
  24              	.L7:
  25 0026 6AC50000 		ld.h 0[r10],r11
  26 002a 6BB50C00 		andi 12,r11,r11
  27 002e F885     		be .L7
  28              	.L5:
  29 0030 6AC50000 		ld.h 0[r10],r11
  30 0034 6BB50C00 		andi 12,r11,r11
  31 0038 F895     		bne .L5
  32 003a 8145     		add 1,r12
  33 003c 8CB5FFFF 		andi 65535,r12,r12
  34 0040 CC0C     		cmp r12,r6
  35 0042 E493     		bnl .L7
  36 0044 1F18     		jmp [r31]
  37              		.size	_vbWaitFrame, .-_vbWaitFrame
  38 0046 0000     		.align 2
  39              		.global _vbDisplayOn
  40              		.type	_vbDisplayOn, @function
  41              	_vbDisplayOn:
  42 0048 40BD0000 		movhi hi(_VIP_REGS),r0,r10
  43 004c 4AA10000 		movea lo(_VIP_REGS),r10,r10
  44 0050 6ACD0000 		ld.w 0[r10],r11
  45 0054 6BA52A00 		addi 42,r11,r11
  46 0058 0BD40000 		st.h r0,0[r11]
  47 005c 6ACD0000 		ld.w 0[r10],r11
  48 0060 8BA54200 		addi 66,r11,r12
  49 0064 6BA54000 		addi 64,r11,r11
  50 0068 6BC50000 		ld.h 0[r11],r11
  51 006c 6BB5FFFF 		andi 65535,r11,r11
  52 0070 6BB10200 		ori 2,r11,r11
  53 0074 6CD50000 		st.h r11,0[r12]
  54 0078 6ACD0000 		ld.w 0[r10],r11
  55 007c 8BA52200 		addi 34,r11,r12
  56 0080 6BA52000 		addi 32,r11,r11
  57 0084 6BC50000 		ld.h 0[r11],r11
GAS LISTING /tmp/ccjfHZuC.s 			page 2


  58 0088 6BB5FFFF 		andi 65535,r11,r11
  59 008c 6BB10203 		ori 770,r11,r11
  60 0090 6CD50000 		st.h r11,0[r12]
  61 0094 6ACD0000 		ld.w 0[r10],r11
  62 0098 6BA52E00 		addi 46,r11,r11
  63 009c 0BD40000 		st.h r0,0[r11]
  64 00a0 6ACD0000 		ld.w 0[r10],r11
  65 00a4 8BA50400 		addi 4,r11,r12
  66 00a8 6BC50000 		ld.h 0[r11],r11
  67 00ac 6BB5FFFF 		andi 65535,r11,r11
  68 00b0 6CD50000 		st.h r11,0[r12]
  69 00b4 6ACD0000 		ld.w 0[r10],r11
  70 00b8 6BA52400 		addi 36,r11,r11
  71 00bc 0BD40000 		st.h r0,0[r11]
  72 00c0 6ACD0000 		ld.w 0[r10],r11
  73 00c4 6BA52600 		addi 38,r11,r11
  74 00c8 0BD40000 		st.h r0,0[r11]
  75 00cc 6ACD0000 		ld.w 0[r10],r11
  76 00d0 6BA52800 		addi 40,r11,r11
  77 00d4 0BD40000 		st.h r0,0[r11]
  78 00d8 8ACD0000 		ld.w 0[r10],r12
  79 00dc 8CA56000 		addi 96,r12,r12
  80 00e0 60A1E400 		movea lo(228),r0,r11
  81 00e4 6CD50000 		st.h r11,0[r12]
  82 00e8 8ACD0000 		ld.w 0[r10],r12
  83 00ec 8CA56200 		addi 98,r12,r12
  84 00f0 6CD50000 		st.h r11,0[r12]
  85 00f4 8ACD0000 		ld.w 0[r10],r12
  86 00f8 8CA56400 		addi 100,r12,r12
  87 00fc 6CD50000 		st.h r11,0[r12]
  88 0100 8ACD0000 		ld.w 0[r10],r12
  89 0104 8CA56600 		addi 102,r12,r12
  90 0108 6CD50000 		st.h r11,0[r12]
  91 010c 8ACD0000 		ld.w 0[r10],r12
  92 0110 8CA56800 		addi 104,r12,r12
  93 0114 6CD50000 		st.h r11,0[r12]
  94 0118 8ACD0000 		ld.w 0[r10],r12
  95 011c 8CA56A00 		addi 106,r12,r12
  96 0120 6CD50000 		st.h r11,0[r12]
  97 0124 8ACD0000 		ld.w 0[r10],r12
  98 0128 8CA56C00 		addi 108,r12,r12
  99 012c 6CD50000 		st.h r11,0[r12]
 100 0130 8ACD0000 		ld.w 0[r10],r12
 101 0134 8CA56E00 		addi 110,r12,r12
 102 0138 6CD50000 		st.h r11,0[r12]
 103 013c 4ACD0000 		ld.w 0[r10],r10
 104 0140 4AA57000 		addi 112,r10,r10
 105 0144 0AD40000 		st.h r0,0[r10]
 106 0148 1F18     		jmp [r31]
 107              		.size	_vbDisplayOn, .-_vbDisplayOn
 108 014a 0000     		.align 2
 109              		.global _vbDisplayOff
 110              		.type	_vbDisplayOff, @function
 111              	_vbDisplayOff:
 112 014c 40BD0000 		movhi hi(_VIP_REGS),r0,r10
 113 0150 4AA10000 		movea lo(_VIP_REGS),r10,r10
 114 0154 6ACD0000 		ld.w 0[r10],r11
GAS LISTING /tmp/ccjfHZuC.s 			page 3


 115 0158 6BA52A00 		addi 42,r11,r11
 116 015c 0BD40000 		st.h r0,0[r11]
 117 0160 6ACD0000 		ld.w 0[r10],r11
 118 0164 6BA54200 		addi 66,r11,r11
 119 0168 0BD40000 		st.h r0,0[r11]
 120 016c 6ACD0000 		ld.w 0[r10],r11
 121 0170 6BA52200 		addi 34,r11,r11
 122 0174 0BD40000 		st.h r0,0[r11]
 123 0178 6ACD0000 		ld.w 0[r10],r11
 124 017c 6BA52E00 		addi 46,r11,r11
 125 0180 0BD40000 		st.h r0,0[r11]
 126 0184 4ACD0000 		ld.w 0[r10],r10
 127 0188 6AA50400 		addi 4,r10,r11
 128 018c 4AC50000 		ld.h 0[r10],r10
 129 0190 4AB5FFFF 		andi 65535,r10,r10
 130 0194 4BD50000 		st.h r10,0[r11]
 131 0198 1F18     		jmp [r31]
 132              		.size	_vbDisplayOff, .-_vbDisplayOff
 133 019a 0000     		.align 2
 134              		.global _vbDisplayShow
 135              		.type	_vbDisplayShow, @function
 136              	_vbDisplayShow:
 137 019c 40BD0000 		movhi hi(_VIP_REGS),r0,r10
 138 01a0 4AA10000 		movea lo(_VIP_REGS),r10,r10
 139 01a4 8ACD0000 		ld.w 0[r10],r12
 140 01a8 8CA52400 		addi 36,r12,r12
 141 01ac 60A12000 		movea lo(32),r0,r11
 142 01b0 6CD50000 		st.h r11,0[r12]
 143 01b4 8ACD0000 		ld.w 0[r10],r12
 144 01b8 8CA52600 		addi 38,r12,r12
 145 01bc A0A14000 		movea lo(64),r0,r13
 146 01c0 ACD50000 		st.h r13,0[r12]
 147 01c4 4ACD0000 		ld.w 0[r10],r10
 148 01c8 4AA52800 		addi 40,r10,r10
 149 01cc 6AD50000 		st.h r11,0[r10]
 150 01d0 1F18     		jmp [r31]
 151              		.size	_vbDisplayShow, .-_vbDisplayShow
 152 01d2 0000     		.align 2
 153              		.global _vbDisplayHide
 154              		.type	_vbDisplayHide, @function
 155              	_vbDisplayHide:
 156 01d4 40BD0000 		movhi hi(_VIP_REGS),r0,r10
 157 01d8 4AA10000 		movea lo(_VIP_REGS),r10,r10
 158 01dc 6ACD0000 		ld.w 0[r10],r11
 159 01e0 6BA52400 		addi 36,r11,r11
 160 01e4 0BD40000 		st.h r0,0[r11]
 161 01e8 6ACD0000 		ld.w 0[r10],r11
 162 01ec 6BA52600 		addi 38,r11,r11
 163 01f0 0BD40000 		st.h r0,0[r11]
 164 01f4 4ACD0000 		ld.w 0[r10],r10
 165 01f8 4AA52800 		addi 40,r10,r10
 166 01fc 0AD40000 		st.h r0,0[r10]
 167 0200 1F18     		jmp [r31]
 168              		.size	_vbDisplayHide, .-_vbDisplayHide
 169 0202 0000     		.align 2
 170              		.global _vbFXFadeIn
 171              		.type	_vbFXFadeIn, @function
GAS LISTING /tmp/ccjfHZuC.s 			page 4


 172              	_vbFXFadeIn:
 173 0204 5F01     		mov r31,r10
 174 0206 00AC0000 		jal __save_r24_r31
 175 020a 46B7FFFF 		andi 65535,r6,r26
 176 020e 6043     		mov 0,r27
 177 0210 9B03     		mov r27,r28
 178 0212 20BF0000 		movhi hi(_vbWaitFrame),r0,r25
 179 0216 39A30000 		movea lo(_vbWaitFrame),r25,r25
 180 021a A0BF0000 		movhi hi(_VIP_REGS),r0,r29
 181 021e BDA30000 		movea lo(_VIP_REGS),r29,r29
 182 0222 00A32100 		movea lo(33),r0,r24
 183              	.L17:
 184 0226 DA00     		mov r26,r6
 185 0228 00AC0400 		jal .+4
 186 022c E447     		add 4,r31
 187 022e 1918     		jmp r25
 188 0230 7DCD0000 		ld.w 0[r29],r11
 189 0234 6BA52400 		addi 36,r11,r11
 190 0238 5CB5FFFF 		andi 65535,r28,r10
 191 023c 4BD50000 		st.h r10,0[r11]
 192 0240 7DCD0000 		ld.w 0[r29],r11
 193 0244 6BA52600 		addi 38,r11,r11
 194 0248 6BD70000 		st.h r27,0[r11]
 195 024c 7DCD0000 		ld.w 0[r29],r11
 196 0250 6BA52800 		addi 40,r11,r11
 197 0254 4BD50000 		st.h r10,0[r11]
 198 0258 8147     		add 1,r28
 199 025a 6247     		add 2,r27
 200 025c 7BB7FFFF 		andi 65535,r27,r27
 201 0260 980F     		cmp r24,r28
 202 0262 C495     		bne .L17
 203 0264 00A80000 		jr __return_r24_r31
 204              		.size	_vbFXFadeIn, .-_vbFXFadeIn
 205              		.align 2
 206              		.global _vbFXFadeOut
 207              		.type	_vbFXFadeOut, @function
 208              	_vbFXFadeOut:
 209 0268 5F01     		mov r31,r10
 210 026a 00AC0000 		jal __save_r25_r31
 211 026e 66B7FFFF 		andi 65535,r6,r27
 212 0272 A0A32000 		movea lo(32),r0,r29
 213 0276 40BF0000 		movhi hi(_vbWaitFrame),r0,r26
 214 027a 5AA30000 		movea lo(_vbWaitFrame),r26,r26
 215 027e 80BF0000 		movhi hi(_VIP_REGS),r0,r28
 216 0282 9CA30000 		movea lo(_VIP_REGS),r28,r28
 217 0286 20BF0100 		movhi hi(65535),r0,r25
 218 028a 39A3FFFF 		movea lo(65535),r25,r25
 219              	.L21:
 220 028e DB00     		mov r27,r6
 221 0290 00AC0400 		jal .+4
 222 0294 E447     		add 4,r31
 223 0296 1A18     		jmp r26
 224 0298 5CCD0000 		ld.w 0[r28],r10
 225 029c 4AA52400 		addi 36,r10,r10
 226 02a0 AAD70000 		st.h r29,0[r10]
 227 02a4 5CCD0000 		ld.w 0[r28],r10
 228 02a8 4AA52600 		addi 38,r10,r10
GAS LISTING /tmp/ccjfHZuC.s 			page 5


 229 02ac 7D01     		mov r29,r11
 230 02ae 7D05     		add r29,r11
 231 02b0 6BB5FFFF 		andi 65535,r11,r11
 232 02b4 6AD50000 		st.h r11,0[r10]
 233 02b8 5CCD0000 		ld.w 0[r28],r10
 234 02bc 4AA52800 		addi 40,r10,r10
 235 02c0 AAD70000 		st.h r29,0[r10]
 236 02c4 BF47     		add -1,r29
 237 02c6 BDB7FFFF 		andi 65535,r29,r29
 238 02ca B90F     		cmp r25,r29
 239 02cc C295     		bne .L21
 240 02ce 00A80000 		jr __return_r25_r31
 241              		.size	_vbFXFadeOut, .-_vbFXFadeOut
 242 02d2 0000     		.align 2
 243              		.global _vbSetColTable
 244              		.type	_vbSetColTable, @function
 245              	_vbSetColTable:
 246 02d4 4041     		mov 0,r10
 247 02d6 20BE0000 		movhi hi(_colTable),r0,r17
 248 02da 91A10000 		movea lo(_colTable),r17,r12
 249 02de E0A17F00 		movea lo(127),r0,r15
 250 02e2 C0A18000 		movea lo(128),r0,r14
 251              	.L25:
 252 02e6 6A01     		mov r10,r11
 253 02e8 6A05     		add r10,r11
 254 02ea 00BE0400 		movhi hi(252928),r0,r16
 255 02ee 10A200DC 		movea lo(252928),r16,r16
 256 02f2 0B06     		add r11,r16
 257 02f4 AC01     		mov r12,r13
 258 02f6 AA05     		add r10,r13
 259 02f8 ADC10000 		ld.b 0[r13],r13
 260 02fc ADB5FF00 		andi 255,r13,r13
 261 0300 B0D50000 		st.h r13,0[r16]
 262 0304 00BE0400 		movhi hi(253440),r0,r16
 263 0308 10A200DE 		movea lo(253440),r16,r16
 264 030c 0B06     		add r11,r16
 265 030e B0D50000 		st.h r13,0[r16]
 266 0312 AF01     		mov r15,r13
 267 0314 AA09     		sub r10,r13
 268 0316 00BE0400 		movhi hi(253184),r0,r16
 269 031a 10A200DD 		movea lo(253184),r16,r16
 270 031e 0B06     		add r11,r16
 271 0320 AC05     		add r12,r13
 272 0322 ADC10000 		ld.b 0[r13],r13
 273 0326 ADB5FF00 		andi 255,r13,r13
 274 032a B0D50000 		st.h r13,0[r16]
 275 032e 00BE0400 		movhi hi(253696),r0,r16
 276 0332 10A200DF 		movea lo(253696),r16,r16
 277 0336 7005     		add r16,r11
 278 0338 ABD50000 		st.h r13,0[r11]
 279 033c 4145     		add 1,r10
 280 033e 4AB5FF00 		andi 255,r10,r10
 281 0342 4E0D     		cmp r14,r10
 282 0344 A295     		bne .L25
 283 0346 1F18     		jmp [r31]
 284              		.size	_vbSetColTable, .-_vbSetColTable
 285              		.align 2
GAS LISTING /tmp/ccjfHZuC.s 			page 6


 286              		.global _affine_clr_param
 287              		.type	_affine_clr_param, @function
 288              	_affine_clr_param:
 289 0348 A6B5FF00 		andi 255,r6,r13
 290 034c A551     		shl 5,r13
 291 034e 40BD0400 		movhi hi(251922),r0,r10
 292 0352 4AA112D8 		movea lo(251922),r10,r10
 293 0356 4D05     		add r13,r10
 294 0358 6AC50000 		ld.h 0[r10],r11
 295 035c 6BB5FFFF 		andi 65535,r11,r11
 296 0360 6B05     		add r11,r11
 297 0362 40BD0200 		movhi hi(131072),r0,r10
 298 0366 6A05     		add r10,r11
 299 0368 40BD0400 		movhi hi(251920),r0,r10
 300 036c 4AA110D8 		movea lo(251920),r10,r10
 301 0370 AA05     		add r10,r13
 302 0372 4DC50000 		ld.h 0[r13],r10
 303 0376 400D     		cmp r0,r10
 304 0378 1A84     		be .L31
 305 037a 4041     		mov 0,r10
 306              	.L30:
 307 037c 0BD40000 		st.h r0,0[r11]
 308 0380 4145     		add 1,r10
 309 0382 6245     		add 2,r11
 310 0384 8DC50000 		ld.h 0[r13],r12
 311 0388 8CB5FFFF 		andi 65535,r12,r12
 312 038c 8351     		shl 3,r12
 313 038e 8A0D     		cmp r10,r12
 314 0390 EC9F     		bgt .L30
 315              	.L31:
 316 0392 1F18     		jmp [r31]
 317              		.size	_affine_clr_param, .-_affine_clr_param
 318              		.align 2
 319              		.global _affine_scale
 320              		.type	_affine_scale, @function
 321              	_affine_scale:
 322 0394 43CD1400 		ld.w 20[sp],r10
 323 0398 63CD1800 		ld.w 24[sp],r11
 324 039c C6B4FF00 		andi 255,r6,r6
 325 03a0 F050     		shl 16,r7
 326 03a2 F05C     		sar 16,r7
 327 03a4 1051     		shl 16,r8
 328 03a6 105D     		sar 16,r8
 329 03a8 29B6FFFF 		andi 65535,r9,r17
 330 03ac C3CD1000 		ld.w 16[sp],r14
 331 03b0 CEB5FFFF 		andi 65535,r14,r14
 332 03b4 C550     		shl 5,r6
 333 03b6 80BD0400 		movhi hi(251922),r0,r12
 334 03ba 8CA112D8 		movea lo(251922),r12,r12
 335 03be 8605     		add r6,r12
 336 03c0 8CC50000 		ld.h 0[r12],r12
 337 03c4 8CB5FFFF 		andi 65535,r12,r12
 338 03c8 8C05     		add r12,r12
 339 03ca A0BD0200 		movhi hi(131072),r0,r13
 340 03ce 8D05     		add r13,r12
 341 03d0 A0BD0044 		movhi hi(1140850688),r0,r13
 342 03d4 0A02     		mov r10,r16
GAS LISTING /tmp/ccjfHZuC.s 			page 7


 343 03d6 0DFA0018 		mulf.s r13,r16
 344 03da 10FA000C 		cvt.sw r16,r16
 345 03de E0BD0400 		movhi hi(262144),r0,r15
 346 03e2 4F02     		mov r15,r18
 347 03e4 5026     		div r16,r18
 348 03e6 1202     		mov r18,r16
 349 03e8 1052     		shl 16,r16
 350 03ea 105E     		sar 16,r16
 351 03ec ABF90018 		mulf.s r11,r13
 352 03f0 ADF9000C 		cvt.sw r13,r13
 353 03f4 ED25     		div r13,r15
 354 03f6 F051     		shl 16,r15
 355 03f8 F05D     		sar 16,r15
 356 03fa E7F80008 		cvt.ws r7,r7
 357 03fe 31FA0008 		cvt.ws r17,r17
 358 0402 2AFA0018 		mulf.s r10,r17
 359 0406 A0BD00BF 		movhi hi(-1090519040),r0,r13
 360 040a 2DFA0018 		mulf.s r13,r17
 361 040e 27FA0010 		addf.s r7,r17
 362 0412 2AFA001C 		divf.s r10,r17
 363 0416 A0BD0041 		movhi hi(1090519040),r0,r13
 364 041a 2DFA0018 		mulf.s r13,r17
 365 041e 31FA000C 		cvt.sw r17,r17
 366 0422 313E     		not r17,r17
 367 0424 2146     		add 1,r17
 368 0426 3052     		shl 16,r17
 369 0428 305E     		sar 16,r17
 370 042a 40BD0400 		movhi hi(251920),r0,r10
 371 042e 4AA110D8 		movea lo(251920),r10,r10
 372 0432 CA04     		add r10,r6
 373 0434 46C50000 		ld.h 0[r6],r10
 374 0438 400D     		cmp r0,r10
 375 043a 6A84     		be .L36
 376 043c 48F90008 		cvt.ws r8,r10
 377 0440 0EF90008 		cvt.ws r14,r8
 378 0444 0BF90018 		mulf.s r11,r8
 379 0448 A0BD00BF 		movhi hi(-1090519040),r0,r13
 380 044c 0DF90018 		mulf.s r13,r8
 381 0450 0AF90010 		addf.s r10,r8
 382 0454 0BF9001C 		divf.s r11,r8
 383 0458 6801     		mov r8,r11
 384 045a 40BD0044 		movhi hi(1140850688),r0,r10
 385 045e 6AF90018 		mulf.s r10,r11
 386 0462 6BF9000C 		cvt.sw r11,r11
 387 0466 6B3D     		not r11,r11
 388 0468 6145     		add 1,r11
 389 046a 4041     		mov 0,r10
 390              	.L35:
 391 046c AA01     		mov r10,r13
 392 046e AA05     		add r10,r13
 393 0470 AC05     		add r12,r13
 394 0472 2DD60000 		st.h r17,0[r13]
 395 0476 AAA50200 		addi 2,r10,r13
 396 047a AD05     		add r13,r13
 397 047c AC05     		add r12,r13
 398 047e CB01     		mov r11,r14
 399 0480 C65D     		sar 6,r14
GAS LISTING /tmp/ccjfHZuC.s 			page 8


 400 0482 CDD50000 		st.h r14,0[r13]
 401 0486 AAA50300 		addi 3,r10,r13
 402 048a AD05     		add r13,r13
 403 048c AC05     		add r12,r13
 404 048e 0DD60000 		st.h r16,0[r13]
 405 0492 4845     		add 8,r10
 406 0494 6F05     		add r15,r11
 407 0496 A6C50000 		ld.h 0[r6],r13
 408 049a ADB5FFFF 		andi 65535,r13,r13
 409 049e A351     		shl 3,r13
 410 04a0 AA0D     		cmp r10,r13
 411 04a2 CA9F     		bgt .L35
 412              	.L36:
 413 04a4 1F18     		jmp [r31]
 414              		.size	_affine_scale, .-_affine_scale
 415 04a6 0000     		.align 2
 416              		.global _affine_fast_scale
 417              		.type	_affine_fast_scale, @function
 418              	_affine_fast_scale:
 419 04a8 C6B4FF00 		andi 255,r6,r6
 420 04ac C550     		shl 5,r6
 421 04ae 40BD0400 		movhi hi(251922),r0,r10
 422 04b2 4AA112D8 		movea lo(251922),r10,r10
 423 04b6 4605     		add r6,r10
 424 04b8 4AC50000 		ld.h 0[r10],r10
 425 04bc 4AB5FFFF 		andi 65535,r10,r10
 426 04c0 4A05     		add r10,r10
 427 04c2 60BD0200 		movhi hi(131072),r0,r11
 428 04c6 4B05     		add r11,r10
 429 04c8 60BD0044 		movhi hi(1140850688),r0,r11
 430 04cc 67F90018 		mulf.s r7,r11
 431 04d0 6BF9000C 		cvt.sw r11,r11
 432 04d4 C0BD0400 		movhi hi(262144),r0,r14
 433 04d8 CB25     		div r11,r14
 434 04da D051     		shl 16,r14
 435 04dc D05D     		sar 16,r14
 436 04de 60BD0400 		movhi hi(251920),r0,r11
 437 04e2 6BA110D8 		movea lo(251920),r11,r11
 438 04e6 CB04     		add r11,r6
 439 04e8 66C50000 		ld.h 0[r6],r11
 440 04ec 600D     		cmp r0,r11
 441 04ee 3E84     		be .L41
 442 04f0 8041     		mov 0,r12
 443 04f2 6C01     		mov r12,r11
 444              	.L40:
 445 04f4 AB01     		mov r11,r13
 446 04f6 AB05     		add r11,r13
 447 04f8 AA05     		add r10,r13
 448 04fa 0DD40000 		st.h r0,0[r13]
 449 04fe ABA50200 		addi 2,r11,r13
 450 0502 AD05     		add r13,r13
 451 0504 AA05     		add r10,r13
 452 0506 EC01     		mov r12,r15
 453 0508 E65D     		sar 6,r15
 454 050a EDD50000 		st.h r15,0[r13]
 455 050e ABA50300 		addi 3,r11,r13
 456 0512 AD05     		add r13,r13
GAS LISTING /tmp/ccjfHZuC.s 			page 9


 457 0514 AA05     		add r10,r13
 458 0516 CDD50000 		st.h r14,0[r13]
 459 051a 6845     		add 8,r11
 460 051c 8E05     		add r14,r12
 461 051e A6C50000 		ld.h 0[r6],r13
 462 0522 ADB5FFFF 		andi 65535,r13,r13
 463 0526 A351     		shl 3,r13
 464 0528 AB0D     		cmp r11,r13
 465 052a CA9F     		bgt .L40
 466              	.L41:
 467 052c 1F18     		jmp [r31]
 468              		.size	_affine_fast_scale, .-_affine_fast_scale
 469 052e 0000     		.align 2
 470              		.global _set_intlevel
 471              		.type	_set_intlevel, @function
 472              	_set_intlevel:
 473 0530 46B5FF00 		andi 255,r6,r10
 474              	#APP
 475              	# 22 "../../libs/libgccvb/asm.h" 1
   1              	#ifndef __ASM_H
   2              	#define __ASM_H
   3              	
   4              	#define INT_ENABLE		asm("CLI;")
   5              	#define INT_DISABLE		asm("SEI;")
   6              	
   7              	u32 jump_addr(void *addr);
   8              	
   9              	    asm(".globl _jump_addr");
  10              	    asm("_jump_addr:");
  11              	    asm("add	-4,sp;");
  12              	    asm("st.w	lp,0[sp];");
  13              	    asm("jal	__dojump;");
  14              	    asm("ld.w	0[sp],lp;");
  15              	    asm("add	4,sp;");
  16              	    asm("jmp	[lp];");
  17              	    asm("__dojump:");
  18              	    asm("jmp	[r6];");
  19              	
  20              	
  21              	void inline set_intlevel(u8 level) {
  22 0534 A574C0BC 		asm(
  22      F1FFC6A0 
  22      FFFFC534 
  22      AA00A5B4 
  22      0F00B050 
  23              		    "stsr	sr5,r5;"
 476              		stsr	sr5,r5;movhi	0xFFF1,r0,r6;movea	0xFFFF,r6,r6;and		r5,r6;mov		r10,r5;andi	0x000F,r5,r5;shl		0x
 477              	# 0 "" 2
 478              	#NO_APP
 479 054c 1F18     		jmp [r31]
 480              		.size	_set_intlevel, .-_set_intlevel
 481 054e 0000     		.align 2
 482              		.global _get_intlevel
 483              		.type	_get_intlevel, @function
 484              	_get_intlevel:
 485              	#APP
 486              	# 42 "../../libs/libgccvb/asm.h" 1
GAS LISTING /tmp/ccjfHZuC.s 			page 10


  24              		    "movhi	0xFFF1,r0,r6;"
  25              		    "movea	0xFFFF,r6,r6;"
  26              		    "and		r5,r6;"
  27              		    "mov		%0,r5;"
  28              		    "andi	0x000F,r5,r5;"
  29              		    "shl		0x10,r5;"
  30              		    "or		r6,r5;"
  31              		    "ldsr	r5,sr5;"
  32              		: /* Output */
  33              		: "r" (level) /* Input */
  34              		: "r5", "r6" /* Clobber */
  35              		);
  36              	}
  37              	
  38              	
  39              	int inline get_intlevel() {
  40              		int level;
  41              	
  42 0550 A574B054 		asm(
  42      A5B40F00 
  42      4501
  43              		    "stsr	sr5,r5;"
 487              		stsr	sr5,r5;shr	0x10,r5;andi	0x000F,r5,r5;mov	r5,r10;
 488              	# 0 "" 2
 489              	#NO_APP
 490 055a 1F18     		jmp [r31]
 491              		.size	_get_intlevel, .-_get_intlevel
 492              		.align 2
 493              		.global _vbReadPad
 494              		.type	_vbReadPad, @function
 495              	_vbReadPad:
 496 055c 60A184FF 		movea lo(-124),r0,r11
 497 0560 40BD0002 		movhi hi(33554472),r0,r10
 498 0564 4AA12800 		movea lo(33554472),r10,r10
 499 0568 6AD10000 		st.b r11,0[r10]
 500 056c 6A01     		mov r10,r11
 501              	.L48:
 502 056e 4BC10000 		ld.b 0[r11],r10
 503 0572 4AB50200 		andi 2,r10,r10
 504 0576 F895     		bne .L48
 505 0578 40BD0002 		movhi hi(33554452),r0,r10
 506 057c 4AA11400 		movea lo(33554452),r10,r10
 507 0580 4AC10000 		ld.b 0[r10],r10
 508 0584 4AB5FF00 		andi 255,r10,r10
 509 0588 60BD0002 		movhi hi(33554448),r0,r11
 510 058c 6BA11000 		movea lo(33554448),r11,r11
 511 0590 6BC10000 		ld.b 0[r11],r11
 512 0594 6BB5FF00 		andi 255,r11,r11
 513 0598 4851     		shl 8,r10
 514 059a 4B31     		or r11,r10
 515 059c 1F18     		jmp [r31]
 516              		.size	_vbReadPad, .-_vbReadPad
 517 059e 0000     		.align 2
 518              		.global _vbPadKeyDown
 519              		.type	_vbPadKeyDown, @function
 520              	_vbPadKeyDown:
 521 05a0 5F01     		mov r31,r10
GAS LISTING /tmp/ccjfHZuC.s 			page 11


 522 05a2 00AC0000 		jal __save_r31
 523 05a6 FFAF5AFA 		jal _vbReadPad
 524 05aa 4AB5FCFF 		andi 65532,r10,r10
 525 05ae 60BD0000 		movhi hi(_oldkeydown),r0,r11
 526 05b2 6BA10000 		movea lo(_oldkeydown),r11,r11
 527 05b6 8BC50000 		ld.h 0[r11],r12
 528 05ba 8C3D     		not r12,r12
 529 05bc 4BD50000 		st.h r10,0[r11]
 530 05c0 4C35     		and r12,r10
 531 05c2 00A80000 		jr __return_r31
 532              		.size	_vbPadKeyDown, .-_vbPadKeyDown
 533 05c6 0000     		.align 2
 534              		.global _vbPadKeyUp
 535              		.type	_vbPadKeyUp, @function
 536              	_vbPadKeyUp:
 537 05c8 5F01     		mov r31,r10
 538 05ca 00AC0000 		jal __save_r31
 539 05ce FFAF32FA 		jal _vbReadPad
 540 05d2 8AB5FCFF 		andi 65532,r10,r12
 541 05d6 60BD0000 		movhi hi(_oldkeyup),r0,r11
 542 05da 6BA10000 		movea lo(_oldkeyup),r11,r11
 543 05de AC3D     		not r12,r13
 544 05e0 4BC50000 		ld.h 0[r11],r10
 545 05e4 8BD50000 		st.h r12,0[r11]
 546 05e8 4D35     		and r13,r10
 547 05ea 00A80000 		jr __return_r31
 548              		.size	_vbPadKeyUp, .-_vbPadKeyUp
 549 05ee 0000     		.align 2
 550              		.global _copymem
 551              		.type	_copymem, @function
 552              	_copymem:
 553 05f0 08B5FFFF 		andi 65535,r8,r8
 554 05f4 1E84     		be .L58
 555 05f6 4041     		mov 0,r10
 556              	.L57:
 557 05f8 6601     		mov r6,r11
 558 05fa 6A05     		add r10,r11
 559 05fc 8701     		mov r7,r12
 560 05fe 8A05     		add r10,r12
 561 0600 8CC10000 		ld.b 0[r12],r12
 562 0604 8BD10000 		st.b r12,0[r11]
 563 0608 4145     		add 1,r10
 564 060a 6AB5FFFF 		andi 65535,r10,r11
 565 060e 0B0D     		cmp r11,r8
 566 0610 E897     		bh .L57
 567              	.L58:
 568 0612 1F18     		jmp [r31]
 569              		.size	_copymem, .-_copymem
 570              		.align 2
 571              		.global _setmem
 572              		.type	_setmem, @function
 573              	_setmem:
 574 0614 E7B4FF00 		andi 255,r7,r7
 575 0618 08B5FFFF 		andi 65535,r8,r8
 576 061c 1684     		be .L63
 577 061e 4041     		mov 0,r10
 578              	.L62:
GAS LISTING /tmp/ccjfHZuC.s 			page 12


 579 0620 6601     		mov r6,r11
 580 0622 6A05     		add r10,r11
 581 0624 EBD00000 		st.b r7,0[r11]
 582 0628 4145     		add 1,r10
 583 062a 6AB5FFFF 		andi 65535,r10,r11
 584 062e 0B0D     		cmp r11,r8
 585 0630 F097     		bh .L62
 586              	.L63:
 587 0632 1F18     		jmp [r31]
 588              		.size	_setmem, .-_setmem
 589              		.align 2
 590              		.global _addmem
 591              		.type	_addmem, @function
 592              	_addmem:
 593 0634 08B5FFFF 		andi 65535,r8,r8
 594 0638 29B5FF00 		andi 255,r9,r9
 595 063c 000D     		cmp r0,r8
 596 063e 2084     		be .L68
 597 0640 4041     		mov 0,r10
 598              	.L67:
 599 0642 6601     		mov r6,r11
 600 0644 6A05     		add r10,r11
 601 0646 8701     		mov r7,r12
 602 0648 8A05     		add r10,r12
 603 064a 8CC10000 		ld.b 0[r12],r12
 604 064e 8905     		add r9,r12
 605 0650 8BD10000 		st.b r12,0[r11]
 606 0654 4145     		add 1,r10
 607 0656 6AB5FFFF 		andi 65535,r10,r11
 608 065a 0B0D     		cmp r11,r8
 609 065c E697     		bh .L67
 610              	.L68:
 611 065e 1F18     		jmp [r31]
 612              		.size	_addmem, .-_addmem
 613              		.align 2
 614              		.global _cls
 615              		.type	_cls, @function
 616              	_cls:
 617 0660 5F01     		mov r31,r10
 618 0662 00AC0000 		jal __save_r31
 619 0666 C0BC0200 		movhi hi(131072),r0,r6
 620 066a E040     		mov 0,r7
 621 066c 00A10020 		movea lo(8192),r0,r8
 622 0670 FFAF90F9 		jal _setmem
 623 0674 00A80000 		jr __return_r31
 624              		.size	_cls, .-_cls
 625              		.align 2
 626              		.global _vbTextOut
 627              		.type	_vbTextOut, @function
 628              	_vbTextOut:
 629 0678 C6B4FFFF 		andi 65535,r6,r6
 630 067c 08B5FFFF 		andi 65535,r8,r8
 631 0680 0651     		shl 6,r8
 632 0682 0705     		add r7,r8
 633 0684 08B5FFFF 		andi 65535,r8,r8
 634 0688 69C10000 		ld.b 0[r9],r11
 635 068c 7851     		shl 24,r11
GAS LISTING /tmp/ccjfHZuC.s 			page 13


 636 068e 785D     		sar 24,r11
 637 0690 3084     		be .L75
 638 0692 CC50     		shl 12,r6
 639 0694 C804     		add r8,r6
 640 0696 4041     		mov 0,r10
 641              	.L74:
 642 0698 8A01     		mov r10,r12
 643 069a 8605     		add r6,r12
 644 069c 8C05     		add r12,r12
 645 069e A0BD0200 		movhi hi(131072),r0,r13
 646 06a2 8D05     		add r13,r12
 647 06a4 6BA50006 		addi 1536,r11,r11
 648 06a8 6CD50000 		st.h r11,0[r12]
 649 06ac 4145     		add 1,r10
 650 06ae 4AB5FFFF 		andi 65535,r10,r10
 651 06b2 6901     		mov r9,r11
 652 06b4 6A05     		add r10,r11
 653 06b6 6BC10000 		ld.b 0[r11],r11
 654 06ba 7851     		shl 24,r11
 655 06bc 785D     		sar 24,r11
 656 06be DA95     		bne .L74
 657              	.L75:
 658 06c0 1F18     		jmp [r31]
 659              		.size	_vbTextOut, .-_vbTextOut
 660 06c2 0000     		.align 2
 661              		.global _vbPrint
 662              		.type	_vbPrint, @function
 663              	_vbPrint:
 664 06c4 C6B4FF00 		andi 255,r6,r6
 665 06c8 E7B4FFFF 		andi 65535,r7,r7
 666 06cc 08B5FFFF 		andi 65535,r8,r8
 667 06d0 43CE1000 		ld.w 16[sp],r18
 668 06d4 52B6FFFF 		andi 65535,r18,r18
 669 06d8 69C10000 		ld.b 0[r9],r11
 670 06dc 7851     		shl 24,r11
 671 06de 785D     		sar 24,r11
 672 06e0 9E84     		be .L86
 673 06e2 CC50     		shl 12,r6
 674 06e4 5E52     		shl 30,r18
 675 06e6 505E     		sar 16,r18
 676 06e8 A701     		mov r7,r13
 677 06ea 8041     		mov 0,r12
 678 06ec 0742     		mov 7,r16
 679 06ee E641     		mov 6,r15
 680 06f0 20A23F00 		movea lo(63),r0,r17
 681 06f4 C0BD0000 		movhi hi(.L83),r0,r14
 682 06f8 CEA10000 		movea lo(.L83),r14,r14
 683              	.L85:
 684 06fc 4B01     		mov r11,r10
 685 06fe 5009     		sub r16,r10
 686 0700 4F0D     		cmp r15,r10
 687 0702 3696     		bh .L79
 688 0704 4151     		shl 1,r10
 689 0706 4E05     		add r14,r10
 690 0708 4AC50000 		ld.h 0[r10],r10
 691 070c 5051     		shl 16,r10
 692 070e 505D     		sar 16,r10
GAS LISTING /tmp/ccjfHZuC.s 			page 14


 693 0710 4E05     		add r14,r10
 694 0712 0A18     		jmp  r10
 695              		.align 1
 696              		.align 1
 697              	.L83:
 698 0714 5600     		.short .L80-.L83
 699 0716 2400     		.short .L79-.L83
 700 0718 0E00     		.short .L81-.L83
 701 071a 1A00     		.short .L82-.L83
 702 071c 2400     		.short .L79-.L83
 703 071e 2400     		.short .L79-.L83
 704 0720 5600     		.short .L80-.L83
 705              	.L81:
 706 0722 ADB5FCFF 		andi 65532,r13,r13
 707 0726 A445     		add 4,r13
 708 0728 ADB5FFFF 		andi 65535,r13,r13
 709 072c 3E8A     		br .L80
 710              	.L82:
 711 072e 0145     		add 1,r8
 712 0730 08B5FFFF 		andi 65535,r8,r8
 713 0734 A701     		mov r7,r13
 714 0736 348A     		br .L80
 715              	.L79:
 716 0738 4801     		mov r8,r10
 717 073a 4651     		shl 6,r10
 718 073c 4D05     		add r13,r10
 719 073e 4AB5FFFF 		andi 65535,r10,r10
 720 0742 4605     		add r6,r10
 721 0744 4A05     		add r10,r10
 722 0746 60BE0200 		movhi hi(131072),r0,r19
 723 074a 5305     		add r19,r10
 724 074c 6BA50007 		addi 1792,r11,r11
 725 0750 7231     		or r18,r11
 726 0752 6AD50000 		st.h r11,0[r10]
 727 0756 B10D     		cmp r17,r13
 728 0758 0A96     		bh .L84
 729 075a A145     		add 1,r13
 730 075c ADB5FFFF 		andi 65535,r13,r13
 731 0760 0A8A     		br .L80
 732              	.L84:
 733 0762 0145     		add 1,r8
 734 0764 08B5FFFF 		andi 65535,r8,r8
 735 0768 A701     		mov r7,r13
 736              	.L80:
 737 076a 8145     		add 1,r12
 738 076c 8CB5FFFF 		andi 65535,r12,r12
 739 0770 4901     		mov r9,r10
 740 0772 4C05     		add r12,r10
 741 0774 6AC10000 		ld.b 0[r10],r11
 742 0778 7851     		shl 24,r11
 743 077a 785D     		sar 24,r11
 744 077c 8095     		bne .L85
 745              	.L86:
 746 077e 1F18     		jmp [r31]
 747              		.size	_vbPrint, .-_vbPrint
 748              		.align 2
 749              		.global _vbSetObject
GAS LISTING /tmp/ccjfHZuC.s 			page 15


 750              		.type	_vbSetObject, @function
 751              	_vbSetObject:
 752 0780 63CD1000 		ld.w 16[sp],r11
 753 0784 43CD1400 		ld.w 20[sp],r10
 754 0788 E7B4FF00 		andi 255,r7,r7
 755 078c 3051     		shl 16,r9
 756 078e 305D     		sar 16,r9
 757 0790 C350     		shl 3,r6
 758 0792 80BD0200 		movhi hi(131064),r0,r12
 759 0796 8CA1F8FF 		movea lo(131064),r12,r12
 760 079a CC34     		and r12,r6
 761 079c 80BD0400 		movhi hi(253952),r0,r12
 762 07a0 8CA100E0 		movea lo(253952),r12,r12
 763 07a4 8605     		add r6,r12
 764 07a6 0CD50000 		st.h r8,0[r12]
 765 07aa 80BD0400 		movhi hi(253954),r0,r12
 766 07ae 8CA102E0 		movea lo(253954),r12,r12
 767 07b2 8605     		add r6,r12
 768 07b4 A701     		mov r7,r13
 769 07b6 A851     		shl 8,r13
 770 07b8 2D31     		or r13,r9
 771 07ba 2CD50000 		st.h r9,0[r12]
 772 07be 80BD0400 		movhi hi(253956),r0,r12
 773 07c2 8CA104E0 		movea lo(253956),r12,r12
 774 07c6 8605     		add r6,r12
 775 07c8 6CD50000 		st.h r11,0[r12]
 776 07cc 60BD0400 		movhi hi(253958),r0,r11
 777 07d0 6BA106E0 		movea lo(253958),r11,r11
 778 07d4 CB04     		add r11,r6
 779 07d6 E7B43C00 		andi 60,r7,r7
 780 07da 6AB5FF07 		andi 2047,r10,r11
 781 07de EA50     		shl 10,r7
 782 07e0 4B01     		mov r11,r10
 783 07e2 4731     		or r7,r10
 784 07e4 46D50000 		st.h r10,0[r6]
 785 07e8 1F18     		jmp [r31]
 786              		.size	_vbSetObject, .-_vbSetObject
 787 07ea 0000     		.align 2
 788              		.global _randseed
 789              		.type	_randseed, @function
 790              	_randseed:
 791 07ec 40BD0000 		movhi hi(_VIP_REGS),r0,r10
 792 07f0 0ACE0000 		ld.w lo(_VIP_REGS)[r10],r16
 793 07f4 10A63000 		addi 48,r16,r16
 794 07f8 90C50000 		ld.h 0[r16],r12
 795 07fc 8CB5FFFF 		andi 65535,r12,r12
 796 0800 6141     		mov 1,r11
 797 0802 A041     		mov 0,r13
 798 0804 4B01     		mov r11,r10
 799 0806 C0A02F75 		movea lo(29999),r0,r6
 800 080a 4D02     		mov r13,r18
 801 080c 6B02     		mov r11,r19
 802 080e 168A     		br .L91
 803              	.L93:
 804 0810 7201     		mov r18,r11
 805              	.L94:
 806 0812 D0C50000 		ld.h 0[r16],r14
GAS LISTING /tmp/ccjfHZuC.s 			page 16


 807 0816 CEB5FFFF 		andi 65535,r14,r14
 808 081a 400D     		cmp r0,r10
 809 081c 0494     		bne .L92
 810 081e 5301     		mov r19,r10
 811              	.L92:
 812 0820 AC01     		mov r12,r13
 813 0822 8E01     		mov r14,r12
 814              	.L91:
 815 0824 EB01     		mov r11,r15
 816 0826 EC21     		mul r12,r15
 817 0828 2B02     		mov r11,r17
 818 082a 2A26     		div r10,r17
 819 082c DE01     		mov r30,r14
 820 082e CF05     		add r15,r14
 821 0830 4E05     		add r14,r10
 822 0832 8D0D     		cmp r13,r12
 823 0834 DC95     		bne .L93
 824 0836 6145     		add 1,r11
 825 0838 660D     		cmp r6,r11
 826 083a D88F     		ble .L94
 827 083c 1F18     		jmp [r31]
 828              		.size	_randseed, .-_randseed
 829 083e 0000     		.align 2
 830              		.global _randnum
 831              		.type	_randnum, @function
 832              	_randnum:
 833 0840 C724     		div r7,r6
 834 0842 5E01     		mov r30,r10
 835 0844 1F18     		jmp [r31]
 836              		.size	_randnum, .-_randnum
 837 0846 0000     		.align 2
 838              		.global _vbSetWorld
 839              		.type	_vbSetWorld, @function
 840              	_vbSetWorld:
 841 0848 E3CD1000 		ld.w 16[sp],r15
 842 084c C3CD1400 		ld.w 20[sp],r14
 843 0850 A3CD1800 		ld.w 24[sp],r13
 844 0854 83CD1C00 		ld.w 28[sp],r12
 845 0858 63CD2000 		ld.w 32[sp],r11
 846 085c 43CD2400 		ld.w 36[sp],r10
 847 0860 C450     		shl 4,r6
 848 0862 C6B4FFFF 		andi 65535,r6,r6
 849 0866 0602     		mov r6,r16
 850 0868 0606     		add r6,r16
 851 086a 20BE0400 		movhi hi(251904),r0,r17
 852 086e 31A200D8 		movea lo(251904),r17,r17
 853 0872 1106     		add r17,r16
 854 0874 F0D40000 		st.h r7,0[r16]
 855 0878 C144     		add 1,r6
 856 087a C6B4FFFF 		andi 65535,r6,r6
 857 087e 0602     		mov r6,r16
 858 0880 0606     		add r6,r16
 859 0882 20BE0400 		movhi hi(251904),r0,r17
 860 0886 31A200D8 		movea lo(251904),r17,r17
 861 088a 1106     		add r17,r16
 862 088c 10D50000 		st.h r8,0[r16]
 863 0890 C144     		add 1,r6
GAS LISTING /tmp/ccjfHZuC.s 			page 17


 864 0892 C6B4FFFF 		andi 65535,r6,r6
 865 0896 0602     		mov r6,r16
 866 0898 0606     		add r6,r16
 867 089a 20BE0400 		movhi hi(251904),r0,r17
 868 089e 31A200D8 		movea lo(251904),r17,r17
 869 08a2 1106     		add r17,r16
 870 08a4 30D50000 		st.h r9,0[r16]
 871 08a8 C144     		add 1,r6
 872 08aa C6B4FFFF 		andi 65535,r6,r6
 873 08ae 0602     		mov r6,r16
 874 08b0 0606     		add r6,r16
 875 08b2 20BE0400 		movhi hi(251904),r0,r17
 876 08b6 31A200D8 		movea lo(251904),r17,r17
 877 08ba 1106     		add r17,r16
 878 08bc F0D50000 		st.h r15,0[r16]
 879 08c0 C144     		add 1,r6
 880 08c2 C6B4FFFF 		andi 65535,r6,r6
 881 08c6 E601     		mov r6,r15
 882 08c8 E605     		add r6,r15
 883 08ca 1102     		mov r17,r16
 884 08cc F105     		add r17,r15
 885 08ce CFD50000 		st.h r14,0[r15]
 886 08d2 C6A50100 		addi 1,r6,r14
 887 08d6 CEB5FFFF 		andi 65535,r14,r14
 888 08da EE01     		mov r14,r15
 889 08dc EE05     		add r14,r15
 890 08de 3002     		mov r16,r17
 891 08e0 F005     		add r16,r15
 892 08e2 AFD50000 		st.h r13,0[r15]
 893 08e6 AEA50100 		addi 1,r14,r13
 894 08ea ADB5FFFF 		andi 65535,r13,r13
 895 08ee CD01     		mov r13,r14
 896 08f0 CD05     		add r13,r14
 897 08f2 F001     		mov r16,r15
 898 08f4 D005     		add r16,r14
 899 08f6 8ED50000 		st.h r12,0[r14]
 900 08fa 8DA50100 		addi 1,r13,r12
 901 08fe 8CB5FFFF 		andi 65535,r12,r12
 902 0902 AC01     		mov r12,r13
 903 0904 AC05     		add r12,r13
 904 0906 B105     		add r17,r13
 905 0908 6DD50000 		st.h r11,0[r13]
 906 090c 8145     		add 1,r12
 907 090e 8CB5FFFF 		andi 65535,r12,r12
 908 0912 8C05     		add r12,r12
 909 0914 8F05     		add r15,r12
 910 0916 4CD50000 		st.h r10,0[r12]
 911 091a 1F18     		jmp [r31]
 912              		.size	_vbSetWorld, .-_vbSetWorld
 913              		.align 2
 914              		.global _timer_enable
 915              		.type	_timer_enable, @function
 916              	_timer_enable:
 917 091c C00C     		cmp r0,r6
 918 091e 1884     		be .L101
 919 0920 40BD0000 		movhi hi(_tcr_val),r0,r10
 920 0924 4AA10000 		movea lo(_tcr_val),r10,r10
GAS LISTING /tmp/ccjfHZuC.s 			page 18


 921 0928 6AC10000 		ld.b 0[r10],r11
 922 092c 6BB10100 		ori 1,r11,r11
 923 0930 6AD10000 		st.b r11,0[r10]
 924 0934 168A     		br .L102
 925              	.L101:
 926 0936 40BD0000 		movhi hi(_tcr_val),r0,r10
 927 093a 4AA10000 		movea lo(_tcr_val),r10,r10
 928 093e 6AC10000 		ld.b 0[r10],r11
 929 0942 9E41     		mov -2,r12
 930 0944 6C35     		and r12,r11
 931 0946 6AD10000 		st.b r11,0[r10]
 932              	.L102:
 933 094a 40BD0000 		movhi hi(_tcr_val),r0,r10
 934 094e 6AC10000 		ld.b lo(_tcr_val)[r10],r11
 935 0952 40BD0002 		movhi hi(33554464),r0,r10
 936 0956 4AA12000 		movea lo(33554464),r10,r10
 937 095a 6AD10000 		st.b r11,0[r10]
 938 095e 1F18     		jmp [r31]
 939              		.size	_timer_enable, .-_timer_enable
 940              		.align 2
 941              		.global _timer_get
 942              		.type	_timer_get, @function
 943              	_timer_get:
 944 0960 40BD0002 		movhi hi(33554456),r0,r10
 945 0964 4AA11800 		movea lo(33554456),r10,r10
 946 0968 6AC10000 		ld.b 0[r10],r11
 947 096c 6BB5FF00 		andi 255,r11,r11
 948 0970 40BD0002 		movhi hi(33554460),r0,r10
 949 0974 4AA11C00 		movea lo(33554460),r10,r10
 950 0978 4AC10000 		ld.b 0[r10],r10
 951 097c 4AB5FF00 		andi 255,r10,r10
 952 0980 4851     		shl 8,r10
 953 0982 4B31     		or r11,r10
 954 0984 1F18     		jmp [r31]
 955              		.size	_timer_get, .-_timer_get
 956 0986 0000     		.align 2
 957              		.global _timer_set
 958              		.type	_timer_set, @function
 959              	_timer_set:
 960 0988 C6B4FFFF 		andi 65535,r6,r6
 961 098c 40BD0002 		movhi hi(33554456),r0,r10
 962 0990 4AA11800 		movea lo(33554456),r10,r10
 963 0994 CAD00000 		st.b r6,0[r10]
 964 0998 C854     		shr 8,r6
 965 099a 40BD0002 		movhi hi(33554460),r0,r10
 966 099e 4AA11C00 		movea lo(33554460),r10,r10
 967 09a2 CAD00000 		st.b r6,0[r10]
 968 09a6 1F18     		jmp [r31]
 969              		.size	_timer_set, .-_timer_set
 970              		.align 2
 971              		.global _timer_freq
 972              		.type	_timer_freq, @function
 973              	_timer_freq:
 974 09a8 C00C     		cmp r0,r6
 975 09aa 1884     		be .L109
 976 09ac 40BD0000 		movhi hi(_tcr_val),r0,r10
 977 09b0 4AA10000 		movea lo(_tcr_val),r10,r10
GAS LISTING /tmp/ccjfHZuC.s 			page 19


 978 09b4 6AC10000 		ld.b 0[r10],r11
 979 09b8 6BB11000 		ori 16,r11,r11
 980 09bc 6AD10000 		st.b r11,0[r10]
 981 09c0 188A     		br .L110
 982              	.L109:
 983 09c2 40BD0000 		movhi hi(_tcr_val),r0,r10
 984 09c6 4AA10000 		movea lo(_tcr_val),r10,r10
 985 09ca 6AC10000 		ld.b 0[r10],r11
 986 09ce 80A1EFFF 		movea lo(-17),r0,r12
 987 09d2 6C35     		and r12,r11
 988 09d4 6AD10000 		st.b r11,0[r10]
 989              	.L110:
 990 09d8 40BD0000 		movhi hi(_tcr_val),r0,r10
 991 09dc 6AC10000 		ld.b lo(_tcr_val)[r10],r11
 992 09e0 40BD0002 		movhi hi(33554464),r0,r10
 993 09e4 4AA12000 		movea lo(33554464),r10,r10
 994 09e8 6AD10000 		st.b r11,0[r10]
 995 09ec 1F18     		jmp [r31]
 996              		.size	_timer_freq, .-_timer_freq
 997 09ee 0000     		.align 2
 998              		.global _timer_int
 999              		.type	_timer_int, @function
 1000              	_timer_int:
 1001 09f0 C00C     		cmp r0,r6
 1002 09f2 1884     		be .L113
 1003 09f4 40BD0000 		movhi hi(_tcr_val),r0,r10
 1004 09f8 4AA10000 		movea lo(_tcr_val),r10,r10
 1005 09fc 6AC10000 		ld.b 0[r10],r11
 1006 0a00 6BB10800 		ori 8,r11,r11
 1007 0a04 6AD10000 		st.b r11,0[r10]
 1008 0a08 168A     		br .L114
 1009              	.L113:
 1010 0a0a 40BD0000 		movhi hi(_tcr_val),r0,r10
 1011 0a0e 4AA10000 		movea lo(_tcr_val),r10,r10
 1012 0a12 6AC10000 		ld.b 0[r10],r11
 1013 0a16 9741     		mov -9,r12
 1014 0a18 6C35     		and r12,r11
 1015 0a1a 6AD10000 		st.b r11,0[r10]
 1016              	.L114:
 1017 0a1e 40BD0000 		movhi hi(_tcr_val),r0,r10
 1018 0a22 6AC10000 		ld.b lo(_tcr_val)[r10],r11
 1019 0a26 40BD0002 		movhi hi(33554464),r0,r10
 1020 0a2a 4AA12000 		movea lo(33554464),r10,r10
 1021 0a2e 6AD10000 		st.b r11,0[r10]
 1022 0a32 1F18     		jmp [r31]
 1023              		.size	_timer_int, .-_timer_int
 1024              		.align 2
 1025              		.global _timer_getstat
 1026              		.type	_timer_getstat, @function
 1027              	_timer_getstat:
 1028 0a34 40BD0002 		movhi hi(33554464),r0,r10
 1029 0a38 4AA12000 		movea lo(33554464),r10,r10
 1030 0a3c 4AC10000 		ld.b 0[r10],r10
 1031 0a40 4155     		shr 1,r10
 1032 0a42 4AB50100 		andi 1,r10,r10
 1033 0a46 1F18     		jmp [r31]
 1034              		.size	_timer_getstat, .-_timer_getstat
GAS LISTING /tmp/ccjfHZuC.s 			page 20


 1035              		.align 2
 1036              		.global _timer_clearstat
 1037              		.type	_timer_clearstat, @function
 1038              	_timer_clearstat:
 1039 0a48 40BD0000 		movhi hi(_tcr_val),r0,r10
 1040 0a4c 6AC10000 		ld.b lo(_tcr_val)[r10],r11
 1041 0a50 6BB10400 		ori 4,r11,r11
 1042 0a54 40BD0002 		movhi hi(33554464),r0,r10
 1043 0a58 4AA12000 		movea lo(33554464),r10,r10
 1044 0a5c 6AD10000 		st.b r11,0[r10]
 1045 0a60 1F18     		jmp [r31]
 1046              		.size	_timer_clearstat, .-_timer_clearstat
 1047 0a62 0000     		.align 2
 1048              		.global _g3d_copyVector3d
 1049              		.type	_g3d_copyVector3d, @function
 1050              	_g3d_copyVector3d:
 1051 0a64 46CD0000 		ld.w 0[r6],r10
 1052 0a68 47DD0000 		st.w r10,0[r7]
 1053 0a6c 46CD0400 		ld.w 4[r6],r10
 1054 0a70 47DD0400 		st.w r10,4[r7]
 1055 0a74 46CD0800 		ld.w 8[r6],r10
 1056 0a78 47DD0800 		st.w r10,8[r7]
 1057 0a7c 46CD0C00 		ld.w 12[r6],r10
 1058 0a80 47DD0C00 		st.w r10,12[r7]
 1059 0a84 46CD1000 		ld.w 16[r6],r10
 1060 0a88 47DD1000 		st.w r10,16[r7]
 1061 0a8c 1F18     		jmp [r31]
 1062              		.size	_g3d_copyVector3d, .-_g3d_copyVector3d
 1063 0a8e 0000     		.align 2
 1064              		.global _g3d_scale
 1065              		.type	_g3d_scale, @function
 1066              	_g3d_scale:
 1067 0a90 46CD0000 		ld.w 0[r6],r10
 1068 0a94 414D     		cmp 1,r10
 1069 0a96 3C94     		bne .L123
 1070 0a98 66CD0400 		ld.w 4[r6],r11
 1071 0a9c 614D     		cmp 1,r11
 1072 0a9e 3494     		bne .L123
 1073 0aa0 66CD0800 		ld.w 8[r6],r11
 1074 0aa4 614D     		cmp 1,r11
 1075 0aa6 2C94     		bne .L123
 1076 0aa8 47CD0000 		ld.w 0[r7],r10
 1077 0aac 48DD0000 		st.w r10,0[r8]
 1078 0ab0 47CD0400 		ld.w 4[r7],r10
 1079 0ab4 48DD0400 		st.w r10,4[r8]
 1080 0ab8 47CD0800 		ld.w 8[r7],r10
 1081 0abc 48DD0800 		st.w r10,8[r8]
 1082 0ac0 47CD0C00 		ld.w 12[r7],r10
 1083 0ac4 48DD0C00 		st.w r10,12[r8]
 1084 0ac8 47CD1000 		ld.w 16[r7],r10
 1085 0acc 48DD1000 		st.w r10,16[r8]
 1086 0ad0 1F18     		jmp [r31]
 1087              	.L123:
 1088 0ad2 67CD0000 		ld.w 0[r7],r11
 1089 0ad6 4B21     		mul r11,r10
 1090 0ad8 435D     		sar 3,r10
 1091 0ada 48DD0000 		st.w r10,0[r8]
GAS LISTING /tmp/ccjfHZuC.s 			page 21


 1092 0ade 66CD0400 		ld.w 4[r6],r11
 1093 0ae2 47CD0400 		ld.w 4[r7],r10
 1094 0ae6 4B21     		mul r11,r10
 1095 0ae8 435D     		sar 3,r10
 1096 0aea 48DD0400 		st.w r10,4[r8]
 1097 0aee 66CD0800 		ld.w 8[r6],r11
 1098 0af2 47CD0800 		ld.w 8[r7],r10
 1099 0af6 4B21     		mul r11,r10
 1100 0af8 435D     		sar 3,r10
 1101 0afa 48DD0800 		st.w r10,8[r8]
 1102 0afe 1F18     		jmp [r31]
 1103              		.size	_g3d_scale, .-_g3d_scale
 1104              		.align 2
 1105              		.global _g3d_rotateXAxis
 1106              		.type	_g3d_rotateXAxis, @function
 1107              	_g3d_rotateXAxis:
 1108 0b00 47CD0000 		ld.w 0[r7],r10
 1109 0b04 48DD0000 		st.w r10,0[r8]
 1110 0b08 C250     		shl 2,r6
 1111 0b0a 40BD0000 		movhi hi(_sine),r0,r10
 1112 0b0e 4AA10000 		movea lo(_sine),r10,r10
 1113 0b12 4605     		add r6,r10
 1114 0b14 6ACD0000 		ld.w 0[r10],r11
 1115 0b18 A7CD0400 		ld.w 4[r7],r13
 1116 0b1c AB21     		mul r11,r13
 1117 0b1e A35D     		sar 3,r13
 1118 0b20 40BD0000 		movhi hi(_cosine),r0,r10
 1119 0b24 4AA10000 		movea lo(_cosine),r10,r10
 1120 0b28 CA04     		add r10,r6
 1121 0b2a 46CD0000 		ld.w 0[r6],r10
 1122 0b2e 87CD0800 		ld.w 8[r7],r12
 1123 0b32 8A21     		mul r10,r12
 1124 0b34 835D     		sar 3,r12
 1125 0b36 8D05     		add r13,r12
 1126 0b38 88DD0800 		st.w r12,8[r8]
 1127 0b3c 6B3D     		not r11,r11
 1128 0b3e 6145     		add 1,r11
 1129 0b40 87CD0800 		ld.w 8[r7],r12
 1130 0b44 6C21     		mul r12,r11
 1131 0b46 635D     		sar 3,r11
 1132 0b48 87CD0400 		ld.w 4[r7],r12
 1133 0b4c 4C21     		mul r12,r10
 1134 0b4e 435D     		sar 3,r10
 1135 0b50 4B05     		add r11,r10
 1136 0b52 48DD0400 		st.w r10,4[r8]
 1137 0b56 1F18     		jmp [r31]
 1138              		.size	_g3d_rotateXAxis, .-_g3d_rotateXAxis
 1139              		.align 2
 1140              		.global _g3d_rotateYAxis
 1141              		.type	_g3d_rotateYAxis, @function
 1142              	_g3d_rotateYAxis:
 1143 0b58 47CD0400 		ld.w 4[r7],r10
 1144 0b5c 48DD0400 		st.w r10,4[r8]
 1145 0b60 C250     		shl 2,r6
 1146 0b62 40BD0000 		movhi hi(_sine),r0,r10
 1147 0b66 4AA10000 		movea lo(_sine),r10,r10
 1148 0b6a 4605     		add r6,r10
GAS LISTING /tmp/ccjfHZuC.s 			page 22


 1149 0b6c 6ACD0000 		ld.w 0[r10],r11
 1150 0b70 A7CD0800 		ld.w 8[r7],r13
 1151 0b74 AB21     		mul r11,r13
 1152 0b76 A35D     		sar 3,r13
 1153 0b78 40BD0000 		movhi hi(_cosine),r0,r10
 1154 0b7c 4AA10000 		movea lo(_cosine),r10,r10
 1155 0b80 CA04     		add r10,r6
 1156 0b82 46CD0000 		ld.w 0[r6],r10
 1157 0b86 87CD0000 		ld.w 0[r7],r12
 1158 0b8a 8A21     		mul r10,r12
 1159 0b8c 835D     		sar 3,r12
 1160 0b8e 8D05     		add r13,r12
 1161 0b90 88DD0000 		st.w r12,0[r8]
 1162 0b94 6B3D     		not r11,r11
 1163 0b96 6145     		add 1,r11
 1164 0b98 87CD0000 		ld.w 0[r7],r12
 1165 0b9c 6C21     		mul r12,r11
 1166 0b9e 635D     		sar 3,r11
 1167 0ba0 87CD0800 		ld.w 8[r7],r12
 1168 0ba4 4C21     		mul r12,r10
 1169 0ba6 435D     		sar 3,r10
 1170 0ba8 4B05     		add r11,r10
 1171 0baa 48DD0800 		st.w r10,8[r8]
 1172 0bae 1F18     		jmp [r31]
 1173              		.size	_g3d_rotateYAxis, .-_g3d_rotateYAxis
 1174              		.align 2
 1175              		.global _g3d_rotateZAxis
 1176              		.type	_g3d_rotateZAxis, @function
 1177              	_g3d_rotateZAxis:
 1178 0bb0 47CD0800 		ld.w 8[r7],r10
 1179 0bb4 48DD0800 		st.w r10,8[r8]
 1180 0bb8 C250     		shl 2,r6
 1181 0bba 40BD0000 		movhi hi(_sine),r0,r10
 1182 0bbe 4AA10000 		movea lo(_sine),r10,r10
 1183 0bc2 4605     		add r6,r10
 1184 0bc4 6ACD0000 		ld.w 0[r10],r11
 1185 0bc8 A7CD0400 		ld.w 4[r7],r13
 1186 0bcc AB21     		mul r11,r13
 1187 0bce A35D     		sar 3,r13
 1188 0bd0 40BD0000 		movhi hi(_cosine),r0,r10
 1189 0bd4 4AA10000 		movea lo(_cosine),r10,r10
 1190 0bd8 CA04     		add r10,r6
 1191 0bda 46CD0000 		ld.w 0[r6],r10
 1192 0bde 87CD0000 		ld.w 0[r7],r12
 1193 0be2 8A21     		mul r10,r12
 1194 0be4 835D     		sar 3,r12
 1195 0be6 8D05     		add r13,r12
 1196 0be8 88DD0000 		st.w r12,0[r8]
 1197 0bec 6B3D     		not r11,r11
 1198 0bee 6145     		add 1,r11
 1199 0bf0 87CD0000 		ld.w 0[r7],r12
 1200 0bf4 6C21     		mul r12,r11
 1201 0bf6 635D     		sar 3,r11
 1202 0bf8 87CD0400 		ld.w 4[r7],r12
 1203 0bfc 4C21     		mul r12,r10
 1204 0bfe 435D     		sar 3,r10
 1205 0c00 4B05     		add r11,r10
GAS LISTING /tmp/ccjfHZuC.s 			page 23


 1206 0c02 48DD0400 		st.w r10,4[r8]
 1207 0c06 1F18     		jmp [r31]
 1208              		.size	_g3d_rotateZAxis, .-_g3d_rotateZAxis
 1209              		.align 2
 1210              		.global _g3d_rotateAllAxis
 1211              		.type	_g3d_rotateAllAxis, @function
 1212              	_g3d_rotateAllAxis:
 1213 0c08 43CD1000 		ld.w 16[sp],r10
 1214 0c0c C00C     		cmp r0,r6
 1215 0c0e 3494     		bne .L133
 1216 0c10 E00C     		cmp r0,r7
 1217 0c12 3094     		bne .L133
 1218 0c14 000D     		cmp r0,r8
 1219 0c16 3C94     		bne .L134
 1220 0c18 69CD0000 		ld.w 0[r9],r11
 1221 0c1c 6ADD0000 		st.w r11,0[r10]
 1222 0c20 69CD0400 		ld.w 4[r9],r11
 1223 0c24 6ADD0400 		st.w r11,4[r10]
 1224 0c28 69CD0800 		ld.w 8[r9],r11
 1225 0c2c 6ADD0800 		st.w r11,8[r10]
 1226 0c30 69CD0C00 		ld.w 12[r9],r11
 1227 0c34 6ADD0C00 		st.w r11,12[r10]
 1228 0c38 69CD1000 		ld.w 16[r9],r11
 1229 0c3c 6ADD1000 		st.w r11,16[r10]
 1230 0c40 1F18     		jmp [r31]
 1231              	.L133:
 1232 0c42 C00C     		cmp r0,r6
 1233 0c44 069C     		bge .L136
 1234 0c46 C6A46701 		addi 359,r6,r6
 1235              	.L136:
 1236 0c4a E00C     		cmp r0,r7
 1237 0c4c 069C     		bge .L134
 1238 0c4e E7A46701 		addi 359,r7,r7
 1239              	.L134:
 1240 0c52 000D     		cmp r0,r8
 1241 0c54 069C     		bge .L137
 1242 0c56 08A56701 		addi 359,r8,r8
 1243              	.L137:
 1244 0c5a 09CE0000 		ld.w 0[r9],r16
 1245 0c5e 69CD0400 		ld.w 4[r9],r11
 1246 0c62 89CD0800 		ld.w 8[r9],r12
 1247 0c66 C9CD0C00 		ld.w 12[r9],r14
 1248 0c6a A9CD1000 		ld.w 16[r9],r13
 1249 0c6e E00C     		cmp r0,r7
 1250 0c70 0694     		bne .L138
 1251 0c72 F001     		mov r16,r15
 1252 0c74 528A     		br .L139
 1253              	.L138:
 1254 0c76 6ADD0400 		st.w r11,4[r10]
 1255 0c7a E250     		shl 2,r7
 1256 0c7c A0BD0000 		movhi hi(_cosine),r0,r13
 1257 0c80 ADA10000 		movea lo(_cosine),r13,r13
 1258 0c84 A705     		add r7,r13
 1259 0c86 CDCD0000 		ld.w 0[r13],r14
 1260 0c8a 3002     		mov r16,r17
 1261 0c8c 2E22     		mul r14,r17
 1262 0c8e 235E     		sar 3,r17
GAS LISTING /tmp/ccjfHZuC.s 			page 24


 1263 0c90 A0BD0000 		movhi hi(_sine),r0,r13
 1264 0c94 ADA10000 		movea lo(_sine),r13,r13
 1265 0c98 ED04     		add r13,r7
 1266 0c9a A7CD0000 		ld.w 0[r7],r13
 1267 0c9e EC01     		mov r12,r15
 1268 0ca0 ED21     		mul r13,r15
 1269 0ca2 E35D     		sar 3,r15
 1270 0ca4 F105     		add r17,r15
 1271 0ca6 EADD0000 		st.w r15,0[r10]
 1272 0caa CC21     		mul r12,r14
 1273 0cac C35D     		sar 3,r14
 1274 0cae AD3D     		not r13,r13
 1275 0cb0 A145     		add 1,r13
 1276 0cb2 0D22     		mul r13,r16
 1277 0cb4 035E     		sar 3,r16
 1278 0cb6 9001     		mov r16,r12
 1279 0cb8 8E05     		add r14,r12
 1280 0cba 8ADD0800 		st.w r12,8[r10]
 1281 0cbe CACD0C00 		ld.w 12[r10],r14
 1282 0cc2 AACD1000 		ld.w 16[r10],r13
 1283              	.L139:
 1284 0cc6 C00C     		cmp r0,r6
 1285 0cc8 0694     		bne .L140
 1286 0cca 0C02     		mov r12,r16
 1287 0ccc 528A     		br .L141
 1288              	.L140:
 1289 0cce EADD0000 		st.w r15,0[r10]
 1290 0cd2 C250     		shl 2,r6
 1291 0cd4 A0BD0000 		movhi hi(_cosine),r0,r13
 1292 0cd8 ADA10000 		movea lo(_cosine),r13,r13
 1293 0cdc A605     		add r6,r13
 1294 0cde CDCD0000 		ld.w 0[r13],r14
 1295 0ce2 2C02     		mov r12,r17
 1296 0ce4 2E22     		mul r14,r17
 1297 0ce6 235E     		sar 3,r17
 1298 0ce8 A0BD0000 		movhi hi(_sine),r0,r13
 1299 0cec ADA10000 		movea lo(_sine),r13,r13
 1300 0cf0 CD04     		add r13,r6
 1301 0cf2 A6CD0000 		ld.w 0[r6],r13
 1302 0cf6 0B02     		mov r11,r16
 1303 0cf8 0D22     		mul r13,r16
 1304 0cfa 035E     		sar 3,r16
 1305 0cfc 1106     		add r17,r16
 1306 0cfe 0ADE0800 		st.w r16,8[r10]
 1307 0d02 CB21     		mul r11,r14
 1308 0d04 C35D     		sar 3,r14
 1309 0d06 AD3D     		not r13,r13
 1310 0d08 A145     		add 1,r13
 1311 0d0a 8D21     		mul r13,r12
 1312 0d0c 835D     		sar 3,r12
 1313 0d0e 6C01     		mov r12,r11
 1314 0d10 6E05     		add r14,r11
 1315 0d12 6ADD0400 		st.w r11,4[r10]
 1316 0d16 CACD0C00 		ld.w 12[r10],r14
 1317 0d1a AACD1000 		ld.w 16[r10],r13
 1318              	.L141:
 1319 0d1e 000D     		cmp r0,r8
GAS LISTING /tmp/ccjfHZuC.s 			page 25


 1320 0d20 0694     		bne .L142
 1321 0d22 8F01     		mov r15,r12
 1322 0d24 528A     		br .L143
 1323              	.L142:
 1324 0d26 0ADE0800 		st.w r16,8[r10]
 1325 0d2a 0251     		shl 2,r8
 1326 0d2c 80BD0000 		movhi hi(_cosine),r0,r12
 1327 0d30 8CA10000 		movea lo(_cosine),r12,r12
 1328 0d34 8805     		add r8,r12
 1329 0d36 CCCD0000 		ld.w 0[r12],r14
 1330 0d3a 2F02     		mov r15,r17
 1331 0d3c 2E22     		mul r14,r17
 1332 0d3e 235E     		sar 3,r17
 1333 0d40 80BD0000 		movhi hi(_sine),r0,r12
 1334 0d44 8CA10000 		movea lo(_sine),r12,r12
 1335 0d48 0C05     		add r12,r8
 1336 0d4a A8CD0000 		ld.w 0[r8],r13
 1337 0d4e 8B01     		mov r11,r12
 1338 0d50 8D21     		mul r13,r12
 1339 0d52 835D     		sar 3,r12
 1340 0d54 9105     		add r17,r12
 1341 0d56 8ADD0000 		st.w r12,0[r10]
 1342 0d5a CB21     		mul r11,r14
 1343 0d5c C35D     		sar 3,r14
 1344 0d5e AD3D     		not r13,r13
 1345 0d60 A145     		add 1,r13
 1346 0d62 ED21     		mul r13,r15
 1347 0d64 E35D     		sar 3,r15
 1348 0d66 6E01     		mov r14,r11
 1349 0d68 6F05     		add r15,r11
 1350 0d6a 6ADD0400 		st.w r11,4[r10]
 1351 0d6e CACD0C00 		ld.w 12[r10],r14
 1352 0d72 AACD1000 		ld.w 16[r10],r13
 1353              	.L143:
 1354 0d76 8ADD0000 		st.w r12,0[r10]
 1355 0d7a 6ADD0400 		st.w r11,4[r10]
 1356 0d7e 0ADE0800 		st.w r16,8[r10]
 1357 0d82 CADD0C00 		st.w r14,12[r10]
 1358 0d86 AADD1000 		st.w r13,16[r10]
 1359 0d8a 1F18     		jmp [r31]
 1360              		.size	_g3d_rotateAllAxis, .-_g3d_rotateAllAxis
 1361              		.align 2
 1362              		.global _g3d_translate
 1363              		.type	_g3d_translate, @function
 1364              	_g3d_translate:
 1365 0d8c 43CD1000 		ld.w 16[sp],r10
 1366 0d90 69CD0000 		ld.w 0[r9],r11
 1367 0d94 6605     		add r6,r11
 1368 0d96 6ADD0000 		st.w r11,0[r10]
 1369 0d9a 69CD0400 		ld.w 4[r9],r11
 1370 0d9e 6705     		add r7,r11
 1371 0da0 6ADD0400 		st.w r11,4[r10]
 1372 0da4 69CD0800 		ld.w 8[r9],r11
 1373 0da8 6805     		add r8,r11
 1374 0daa 6ADD0800 		st.w r11,8[r10]
 1375 0dae 1F18     		jmp [r31]
 1376              		.size	_g3d_translate, .-_g3d_translate
GAS LISTING /tmp/ccjfHZuC.s 			page 26


 1377              		.align 2
 1378              		.global _g3d_cameraTranslate
 1379              		.type	_g3d_cameraTranslate, @function
 1380              	_g3d_cameraTranslate:
 1381 0db0 43CD1000 		ld.w 16[sp],r10
 1382 0db4 69CD0000 		ld.w 0[r9],r11
 1383 0db8 6609     		sub r6,r11
 1384 0dba 6ADD0000 		st.w r11,0[r10]
 1385 0dbe 69CD0400 		ld.w 4[r9],r11
 1386 0dc2 6709     		sub r7,r11
 1387 0dc4 6ADD0400 		st.w r11,4[r10]
 1388 0dc8 69CD0800 		ld.w 8[r9],r11
 1389 0dcc 6809     		sub r8,r11
 1390 0dce 6ADD0800 		st.w r11,8[r10]
 1391 0dd2 1F18     		jmp [r31]
 1392              		.size	_g3d_cameraTranslate, .-_g3d_cameraTranslate
 1393              		.align 2
 1394              		.global _g3d_calculateProjection
 1395              		.type	_g3d_calculateProjection, @function
 1396              	_g3d_calculateProjection:
 1397 0dd4 60BD0000 		movhi hi(_cam),r0,r11
 1398 0dd8 6BA10000 		movea lo(_cam),r11,r11
 1399 0ddc 8BCD8C00 		ld.w 140[r11],r12
 1400 0de0 C6CD0000 		ld.w 0[r6],r14
 1401 0de4 CC21     		mul r12,r14
 1402 0de6 5841     		mov -8,r10
 1403 0de8 CA35     		and r10,r14
 1404 0dea 46CD0800 		ld.w 8[r6],r10
 1405 0dee AC01     		mov r12,r13
 1406 0df0 AA05     		add r10,r13
 1407 0df2 8E01     		mov r14,r12
 1408 0df4 8D25     		div r13,r12
 1409 0df6 8CA50005 		addi 1280,r12,r12
 1410 0dfa 835D     		sar 3,r12
 1411 0dfc 86DD0C00 		st.w r12,12[r6]
 1412 0e00 6BCD8C00 		ld.w 140[r11],r11
 1413 0e04 86CD0400 		ld.w 4[r6],r12
 1414 0e08 8B21     		mul r11,r12
 1415 0e0a B841     		mov -8,r13
 1416 0e0c 8D35     		and r13,r12
 1417 0e0e 4B05     		add r11,r10
 1418 0e10 6C01     		mov r12,r11
 1419 0e12 6A25     		div r10,r11
 1420 0e14 6BA51003 		addi 784,r11,r11
 1421 0e18 635D     		sar 3,r11
 1422 0e1a 40A1C400 		movea lo(196),r0,r10
 1423 0e1e 4B09     		sub r11,r10
 1424 0e20 46DD1000 		st.w r10,16[r6]
 1425 0e24 1F18     		jmp [r31]
 1426              		.size	_g3d_calculateProjection, .-_g3d_calculateProjection
 1427 0e26 0000     		.align 2
 1428              		.global _g3d_detectCollision
 1429              		.type	_g3d_detectCollision, @function
 1430              	_g3d_detectCollision:
 1431 0e28 5F01     		mov r31,r10
 1432 0e2a 00AC0000 		jal __save_r27_r31
 1433 0e2e 63A41000 		addi 16,sp,sp
GAS LISTING /tmp/ccjfHZuC.s 			page 27


 1434 0e32 A3CF2000 		ld.w 32[sp],r29
 1435 0e36 86CD0000 		ld.w 0[r6],r12
 1436 0e3a A7CD0000 		ld.w 0[r7],r13
 1437 0e3e A15D     		sar 1,r13
 1438 0e40 CC01     		mov r12,r14
 1439 0e42 CD09     		sub r13,r14
 1440 0e44 26CE0400 		ld.w 4[r6],r17
 1441 0e48 67CE0400 		ld.w 4[r7],r19
 1442 0e4c C6CC0800 		ld.w 8[r6],r6
 1443 0e50 E7CF0800 		ld.w 8[r7],r31
 1444 0e54 68CD0000 		ld.w 0[r8],r11
 1445 0e58 49CD0000 		ld.w 0[r9],r10
 1446 0e5c 415D     		sar 1,r10
 1447 0e5e EA01     		mov r10,r15
 1448 0e60 EB05     		add r11,r15
 1449 0e62 08CE0400 		ld.w 4[r8],r16
 1450 0e66 49CE0400 		ld.w 4[r9],r18
 1451 0e6a E8CC0800 		ld.w 8[r8],r7
 1452 0e6e 09CD0800 		ld.w 8[r9],r8
 1453 0e72 CF0D     		cmp r15,r14
 1454 0e74 729E     		bgt .L159
 1455 0e76 615E     		sar 1,r19
 1456 0e78 3101     		mov r17,r9
 1457 0e7a 3309     		sub r19,r9
 1458 0e7c 415E     		sar 1,r18
 1459 0e7e B200     		mov r18,r5
 1460 0e80 B004     		add r16,r5
 1461 0e82 250D     		cmp r5,r9
 1462 0e84 629E     		bgt .L159
 1463 0e86 E15F     		sar 1,r31
 1464 0e88 6603     		mov r6,r27
 1465 0e8a 7F0B     		sub r31,r27
 1466 0e8c 015D     		sar 1,r8
 1467 0e8e 8803     		mov r8,r28
 1468 0e90 8707     		add r7,r28
 1469 0e92 7C0F     		cmp r28,r27
 1470 0e94 529E     		bgt .L159
 1471 0e96 8D05     		add r13,r12
 1472 0e98 6A09     		sub r10,r11
 1473 0e9a 8B0D     		cmp r11,r12
 1474 0e9c 4A8C     		blt .L159
 1475 0e9e 7106     		add r17,r19
 1476 0ea0 120A     		sub r18,r16
 1477 0ea2 700E     		cmp r16,r19
 1478 0ea4 428C     		blt .L159
 1479 0ea6 E607     		add r6,r31
 1480 0ea8 FC0F     		cmp r28,r31
 1481 0eaa 3C8C     		blt .L159
 1482 0eac CB0D     		cmp r11,r14
 1483 0eae 069C     		bge .L153
 1484 0eb0 8F0D     		cmp r15,r12
 1485 0eb2 269E     		bgt .L154
 1486              	.L153:
 1487 0eb4 300D     		cmp r16,r9
 1488 0eb6 069C     		bge .L155
 1489 0eb8 650E     		cmp r5,r19
 1490 0eba 169E     		bgt .L156
GAS LISTING /tmp/ccjfHZuC.s 			page 28


 1491              	.L155:
 1492 0ebc E808     		sub r8,r7
 1493 0ebe 670F     		cmp r7,r27
 1494 0ec0 0A9C     		bge .L157
 1495 0ec2 E70F     		cmp r7,r31
 1496 0ec4 0C8C     		blt .L156
 1497 0ec6 FC0F     		cmp r28,r31
 1498 0ec8 089E     		bgt .L156
 1499              	.L157:
 1500 0eca 4141     		mov 1,r10
 1501 0ecc 5DDD0000 		st.w r10,0[r29]
 1502              	.L156:
 1503 0ed0 CB0D     		cmp r11,r14
 1504 0ed2 068E     		ble .L154
 1505 0ed4 8F0D     		cmp r15,r12
 1506 0ed6 108C     		blt .L159
 1507              	.L154:
 1508 0ed8 300D     		cmp r16,r9
 1509 0eda 068E     		ble .L158
 1510 0edc 650E     		cmp r5,r19
 1511 0ede 088C     		blt .L159
 1512              	.L158:
 1513 0ee0 4141     		mov 1,r10
 1514 0ee2 5DDD0000 		st.w r10,0[r29]
 1515              	.L159:
 1516 0ee6 7044     		add -16,sp
 1517 0ee8 00A80000 		jr __return_r27_r31
 1518              		.size	_g3d_detectCollision, .-_g3d_detectCollision
 1519              		.align 2
 1520              		.global _g3d_clipZAxis
 1521              		.type	_g3d_clipZAxis, @function
 1522              	_g3d_clipZAxis:
 1523 0eec 66CD0800 		ld.w 8[r6],r11
 1524 0ef0 80BD0000 		movhi hi(_cam),r0,r12
 1525 0ef4 8CA10000 		movea lo(_cam),r12,r12
 1526 0ef8 ECCD8C00 		ld.w 140[r12],r15
 1527 0efc 6F0D     		cmp r15,r11
 1528 0efe 0A8E     		ble .L161
 1529 0f00 87CD0800 		ld.w 8[r7],r12
 1530 0f04 EC0D     		cmp r12,r15
 1531 0f06 7E8C     		blt .L168
 1532              	.L161:
 1533 0f08 6F0D     		cmp r15,r11
 1534 0f0a 088C     		blt .L163
 1535 0f0c 8601     		mov r6,r12
 1536 0f0e C700     		mov r7,r6
 1537 0f10 0C8A     		br .L164
 1538              	.L163:
 1539 0f12 67CD0800 		ld.w 8[r7],r11
 1540 0f16 EB0D     		cmp r11,r15
 1541 0f18 6C9E     		bgt .L168
 1542 0f1a 8701     		mov r7,r12
 1543              	.L164:
 1544 0f1c 66CD0800 		ld.w 8[r6],r11
 1545 0f20 ACCD0800 		ld.w 8[r12],r13
 1546 0f24 AB09     		sub r11,r13
 1547 0f26 A45D     		sar 4,r13
GAS LISTING /tmp/ccjfHZuC.s 			page 29


 1548 0f28 6CCE0000 		ld.w 0[r12],r19
 1549 0f2c 46CE0000 		ld.w 0[r6],r18
 1550 0f30 2CCE0400 		ld.w 4[r12],r17
 1551 0f34 06CE0400 		ld.w 4[r6],r16
 1552 0f38 248E     		ble .L165
 1553 0f3a 8F01     		mov r15,r12
 1554 0f3c 8B09     		sub r11,r12
 1555 0f3e 6C01     		mov r12,r11
 1556 0f40 800D     		cmp r0,r12
 1557 0f42 148E     		ble .L166
 1558 0f44 CD3D     		not r13,r14
 1559 0f46 C145     		add 1,r14
 1560 0f48 6D09     		sub r13,r11
 1561              	.L167:
 1562 0f4a 4145     		add 1,r10
 1563 0f4c 6E05     		add r14,r11
 1564 0f4e 8B01     		mov r11,r12
 1565 0f50 8D05     		add r13,r12
 1566 0f52 800D     		cmp r0,r12
 1567 0f54 F69F     		bgt .L167
 1568              	.L166:
 1569 0f56 400D     		cmp r0,r10
 1570 0f58 048E     		ble .L165
 1571 0f5a 5F45     		add -1,r10
 1572              	.L165:
 1573 0f5c E6DD0800 		st.w r15,8[r6]
 1574 0f60 7301     		mov r19,r11
 1575 0f62 7209     		sub r18,r11
 1576 0f64 645D     		sar 4,r11
 1577 0f66 6A21     		mul r10,r11
 1578 0f68 86CD0000 		ld.w 0[r6],r12
 1579 0f6c 6C05     		add r12,r11
 1580 0f6e 66DD0000 		st.w r11,0[r6]
 1581 0f72 7101     		mov r17,r11
 1582 0f74 7009     		sub r16,r11
 1583 0f76 645D     		sar 4,r11
 1584 0f78 4B21     		mul r11,r10
 1585 0f7a 66CD0400 		ld.w 4[r6],r11
 1586 0f7e 4B05     		add r11,r10
 1587 0f80 46DD0400 		st.w r10,4[r6]
 1588              	.L168:
 1589 0f84 1F18     		jmp [r31]
 1590              		.size	_g3d_clipZAxis, .-_g3d_clipZAxis
 1591 0f86 0000     		.align 2
 1592              		.global _g3d_drawPoint
 1593              		.type	_g3d_drawPoint, @function
 1594              	_g3d_drawPoint:
 1595 0f88 08B5FF00 		andi 255,r8,r8
 1596 0f8c 40A1C400 		movea lo(196),r0,r10
 1597 0f90 EA0C     		cmp r10,r7
 1598 0f92 6896     		bh .L173
 1599 0f94 40A14001 		movea lo(320),r0,r10
 1600 0f98 CA0C     		cmp r10,r6
 1601 0f9a 6096     		bh .L173
 1602 0f9c 40A11400 		movea lo(20),r0,r10
 1603 0fa0 2A0D     		cmp r10,r9
 1604 0fa2 048E     		ble .L172
GAS LISTING /tmp/ccjfHZuC.s 			page 30


 1605 0fa4 2A01     		mov r10,r9
 1606              	.L172:
 1607 0fa6 C908     		sub r9,r6
 1608 0fa8 C450     		shl 4,r6
 1609 0faa 4701     		mov r7,r10
 1610 0fac 445D     		sar 4,r10
 1611 0fae CA04     		add r10,r6
 1612 0fb0 6601     		mov r6,r11
 1613 0fb2 40A10018 		movea lo(6144),r0,r10
 1614 0fb6 CA0C     		cmp r10,r6
 1615 0fb8 4296     		bh .L173
 1616 0fba 2551     		shl 5,r9
 1617 0fbc C904     		add r9,r6
 1618 0fbe CA0C     		cmp r10,r6
 1619 0fc0 3A96     		bh .L173
 1620 0fc2 40BD0000 		movhi hi(_currentFrameBuffer),r0,r10
 1621 0fc6 4AA10000 		movea lo(_currentFrameBuffer),r10,r10
 1622 0fca 6251     		shl 2,r11
 1623 0fcc 8ACD0000 		ld.w 0[r10],r12
 1624 0fd0 6C05     		add r12,r11
 1625 0fd2 08B50300 		andi 3,r8,r8
 1626 0fd6 E150     		shl 1,r7
 1627 0fd8 0711     		shl r7,r8
 1628 0fda 8BCD0000 		ld.w 0[r11],r12
 1629 0fde 8831     		or r8,r12
 1630 0fe0 8BDD0000 		st.w r12,0[r11]
 1631 0fe4 C6A40040 		addi 16384,r6,r6
 1632 0fe8 C250     		shl 2,r6
 1633 0fea 4ACD0000 		ld.w 0[r10],r10
 1634 0fee CA04     		add r10,r6
 1635 0ff0 46CD0000 		ld.w 0[r6],r10
 1636 0ff4 0A31     		or r10,r8
 1637 0ff6 06DD0000 		st.w r8,0[r6]
 1638              	.L173:
 1639 0ffa 1F18     		jmp [r31]
 1640              		.size	_g3d_drawPoint, .-_g3d_drawPoint
 1641              		.align 2
 1642              		.global _g3d_initObject
 1643              		.type	_g3d_initObject, @function
 1644              	_g3d_initObject:
 1645 0ffc 06DC0000 		st.w r0,0[r6]
 1646 1000 06DC0400 		st.w r0,4[r6]
 1647 1004 06DC0800 		st.w r0,8[r6]
 1648 1008 06DC1400 		st.w r0,20[r6]
 1649 100c 06DC1800 		st.w r0,24[r6]
 1650 1010 06DC1C00 		st.w r0,28[r6]
 1651 1014 06DC2800 		st.w r0,40[r6]
 1652 1018 06DC2C00 		st.w r0,44[r6]
 1653 101c 06DC3000 		st.w r0,48[r6]
 1654 1020 06DC3C00 		st.w r0,60[r6]
 1655 1024 06DC4000 		st.w r0,64[r6]
 1656 1028 06DC4400 		st.w r0,68[r6]
 1657 102c 06DC5000 		st.w r0,80[r6]
 1658 1030 06DC5400 		st.w r0,84[r6]
 1659 1034 06DC5800 		st.w r0,88[r6]
 1660 1038 06DC6400 		st.w r0,100[r6]
 1661 103c 06DC6800 		st.w r0,104[r6]
GAS LISTING /tmp/ccjfHZuC.s 			page 31


 1662 1040 06DC6C00 		st.w r0,108[r6]
 1663 1044 4841     		mov 8,r10
 1664 1046 46DD7800 		st.w r10,120[r6]
 1665 104a 46DD7C00 		st.w r10,124[r6]
 1666 104e 46DD8000 		st.w r10,128[r6]
 1667 1052 06DC8C00 		st.w r0,140[r6]
 1668 1056 06DC9000 		st.w r0,144[r6]
 1669 105a 06DC9400 		st.w r0,148[r6]
 1670 105e 06DCC800 		st.w r0,200[r6]
 1671 1062 E6DCC400 		st.w r7,196[r6]
 1672 1066 4141     		mov 1,r10
 1673 1068 46DDA000 		st.w r10,160[r6]
 1674 106c 06DCAC00 		st.w r0,172[r6]
 1675 1070 6341     		mov 3,r11
 1676 1072 66DDB000 		st.w r11,176[r6]
 1677 1076 06DCB400 		st.w r0,180[r6]
 1678 107a 46DDA800 		st.w r10,168[r6]
 1679 107e 1F18     		jmp [r31]
 1680              		.size	_g3d_initObject, .-_g3d_initObject
 1681              		.align 2
 1682              		.global _g3d_moveObject
 1683              		.type	_g3d_moveObject, @function
 1684              	_g3d_moveObject:
 1685 1080 46CD3C00 		ld.w 60[r6],r10
 1686 1084 400D     		cmp r0,r10
 1687 1086 0C84     		be .L177
 1688 1088 66CD2800 		ld.w 40[r6],r11
 1689 108c 4B05     		add r11,r10
 1690 108e 46DD2800 		st.w r10,40[r6]
 1691              	.L177:
 1692 1092 46CD4000 		ld.w 64[r6],r10
 1693 1096 400D     		cmp r0,r10
 1694 1098 0C84     		be .L178
 1695 109a 66CD2C00 		ld.w 44[r6],r11
 1696 109e 4B05     		add r11,r10
 1697 10a0 46DD2C00 		st.w r10,44[r6]
 1698              	.L178:
 1699 10a4 46CD4400 		ld.w 68[r6],r10
 1700 10a8 400D     		cmp r0,r10
 1701 10aa 0C84     		be .L179
 1702 10ac 66CD3000 		ld.w 48[r6],r11
 1703 10b0 4B05     		add r11,r10
 1704 10b2 46DD3000 		st.w r10,48[r6]
 1705              	.L179:
 1706 10b6 46CD6400 		ld.w 100[r6],r10
 1707 10ba 400D     		cmp r0,r10
 1708 10bc 0C84     		be .L180
 1709 10be 66CD5000 		ld.w 80[r6],r11
 1710 10c2 4B05     		add r11,r10
 1711 10c4 46DD5000 		st.w r10,80[r6]
 1712              	.L180:
 1713 10c8 46CD6800 		ld.w 104[r6],r10
 1714 10cc 400D     		cmp r0,r10
 1715 10ce 0C84     		be .L181
 1716 10d0 66CD5400 		ld.w 84[r6],r11
 1717 10d4 4B05     		add r11,r10
 1718 10d6 46DD5400 		st.w r10,84[r6]
GAS LISTING /tmp/ccjfHZuC.s 			page 32


 1719              	.L181:
 1720 10da 46CD6C00 		ld.w 108[r6],r10
 1721 10de 400D     		cmp r0,r10
 1722 10e0 0C84     		be .L182
 1723 10e2 66CD5800 		ld.w 88[r6],r11
 1724 10e6 4B05     		add r11,r10
 1725 10e8 46DD5800 		st.w r10,88[r6]
 1726              	.L182:
 1727 10ec 46CD8C00 		ld.w 140[r6],r10
 1728 10f0 400D     		cmp r0,r10
 1729 10f2 0C84     		be .L183
 1730 10f4 66CD7800 		ld.w 120[r6],r11
 1731 10f8 4B05     		add r11,r10
 1732 10fa 46DD7800 		st.w r10,120[r6]
 1733              	.L183:
 1734 10fe 46CD9000 		ld.w 144[r6],r10
 1735 1102 400D     		cmp r0,r10
 1736 1104 0C84     		be .L184
 1737 1106 66CD7C00 		ld.w 124[r6],r11
 1738 110a 4B05     		add r11,r10
 1739 110c 46DD7C00 		st.w r10,124[r6]
 1740              	.L184:
 1741 1110 46CD9400 		ld.w 148[r6],r10
 1742 1114 400D     		cmp r0,r10
 1743 1116 0C84     		be .L185
 1744 1118 66CD8000 		ld.w 128[r6],r11
 1745 111c 4B05     		add r11,r10
 1746 111e 46DD8000 		st.w r10,128[r6]
 1747              	.L185:
 1748 1122 46CD2800 		ld.w 40[r6],r10
 1749 1126 60A16701 		movea lo(359),r0,r11
 1750 112a 4B0D     		cmp r11,r10
 1751 112c 0E8E     		ble .L186
 1752              	.L210:
 1753 112e 4AA598FE 		addi -360,r10,r10
 1754 1132 4B0D     		cmp r11,r10
 1755 1134 FA9F     		bgt .L210
 1756 1136 46DD2800 		st.w r10,40[r6]
 1757              	.L186:
 1758 113a 46CD2C00 		ld.w 44[r6],r10
 1759 113e 60A16701 		movea lo(359),r0,r11
 1760 1142 4B0D     		cmp r11,r10
 1761 1144 0E8E     		ble .L188
 1762              	.L209:
 1763 1146 4AA598FE 		addi -360,r10,r10
 1764 114a 4B0D     		cmp r11,r10
 1765 114c FA9F     		bgt .L209
 1766 114e 46DD2C00 		st.w r10,44[r6]
 1767              	.L188:
 1768 1152 46CD3000 		ld.w 48[r6],r10
 1769 1156 60A16701 		movea lo(359),r0,r11
 1770 115a 4B0D     		cmp r11,r10
 1771 115c 0E8E     		ble .L190
 1772              	.L208:
 1773 115e 4AA598FE 		addi -360,r10,r10
 1774 1162 4B0D     		cmp r11,r10
 1775 1164 FA9F     		bgt .L208
GAS LISTING /tmp/ccjfHZuC.s 			page 33


 1776 1166 46DD3000 		st.w r10,48[r6]
 1777              	.L190:
 1778 116a 46CD2800 		ld.w 40[r6],r10
 1779 116e 60A199FE 		movea lo(-359),r0,r11
 1780 1172 4B0D     		cmp r11,r10
 1781 1174 0E9C     		bge .L192
 1782              	.L207:
 1783 1176 4AA56801 		addi 360,r10,r10
 1784 117a 4B0D     		cmp r11,r10
 1785 117c FA8D     		blt .L207
 1786 117e 46DD2800 		st.w r10,40[r6]
 1787              	.L192:
 1788 1182 46CD2C00 		ld.w 44[r6],r10
 1789 1186 60A199FE 		movea lo(-359),r0,r11
 1790 118a 4B0D     		cmp r11,r10
 1791 118c 0E9C     		bge .L194
 1792              	.L206:
 1793 118e 4AA56801 		addi 360,r10,r10
 1794 1192 4B0D     		cmp r11,r10
 1795 1194 FA8D     		blt .L206
 1796 1196 46DD2C00 		st.w r10,44[r6]
 1797              	.L194:
 1798 119a 46CD3000 		ld.w 48[r6],r10
 1799 119e 60A199FE 		movea lo(-359),r0,r11
 1800 11a2 4B0D     		cmp r11,r10
 1801 11a4 0E9C     		bge .L196
 1802              	.L205:
 1803 11a6 4AA56801 		addi 360,r10,r10
 1804 11aa 4B0D     		cmp r11,r10
 1805 11ac FA8D     		blt .L205
 1806 11ae 46DD3000 		st.w r10,48[r6]
 1807              	.L196:
 1808 11b2 66CD1400 		ld.w 20[r6],r11
 1809 11b6 46CD0000 		ld.w 0[r6],r10
 1810 11ba 6A0D     		cmp r10,r11
 1811 11bc 3284     		be .L198
 1812 11be 1A8E     		ble .L199
 1813 11c0 66CD5000 		ld.w 80[r6],r11
 1814 11c4 4B05     		add r11,r10
 1815 11c6 46DD0000 		st.w r10,0[r6]
 1816 11ca 66CD1400 		ld.w 20[r6],r11
 1817 11ce 4B0D     		cmp r11,r10
 1818 11d0 1E8E     		ble .L198
 1819 11d2 66DD0000 		st.w r11,0[r6]
 1820 11d6 188A     		br .L198
 1821              	.L199:
 1822 11d8 66CD5000 		ld.w 80[r6],r11
 1823 11dc 4B09     		sub r11,r10
 1824 11de 46DD0000 		st.w r10,0[r6]
 1825 11e2 66CD1400 		ld.w 20[r6],r11
 1826 11e6 4B0D     		cmp r11,r10
 1827 11e8 069C     		bge .L198
 1828 11ea 66DD0000 		st.w r11,0[r6]
 1829              	.L198:
 1830 11ee 66CD1800 		ld.w 24[r6],r11
 1831 11f2 46CD0400 		ld.w 4[r6],r10
 1832 11f6 6A0D     		cmp r10,r11
GAS LISTING /tmp/ccjfHZuC.s 			page 34


 1833 11f8 3284     		be .L200
 1834 11fa 1A8E     		ble .L201
 1835 11fc 66CD5400 		ld.w 84[r6],r11
 1836 1200 4B05     		add r11,r10
 1837 1202 46DD0400 		st.w r10,4[r6]
 1838 1206 66CD1800 		ld.w 24[r6],r11
 1839 120a 4B0D     		cmp r11,r10
 1840 120c 1E8E     		ble .L200
 1841 120e 66DD0400 		st.w r11,4[r6]
 1842 1212 188A     		br .L200
 1843              	.L201:
 1844 1214 66CD5400 		ld.w 84[r6],r11
 1845 1218 4B09     		sub r11,r10
 1846 121a 46DD0400 		st.w r10,4[r6]
 1847 121e 66CD1800 		ld.w 24[r6],r11
 1848 1222 4B0D     		cmp r11,r10
 1849 1224 069C     		bge .L200
 1850 1226 66DD0400 		st.w r11,4[r6]
 1851              	.L200:
 1852 122a 66CD1C00 		ld.w 28[r6],r11
 1853 122e 46CD0800 		ld.w 8[r6],r10
 1854 1232 6A0D     		cmp r10,r11
 1855 1234 3284     		be .L204
 1856 1236 1A8E     		ble .L203
 1857 1238 66CD5800 		ld.w 88[r6],r11
 1858 123c 4B05     		add r11,r10
 1859 123e 46DD0800 		st.w r10,8[r6]
 1860 1242 66CD1C00 		ld.w 28[r6],r11
 1861 1246 4B0D     		cmp r11,r10
 1862 1248 1E8E     		ble .L204
 1863 124a 66DD0800 		st.w r11,8[r6]
 1864 124e 1F18     		jmp [r31]
 1865              	.L203:
 1866 1250 66CD5800 		ld.w 88[r6],r11
 1867 1254 4B09     		sub r11,r10
 1868 1256 46DD0800 		st.w r10,8[r6]
 1869 125a 66CD1C00 		ld.w 28[r6],r11
 1870 125e 4B0D     		cmp r11,r10
 1871 1260 069C     		bge .L204
 1872 1262 66DD0800 		st.w r11,8[r6]
 1873              	.L204:
 1874 1266 1F18     		jmp [r31]
 1875              		.size	_g3d_moveObject, .-_g3d_moveObject
 1876              		.align 2
 1877              		.global _g3d_moveCamera
 1878              		.type	_g3d_moveCamera, @function
 1879              	_g3d_moveCamera:
 1880 1268 46CD7800 		ld.w 120[r6],r10
 1881 126c 400D     		cmp r0,r10
 1882 126e 0C84     		be .L218
 1883 1270 66CD6400 		ld.w 100[r6],r11
 1884 1274 4B05     		add r11,r10
 1885 1276 46DD6400 		st.w r10,100[r6]
 1886              	.L218:
 1887 127a 46CD7C00 		ld.w 124[r6],r10
 1888 127e 400D     		cmp r0,r10
 1889 1280 0C84     		be .L219
GAS LISTING /tmp/ccjfHZuC.s 			page 35


 1890 1282 66CD6800 		ld.w 104[r6],r11
 1891 1286 4B05     		add r11,r10
 1892 1288 46DD6800 		st.w r10,104[r6]
 1893              	.L219:
 1894 128c 46CD8000 		ld.w 128[r6],r10
 1895 1290 400D     		cmp r0,r10
 1896 1292 0C84     		be .L220
 1897 1294 66CD6C00 		ld.w 108[r6],r11
 1898 1298 4B05     		add r11,r10
 1899 129a 46DD6C00 		st.w r10,108[r6]
 1900              	.L220:
 1901 129e 46CD2800 		ld.w 40[r6],r10
 1902 12a2 400D     		cmp r0,r10
 1903 12a4 0C84     		be .L221
 1904 12a6 66CD1400 		ld.w 20[r6],r11
 1905 12aa 4B05     		add r11,r10
 1906 12ac 46DD1400 		st.w r10,20[r6]
 1907              	.L221:
 1908 12b0 46CD2C00 		ld.w 44[r6],r10
 1909 12b4 400D     		cmp r0,r10
 1910 12b6 0C84     		be .L222
 1911 12b8 66CD1800 		ld.w 24[r6],r11
 1912 12bc 4B05     		add r11,r10
 1913 12be 46DD1800 		st.w r10,24[r6]
 1914              	.L222:
 1915 12c2 46CD3000 		ld.w 48[r6],r10
 1916 12c6 400D     		cmp r0,r10
 1917 12c8 0C84     		be .L223
 1918 12ca 66CD1C00 		ld.w 28[r6],r11
 1919 12ce 4B05     		add r11,r10
 1920 12d0 46DD1C00 		st.w r10,28[r6]
 1921              	.L223:
 1922 12d4 46CD6400 		ld.w 100[r6],r10
 1923 12d8 60A16701 		movea lo(359),r0,r11
 1924 12dc 4B0D     		cmp r11,r10
 1925 12de 0E8E     		ble .L224
 1926              	.L248:
 1927 12e0 4AA598FE 		addi -360,r10,r10
 1928 12e4 4B0D     		cmp r11,r10
 1929 12e6 FA9F     		bgt .L248
 1930 12e8 46DD6400 		st.w r10,100[r6]
 1931              	.L224:
 1932 12ec 46CD6800 		ld.w 104[r6],r10
 1933 12f0 60A16701 		movea lo(359),r0,r11
 1934 12f4 4B0D     		cmp r11,r10
 1935 12f6 0E8E     		ble .L226
 1936              	.L247:
 1937 12f8 4AA598FE 		addi -360,r10,r10
 1938 12fc 4B0D     		cmp r11,r10
 1939 12fe FA9F     		bgt .L247
 1940 1300 46DD6800 		st.w r10,104[r6]
 1941              	.L226:
 1942 1304 46CD6C00 		ld.w 108[r6],r10
 1943 1308 60A16701 		movea lo(359),r0,r11
 1944 130c 4B0D     		cmp r11,r10
 1945 130e 0E8E     		ble .L228
 1946              	.L246:
GAS LISTING /tmp/ccjfHZuC.s 			page 36


 1947 1310 4AA598FE 		addi -360,r10,r10
 1948 1314 4B0D     		cmp r11,r10
 1949 1316 FA9F     		bgt .L246
 1950 1318 46DD6C00 		st.w r10,108[r6]
 1951              	.L228:
 1952 131c 46CD6400 		ld.w 100[r6],r10
 1953 1320 60A199FE 		movea lo(-359),r0,r11
 1954 1324 4B0D     		cmp r11,r10
 1955 1326 0E9C     		bge .L230
 1956              	.L245:
 1957 1328 4AA56801 		addi 360,r10,r10
 1958 132c 4B0D     		cmp r11,r10
 1959 132e FA8D     		blt .L245
 1960 1330 46DD6400 		st.w r10,100[r6]
 1961              	.L230:
 1962 1334 46CD6800 		ld.w 104[r6],r10
 1963 1338 60A199FE 		movea lo(-359),r0,r11
 1964 133c 4B0D     		cmp r11,r10
 1965 133e 0E9C     		bge .L232
 1966              	.L244:
 1967 1340 4AA56801 		addi 360,r10,r10
 1968 1344 4B0D     		cmp r11,r10
 1969 1346 FA8D     		blt .L244
 1970 1348 46DD6800 		st.w r10,104[r6]
 1971              	.L232:
 1972 134c 46CD6C00 		ld.w 108[r6],r10
 1973 1350 60A199FE 		movea lo(-359),r0,r11
 1974 1354 4B0D     		cmp r11,r10
 1975 1356 0E9C     		bge .L234
 1976              	.L243:
 1977 1358 4AA56801 		addi 360,r10,r10
 1978 135c 4B0D     		cmp r11,r10
 1979 135e FA8D     		blt .L243
 1980 1360 46DD6C00 		st.w r10,108[r6]
 1981              	.L234:
 1982 1364 66CD3C00 		ld.w 60[r6],r11
 1983 1368 46CD0000 		ld.w 0[r6],r10
 1984 136c 6A0D     		cmp r10,r11
 1985 136e 3284     		be .L236
 1986 1370 1A8E     		ble .L237
 1987 1372 66CD1400 		ld.w 20[r6],r11
 1988 1376 4B05     		add r11,r10
 1989 1378 46DD0000 		st.w r10,0[r6]
 1990 137c 66CD3C00 		ld.w 60[r6],r11
 1991 1380 4B0D     		cmp r11,r10
 1992 1382 1E8E     		ble .L236
 1993 1384 66DD0000 		st.w r11,0[r6]
 1994 1388 188A     		br .L236
 1995              	.L237:
 1996 138a 66CD1400 		ld.w 20[r6],r11
 1997 138e 4B09     		sub r11,r10
 1998 1390 46DD0000 		st.w r10,0[r6]
 1999 1394 66CD3C00 		ld.w 60[r6],r11
 2000 1398 4B0D     		cmp r11,r10
 2001 139a 069C     		bge .L236
 2002 139c 66DD0000 		st.w r11,0[r6]
 2003              	.L236:
GAS LISTING /tmp/ccjfHZuC.s 			page 37


 2004 13a0 66CD4000 		ld.w 64[r6],r11
 2005 13a4 46CD0400 		ld.w 4[r6],r10
 2006 13a8 6A0D     		cmp r10,r11
 2007 13aa 3284     		be .L238
 2008 13ac 1A8E     		ble .L239
 2009 13ae 66CD1800 		ld.w 24[r6],r11
 2010 13b2 4B05     		add r11,r10
 2011 13b4 46DD0400 		st.w r10,4[r6]
 2012 13b8 66CD4000 		ld.w 64[r6],r11
 2013 13bc 4B0D     		cmp r11,r10
 2014 13be 1E8E     		ble .L238
 2015 13c0 66DD0400 		st.w r11,4[r6]
 2016 13c4 188A     		br .L238
 2017              	.L239:
 2018 13c6 66CD1800 		ld.w 24[r6],r11
 2019 13ca 4B09     		sub r11,r10
 2020 13cc 46DD0400 		st.w r10,4[r6]
 2021 13d0 66CD4000 		ld.w 64[r6],r11
 2022 13d4 4B0D     		cmp r11,r10
 2023 13d6 069C     		bge .L238
 2024 13d8 66DD0400 		st.w r11,4[r6]
 2025              	.L238:
 2026 13dc 66CD4400 		ld.w 68[r6],r11
 2027 13e0 46CD0800 		ld.w 8[r6],r10
 2028 13e4 6A0D     		cmp r10,r11
 2029 13e6 3284     		be .L242
 2030 13e8 1A8E     		ble .L241
 2031 13ea 66CD1C00 		ld.w 28[r6],r11
 2032 13ee 4B05     		add r11,r10
 2033 13f0 46DD0800 		st.w r10,8[r6]
 2034 13f4 66CD4400 		ld.w 68[r6],r11
 2035 13f8 4B0D     		cmp r11,r10
 2036 13fa 1E8E     		ble .L242
 2037 13fc 66DD0800 		st.w r11,8[r6]
 2038 1400 1F18     		jmp [r31]
 2039              	.L241:
 2040 1402 66CD1C00 		ld.w 28[r6],r11
 2041 1406 4B09     		sub r11,r10
 2042 1408 46DD0800 		st.w r10,8[r6]
 2043 140c 66CD4400 		ld.w 68[r6],r11
 2044 1410 4B0D     		cmp r11,r10
 2045 1412 069C     		bge .L242
 2046 1414 66DD0800 		st.w r11,8[r6]
 2047              	.L242:
 2048 1418 1F18     		jmp [r31]
 2049              		.size	_g3d_moveCamera, .-_g3d_moveCamera
 2050 141a 0000     		.align 2
 2051              		.global _calculateSpeed
 2052              		.type	_calculateSpeed, @function
 2053              	_calculateSpeed:
 2054 141c 66CD0800 		ld.w 8[r6],r11
 2055 1420 46CD5800 		ld.w 88[r6],r10
 2056 1424 6A25     		div r10,r11
 2057 1426 46CD1400 		ld.w 20[r6],r10
 2058 142a 86CD0000 		ld.w 0[r6],r12
 2059 142e 4C09     		sub r12,r10
 2060 1430 4B25     		div r11,r10
GAS LISTING /tmp/ccjfHZuC.s 			page 38


 2061 1432 46DD5000 		st.w r10,80[r6]
 2062 1436 86CD1800 		ld.w 24[r6],r12
 2063 143a A6CD0400 		ld.w 4[r6],r13
 2064 143e 8D09     		sub r13,r12
 2065 1440 8B25     		div r11,r12
 2066 1442 86DD5400 		st.w r12,84[r6]
 2067 1446 400D     		cmp r0,r10
 2068 1448 0A9C     		bge .L256
 2069 144a 4A3D     		not r10,r10
 2070 144c 4145     		add 1,r10
 2071 144e 46DD5000 		st.w r10,80[r6]
 2072              	.L256:
 2073 1452 46CD5400 		ld.w 84[r6],r10
 2074 1456 400D     		cmp r0,r10
 2075 1458 0A9C     		bge .L258
 2076 145a 4A3D     		not r10,r10
 2077 145c 4145     		add 1,r10
 2078 145e 46DD5400 		st.w r10,84[r6]
 2079              	.L258:
 2080 1462 1F18     		jmp [r31]
 2081              		.size	_calculateSpeed, .-_calculateSpeed
 2082              		.align 2
 2083              		.global _handleInput
 2084              		.type	_handleInput, @function
 2085              	_handleInput:
 2086 1464 5F01     		mov r31,r10
 2087 1466 00AC0000 		jal __save_r31
 2088 146a FFAF96EB 		jal _vbReadPad
 2089 146e 4AB5FFFF 		andi 65535,r10,r10
 2090 1472 6AB50002 		andi 512,r10,r11
 2091 1476 3484     		be .L260
 2092 1478 60BD0000 		movhi hi(_accelerator),r0,r11
 2093 147c 6BC10000 		ld.b lo(_accelerator)[r11],r11
 2094 1480 600D     		cmp r0,r11
 2095 1482 2894     		bne .L260
 2096 1484 60BD0000 		movhi hi(_cam),r0,r11
 2097 1488 6BA10000 		movea lo(_cam),r11,r11
 2098 148c 6BCD1400 		ld.w 20[r11],r11
 2099 1490 600D     		cmp r0,r11
 2100 1492 069E     		bgt .L261
 2101 1494 8841     		mov 8,r12
 2102 1496 068A     		br .L262
 2103              	.L261:
 2104 1498 80A11800 		movea lo(24),r0,r12
 2105              	.L262:
 2106 149c 6C09     		sub r12,r11
 2107 149e 80BD0000 		movhi hi(_cam),r0,r12
 2108 14a2 8CA10000 		movea lo(_cam),r12,r12
 2109 14a6 6CDD1400 		st.w r11,20[r12]
 2110              	.L260:
 2111 14aa 6AB50001 		andi 256,r10,r11
 2112 14ae 3484     		be .L263
 2113 14b0 60BD0000 		movhi hi(_accelerator),r0,r11
 2114 14b4 6BC10000 		ld.b lo(_accelerator)[r11],r11
 2115 14b8 600D     		cmp r0,r11
 2116 14ba 2894     		bne .L263
 2117 14bc 60BD0000 		movhi hi(_cam),r0,r11
GAS LISTING /tmp/ccjfHZuC.s 			page 39


 2118 14c0 6BA10000 		movea lo(_cam),r11,r11
 2119 14c4 6BCD1400 		ld.w 20[r11],r11
 2120 14c8 600D     		cmp r0,r11
 2121 14ca 068C     		blt .L264
 2122 14cc 8841     		mov 8,r12
 2123 14ce 068A     		br .L265
 2124              	.L264:
 2125 14d0 80A11800 		movea lo(24),r0,r12
 2126              	.L265:
 2127 14d4 6C05     		add r12,r11
 2128 14d6 80BD0000 		movhi hi(_cam),r0,r12
 2129 14da 8CA10000 		movea lo(_cam),r12,r12
 2130 14de 6CDD1400 		st.w r11,20[r12]
 2131              	.L263:
 2132 14e2 6AB50003 		andi 768,r10,r11
 2133 14e6 4A94     		bne .L266
 2134 14e8 60BD0000 		movhi hi(_accelerator),r0,r11
 2135 14ec 6BC10000 		ld.b lo(_accelerator)[r11],r11
 2136 14f0 600D     		cmp r0,r11
 2137 14f2 3E94     		bne .L266
 2138 14f4 60BD0000 		movhi hi(_cam),r0,r11
 2139 14f8 6BA10000 		movea lo(_cam),r11,r11
 2140 14fc 6BCD1400 		ld.w 20[r11],r11
 2141 1500 600D     		cmp r0,r11
 2142 1502 109C     		bge .L267
 2143 1504 6845     		add 8,r11
 2144 1506 80BD0000 		movhi hi(_cam),r0,r12
 2145 150a 8CA10000 		movea lo(_cam),r12,r12
 2146 150e 6CDD1400 		st.w r11,20[r12]
 2147              	.L267:
 2148 1512 60BD0000 		movhi hi(_cam),r0,r11
 2149 1516 6BA10000 		movea lo(_cam),r11,r11
 2150 151a 6BCD1400 		ld.w 20[r11],r11
 2151 151e 600D     		cmp r0,r11
 2152 1520 108E     		ble .L266
 2153 1522 7845     		add -8,r11
 2154 1524 80BD0000 		movhi hi(_cam),r0,r12
 2155 1528 8CA10000 		movea lo(_cam),r12,r12
 2156 152c 6CDD1400 		st.w r11,20[r12]
 2157              	.L266:
 2158 1530 60BD0000 		movhi hi(_cam),r0,r11
 2159 1534 6BA10000 		movea lo(_cam),r11,r11
 2160 1538 6BCD1400 		ld.w 20[r11],r11
 2161 153c 80A188FF 		movea lo(-120),r0,r12
 2162 1540 6C0D     		cmp r12,r11
 2163 1542 109C     		bge .L268
 2164 1544 60BD0000 		movhi hi(_cam),r0,r11
 2165 1548 6BA10000 		movea lo(_cam),r11,r11
 2166 154c 8BDD1400 		st.w r12,20[r11]
 2167 1550 168A     		br .L269
 2168              	.L268:
 2169 1552 80A17800 		movea lo(120),r0,r12
 2170 1556 6C0D     		cmp r12,r11
 2171 1558 0E8E     		ble .L269
 2172 155a 60BD0000 		movhi hi(_cam),r0,r11
 2173 155e 6BA10000 		movea lo(_cam),r11,r11
 2174 1562 8BDD1400 		st.w r12,20[r11]
GAS LISTING /tmp/ccjfHZuC.s 			page 40


 2175              	.L269:
 2176 1566 60BD0000 		movhi hi(_cam),r0,r11
 2177 156a 6BA10000 		movea lo(_cam),r11,r11
 2178 156e ABCD1400 		ld.w 20[r11],r13
 2179 1572 8BCD0000 		ld.w 0[r11],r12
 2180 1576 8D05     		add r13,r12
 2181 1578 8BDD0000 		st.w r12,0[r11]
 2182 157c 60A191E8 		movea lo(-5999),r0,r11
 2183 1580 8B0D     		cmp r11,r12
 2184 1582 169C     		bge .L270
 2185 1584 60BD0000 		movhi hi(_cam),r0,r11
 2186 1588 6BA10000 		movea lo(_cam),r11,r11
 2187 158c 80A190E8 		movea lo(-6000),r0,r12
 2188 1590 8BDD0000 		st.w r12,0[r11]
 2189 1594 0BDC1400 		st.w r0,20[r11]
 2190              	.L270:
 2191 1598 60BD0000 		movhi hi(_cam),r0,r11
 2192 159c 8BCD0000 		ld.w lo(_cam)[r11],r12
 2193 15a0 60A16F17 		movea lo(5999),r0,r11
 2194 15a4 8B0D     		cmp r11,r12
 2195 15a6 168E     		ble .L271
 2196 15a8 60BD0000 		movhi hi(_cam),r0,r11
 2197 15ac 6BA10000 		movea lo(_cam),r11,r11
 2198 15b0 80A17017 		movea lo(6000),r0,r12
 2199 15b4 8BDD0000 		st.w r12,0[r11]
 2200 15b8 0BDC1400 		st.w r0,20[r11]
 2201              	.L271:
 2202 15bc 6AB50004 		andi 1024,r10,r11
 2203 15c0 1C84     		be .L272
 2204 15c2 80BD0000 		movhi hi(_crossH),r0,r12
 2205 15c6 8CA10000 		movea lo(_crossH),r12,r12
 2206 15ca 6CCD1000 		ld.w 16[r12],r11
 2207 15ce 7E45     		add -2,r11
 2208 15d0 6CDD1000 		st.w r11,16[r12]
 2209 15d4 600D     		cmp r0,r11
 2210 15d6 069E     		bgt .L272
 2211 15d8 0CDC1000 		st.w r0,16[r12]
 2212              	.L272:
 2213 15dc 4AB50008 		andi 2048,r10,r10
 2214 15e0 2C84     		be .L274
 2215 15e2 60BD0000 		movhi hi(_crossH),r0,r11
 2216 15e6 6BA10000 		movea lo(_crossH),r11,r11
 2217 15ea 4BCD1000 		ld.w 16[r11],r10
 2218 15ee 4245     		add 2,r10
 2219 15f0 4BDD1000 		st.w r10,16[r11]
 2220 15f4 60A16100 		movea lo(97),r0,r11
 2221 15f8 4B0D     		cmp r11,r10
 2222 15fa 128E     		ble .L274
 2223 15fc 60A16200 		movea lo(98),r0,r11
 2224 1600 40BD0000 		movhi hi(_crossH),r0,r10
 2225 1604 4AA10000 		movea lo(_crossH),r10,r10
 2226 1608 6ADD1000 		st.w r11,16[r10]
 2227              	.L274:
 2228 160c 00A80000 		jr __return_r31
 2229              		.size	_handleInput, .-_handleInput
 2230              		.align 2
 2231              		.global _addNode
GAS LISTING /tmp/ccjfHZuC.s 			page 41


 2232              		.type	_addNode, @function
 2233              	_addNode:
 2234 1610 E7B4FF00 		andi 255,r7,r7
 2235 1614 08B5FF00 		andi 255,r8,r8
 2236 1618 40BD0000 		movhi hi(_gameNodeIdx),r0,r10
 2237 161c 4AC10000 		ld.b lo(_gameNodeIdx)[r10],r10
 2238 1620 4AB5FF00 		andi 255,r10,r10
 2239 1624 60A11300 		movea lo(19),r0,r11
 2240 1628 4B0D     		cmp r11,r10
 2241 162a 4E96     		bh .L277
 2242 162c A0BD0000 		movhi hi(_gameNodes),r0,r13
 2243 1630 ADA10000 		movea lo(_gameNodes),r13,r13
 2244 1634 6A01     		mov r10,r11
 2245 1636 6A05     		add r10,r11
 2246 1638 6A05     		add r10,r11
 2247 163a 8B01     		mov r11,r12
 2248 163c 8451     		shl 4,r12
 2249 163e 8D05     		add r13,r12
 2250 1640 0CD10000 		st.b r8,0[r12]
 2251 1644 ECD00100 		st.b r7,1[r12]
 2252 1648 ECD00200 		st.b r7,2[r12]
 2253 164c 0CD00300 		st.b r0,3[r12]
 2254 1650 8B01     		mov r11,r12
 2255 1652 8451     		shl 4,r12
 2256 1654 8445     		add 4,r12
 2257 1656 8D05     		add r13,r12
 2258 1658 0CD00000 		st.b r0,0[r12]
 2259 165c C141     		mov 1,r14
 2260 165e CCD10100 		st.b r14,1[r12]
 2261 1662 6B05     		add r11,r11
 2262 1664 6145     		add 1,r11
 2263 1666 6351     		shl 3,r11
 2264 1668 AB05     		add r11,r13
 2265 166a CDDC0000 		st.w r6,0[r13]
 2266 166e 4145     		add 1,r10
 2267 1670 60BD0000 		movhi hi(_gameNodeIdx),r0,r11
 2268 1674 4BD10000 		st.b r10,lo(_gameNodeIdx)[r11]
 2269              	.L277:
 2270 1678 1F18     		jmp [r31]
 2271              		.size	_addNode, .-_addNode
 2272 167a 0000     		.align 2
 2273              		.global _getHitSquare
 2274              		.type	_getHitSquare, @function
 2275              	_getHitSquare:
 2276 167c 40BD0000 		movhi hi(_numVertices),r0,r10
 2277 1680 4ACD0000 		ld.w lo(_numVertices)[r10],r10
 2278 1684 400D     		cmp r0,r10
 2279 1686 9084     		be .L286
 2280 1688 60BD0000 		movhi hi(_vertexBuffer+16),r0,r11
 2281 168c 6BA10000 		movea lo(_vertexBuffer+16),r11,r11
 2282 1690 4041     		mov 0,r10
 2283 1692 80BD0000 		movhi hi(_vertexBuffer),r0,r12
 2284 1696 8CA10000 		movea lo(_vertexBuffer),r12,r12
 2285 169a C0BD0000 		movhi hi(_numVertices),r0,r14
 2286 169e CEA10000 		movea lo(_numVertices),r14,r14
 2287              	.L285:
 2288 16a2 400D     		cmp r0,r10
GAS LISTING /tmp/ccjfHZuC.s 			page 42


 2289 16a4 4484     		be .L280
 2290 16a6 ABCDFCFF 		ld.w -4[r11],r13
 2291 16aa E6CD0C00 		ld.w 12[r6],r15
 2292 16ae AF0D     		cmp r15,r13
 2293 16b0 069C     		bge .L281
 2294 16b2 A6DD0C00 		st.w r13,12[r6]
 2295              	.L281:
 2296 16b6 ABCD0000 		ld.w 0[r11],r13
 2297 16ba E6CD1000 		ld.w 16[r6],r15
 2298 16be AF0D     		cmp r15,r13
 2299 16c0 068E     		ble .L282
 2300 16c2 A6DD1000 		st.w r13,16[r6]
 2301              	.L282:
 2302 16c6 ABCDFCFF 		ld.w -4[r11],r13
 2303 16ca E7CD0C00 		ld.w 12[r7],r15
 2304 16ce AF0D     		cmp r15,r13
 2305 16d0 068E     		ble .L283
 2306 16d2 A7DD0C00 		st.w r13,12[r7]
 2307              	.L283:
 2308 16d6 ABCD0000 		ld.w 0[r11],r13
 2309 16da E7CD1000 		ld.w 16[r7],r15
 2310 16de AF0D     		cmp r15,r13
 2311 16e0 289C     		bge .L284
 2312 16e2 A7DD1000 		st.w r13,16[r7]
 2313 16e6 228A     		br .L284
 2314              	.L280:
 2315 16e8 ACCD0C00 		ld.w 12[r12],r13
 2316 16ec A6DD0C00 		st.w r13,12[r6]
 2317 16f0 ACCD1000 		ld.w 16[r12],r13
 2318 16f4 A6DD1000 		st.w r13,16[r6]
 2319 16f8 ACCD0C00 		ld.w 12[r12],r13
 2320 16fc A7DD0C00 		st.w r13,12[r7]
 2321 1700 ACCD1000 		ld.w 16[r12],r13
 2322 1704 A7DD1000 		st.w r13,16[r7]
 2323              	.L284:
 2324 1708 4145     		add 1,r10
 2325 170a 6BA51400 		addi 20,r11,r11
 2326 170e AECD0000 		ld.w 0[r14],r13
 2327 1712 AA0D     		cmp r10,r13
 2328 1714 8E97     		bh .L285
 2329              	.L286:
 2330 1716 1F18     		jmp [r31]
 2331              		.size	_getHitSquare, .-_getHitSquare
 2332              		.align 2
 2333              		.global _detectHit
 2334              		.type	_detectHit, @function
 2335              	_detectHit:
 2336 1718 4041     		mov 0,r10
 2337 171a 1F18     		jmp [r31]
 2338              		.size	_detectHit, .-_detectHit
 2339              		.align 2
 2340              		.global _initCam
 2341              		.type	_initCam, @function
 2342              	_initCam:
 2343 171c 40BD0000 		movhi hi(_cam),r0,r10
 2344 1720 4AA10000 		movea lo(_cam),r10,r10
 2345 1724 0ADC0000 		st.w r0,0[r10]
GAS LISTING /tmp/ccjfHZuC.s 			page 43


 2346 1728 0ADC0400 		st.w r0,4[r10]
 2347 172c 60A1C0F9 		movea lo(-1600),r0,r11
 2348 1730 6ADD0800 		st.w r11,8[r10]
 2349 1734 0ADC3C00 		st.w r0,60[r10]
 2350 1738 0ADC4000 		st.w r0,64[r10]
 2351 173c 0ADC4400 		st.w r0,68[r10]
 2352 1740 0ADC6400 		st.w r0,100[r10]
 2353 1744 0ADC6800 		st.w r0,104[r10]
 2354 1748 0ADC6C00 		st.w r0,108[r10]
 2355 174c 0ADC1400 		st.w r0,20[r10]
 2356 1750 0ADC1800 		st.w r0,24[r10]
 2357 1754 0ADC1C00 		st.w r0,28[r10]
 2358 1758 60A10008 		movea lo(2048),r0,r11
 2359 175c 6ADD8C00 		st.w r11,140[r10]
 2360 1760 1F18     		jmp [r31]
 2361              		.size	_initCam, .-_initCam
 2362 1762 0000     		.align 2
 2363              		.global _timeHnd
 2364              		.type	_timeHnd, @function
 2365              	_timeHnd:
 2366 1764 5F01     		mov r31,r10
 2367 1766 00AC0000 		jal __save_r28_r31
 2368 176a C040     		mov 0,r6
 2369 176c A0BF0000 		movhi hi(_timer_int),r0,r29
 2370 1770 BDA30000 		movea lo(_timer_int),r29,r29
 2371 1774 00AC0400 		jal .+4
 2372 1778 E447     		add 4,r31
 2373 177a 1D18     		jmp r29
 2374 177c C040     		mov 0,r6
 2375 177e 80BF0000 		movhi hi(_timer_enable),r0,r28
 2376 1782 9CA30000 		movea lo(_timer_enable),r28,r28
 2377 1786 00AC0400 		jal .+4
 2378 178a E447     		add 4,r31
 2379 178c 1C18     		jmp r28
 2380 178e FFAF72E8 		jal _timer_clearstat
 2381 1792 40BD0000 		movhi hi(_tick),r0,r10
 2382 1796 4AA10000 		movea lo(_tick),r10,r10
 2383 179a 6ACD0000 		ld.w 0[r10],r11
 2384 179e 6145     		add 1,r11
 2385 17a0 6ADD0000 		st.w r11,0[r10]
 2386 17a4 C140     		mov 1,r6
 2387 17a6 00AC0400 		jal .+4
 2388 17aa E447     		add 4,r31
 2389 17ac 1D18     		jmp r29
 2390 17ae C140     		mov 1,r6
 2391 17b0 00AC0400 		jal .+4
 2392 17b4 E447     		add 4,r31
 2393 17b6 1C18     		jmp r28
 2394 17b8 00A80000 		jr __return_r28_r31
 2395              		.size	_timeHnd, .-_timeHnd
 2396              		.align 2
 2397              		.global _vbInit
 2398              		.type	_vbInit, @function
 2399              	_vbInit:
 2400 17bc 5F01     		mov r31,r10
 2401 17be 00AC0000 		jal __save_r29_r31
 2402 17c2 FFAF3EE8 		jal _vbDisplayOn
GAS LISTING /tmp/ccjfHZuC.s 			page 44


 2403 17c6 FFAF3AE8 		jal _vbSetColTable
 2404 17ca 40BD0000 		movhi hi(_VIP_REGS),r0,r10
 2405 17ce 4AA10000 		movea lo(_VIP_REGS),r10,r10
 2406 17d2 8ACD0000 		ld.w 0[r10],r12
 2407 17d6 8CA52400 		addi 36,r12,r12
 2408 17da 60A12000 		movea lo(32),r0,r11
 2409 17de 6CD50000 		st.h r11,0[r12]
 2410 17e2 8ACD0000 		ld.w 0[r10],r12
 2411 17e6 8CA52600 		addi 38,r12,r12
 2412 17ea A0A34000 		movea lo(64),r0,r29
 2413 17ee ACD70000 		st.h r29,0[r12]
 2414 17f2 8ACD0000 		ld.w 0[r10],r12
 2415 17f6 8CA52800 		addi 40,r12,r12
 2416 17fa 6CD50000 		st.h r11,0[r12]
 2417 17fe 8141     		mov 1,r12
 2418 1800 60BD0002 		movhi hi(33554468),r0,r11
 2419 1804 6BA12400 		movea lo(33554468),r11,r11
 2420 1808 8BD10000 		st.b r12,0[r11]
 2421 180c 4ACD0000 		ld.w 0[r10],r10
 2422 1810 4AA52E00 		addi 46,r10,r10
 2423 1814 0AD40000 		st.h r0,0[r10]
 2424 1818 C0BC0200 		movhi hi(122880),r0,r6
 2425 181c C6A000E0 		movea lo(122880),r6,r6
 2426 1820 E0BC0000 		movhi hi(_PVB_FONT),r0,r7
 2427 1824 E7A00000 		movea lo(_PVB_FONT),r7,r7
 2428 1828 00A10020 		movea lo(8192),r0,r8
 2429 182c FFAFD4E7 		jal _copymem
 2430 1830 40BD0400 		movhi hi(252896),r0,r10
 2431 1834 4AA1E0DB 		movea lo(252896),r10,r10
 2432 1838 60A100C0 		movea lo(-16384),r0,r11
 2433 183c 6AD50000 		st.h r11,0[r10]
 2434 1840 60A17C01 		movea lo(380),r0,r11
 2435 1844 6AD50E00 		st.h r11,14[r10]
 2436 1848 60A1E000 		movea lo(224),r0,r11
 2437 184c 6AD51000 		st.h r11,16[r10]
 2438 1850 40BD0400 		movhi hi(252864),r0,r10
 2439 1854 4AA1C0DB 		movea lo(252864),r10,r10
 2440 1858 AAD70000 		st.h r29,0[r10]
 2441 185c 60BD0000 		movhi hi(_timeHnd),r0,r11
 2442 1860 6BA10000 		movea lo(_timeHnd),r11,r11
 2443 1864 40BD0000 		movhi hi(_tim_vector),r0,r10
 2444 1868 6ADD0000 		st.w r11,lo(_tim_vector)[r10]
 2445 186c C140     		mov 1,r6
 2446 186e FFAF92E7 		jal _timer_freq
 2447 1872 C840     		mov 8,r6
 2448 1874 FFAF8CE7 		jal _timer_set
 2449 1878 C140     		mov 1,r6
 2450 187a FFAF86E7 		jal _timer_enable
 2451 187e C140     		mov 1,r6
 2452 1880 FFAF80E7 		jal _timer_int
 2453 1884 00A80000 		jr __return_r29_r31
 2454              		.size	_vbInit, .-_vbInit
 2455              		.align 2
 2456              		.global _screenControl
 2457              		.type	_screenControl, @function
 2458              	_screenControl:
 2459 1888 40BD0000 		movhi hi(_pgflip___3012),r0,r10
GAS LISTING /tmp/ccjfHZuC.s 			page 45


 2460 188c 4AA10000 		movea lo(_pgflip___3012),r10,r10
 2461 1890 8AC50000 		ld.h 0[r10],r12
 2462 1894 8C3D     		not r12,r12
 2463 1896 8CB50C00 		andi 12,r12,r12
 2464 189a 8AD50000 		st.h r12,0[r10]
 2465 189e 40BD0000 		movhi hi(_VIP_REGS),r0,r10
 2466 18a2 4AA10000 		movea lo(_VIP_REGS),r10,r10
 2467 18a6 6ACD0000 		ld.w 0[r10],r11
 2468 18aa ABA54200 		addi 66,r11,r13
 2469 18ae 6BA54000 		addi 64,r11,r11
 2470 18b2 6BC50000 		ld.h 0[r11],r11
 2471 18b6 6BB5FFFF 		andi 65535,r11,r11
 2472 18ba 6BB10200 		ori 2,r11,r11
 2473 18be 6DD50000 		st.h r11,0[r13]
 2474 18c2 AACD0000 		ld.w 0[r10],r13
 2475 18c6 6DA54000 		addi 64,r13,r11
 2476              	.L297:
 2477 18ca 4BC50000 		ld.h 0[r11],r10
 2478 18ce 4C35     		and r12,r10
 2479 18d0 FA85     		be .L297
 2480 18d2 ADA54200 		addi 66,r13,r13
 2481 18d6 4BC50000 		ld.h 0[r11],r10
 2482 18da 4AB5FDFF 		andi 65533,r10,r10
 2483 18de 4DD50000 		st.h r10,0[r13]
 2484 18e2 60BD0000 		movhi hi(_currentFrameBuffer),r0,r11
 2485 18e6 6BA10000 		movea lo(_currentFrameBuffer),r11,r11
 2486 18ea 8BCD0000 		ld.w 0[r11],r12
 2487 18ee 40BD0000 		movhi hi(_nextFrameBuffer),r0,r10
 2488 18f2 4AA10000 		movea lo(_nextFrameBuffer),r10,r10
 2489 18f6 AACD0000 		ld.w 0[r10],r13
 2490 18fa ABDD0000 		st.w r13,0[r11]
 2491 18fe 8ADD0000 		st.w r12,0[r10]
 2492 1902 1F18     		jmp [r31]
 2493              		.size	_screenControl, .-_screenControl
 2494              		.align 2
 2495              		.global _g3d_drawLine
 2496              		.type	_g3d_drawLine, @function
 2497              	_g3d_drawLine:
 2498 1904 5F01     		mov r31,r10
 2499 1906 00AC0000 		jal __save_r25_r31
 2500 190a 63A41000 		addi 16,sp,sp
 2501 190e 08B5FF00 		andi 255,r8,r8
 2502 1912 66CD0C00 		ld.w 12[r6],r11
 2503 1916 46CD1000 		ld.w 16[r6],r10
 2504 191a C7CD0C00 		ld.w 12[r7],r14
 2505 191e CB09     		sub r11,r14
 2506 1920 A7CD1000 		ld.w 16[r7],r13
 2507 1924 AA09     		sub r10,r13
 2508 1926 86CD0800 		ld.w 8[r6],r12
 2509 192a 47CE0800 		ld.w 8[r7],r18
 2510 192e 2C01     		mov r12,r9
 2511 1930 3209     		sub r18,r9
 2512 1932 4902     		mov r9,r18
 2513 1934 435E     		sar 3,r18
 2514 1936 4146     		add 1,r18
 2515 1938 523E     		not r18,r18
 2516 193a C00D     		cmp r0,r14
GAS LISTING /tmp/ccjfHZuC.s 			page 46


 2517 193c 068C     		blt .L301
 2518 193e 2142     		mov 1,r17
 2519 1940 048A     		br .L302
 2520              	.L301:
 2521 1942 3F42     		mov -1,r17
 2522              	.L302:
 2523 1944 A00D     		cmp r0,r13
 2524 1946 068C     		blt .L303
 2525 1948 0142     		mov 1,r16
 2526 194a 048A     		br .L304
 2527              	.L303:
 2528 194c 1F42     		mov -1,r16
 2529              	.L304:
 2530 194e 400E     		cmp r0,r18
 2531 1950 068C     		blt .L305
 2532 1952 E140     		mov 1,r7
 2533 1954 048A     		br .L306
 2534              	.L305:
 2535 1956 FF40     		mov -1,r7
 2536              	.L306:
 2537 1958 C00D     		cmp r0,r14
 2538 195a 069C     		bge .L307
 2539 195c CE3D     		not r14,r14
 2540 195e C145     		add 1,r14
 2541              	.L307:
 2542 1960 A00D     		cmp r0,r13
 2543 1962 069C     		bge .L308
 2544 1964 AD3D     		not r13,r13
 2545 1966 A145     		add 1,r13
 2546              	.L308:
 2547 1968 400E     		cmp r0,r18
 2548 196a 069C     		bge .L309
 2549 196c 523E     		not r18,r18
 2550 196e 4146     		add 1,r18
 2551              	.L309:
 2552 1970 6D02     		mov r13,r19
 2553 1972 AE0D     		cmp r14,r13
 2554 1974 049C     		bge .L310
 2555 1976 6E02     		mov r14,r19
 2556              	.L310:
 2557 1978 D3A40100 		addi 1,r19,r6
 2558              	#APP
 2559              	# 1214 "G3d.c" 1
   1              	/****************************
   2              	Copies one vector to another
   3              	*****************************/
   4              	void inline g3d_copyVector3d(vector3d* from, vector3d* to){
   5              	#ifndef __ASM_CODE
   6              		to->x = from->x;
   7              		to->y = from->y;
   8              		to->z = from->z;
   9              		to->sx = from->sx;
  10              		to->sy = from->sy;
  11              	#else
  12              		asm(
  13              		"ld.w 0x0[%[from]],  r6\n"
  14              		"st.w r6,            0x0[%[to]]\n"
GAS LISTING /tmp/ccjfHZuC.s 			page 47


  15              		"ld.w 0x4[%[from]],  r6\n"
  16              		"st.w r6,            0x4[%[to]]\n"
  17              		"ld.w 0x8[%[from]],  r6\n"
  18              		"st.w r6,            0x8[%[to]]\n"
  19              		"ld.w 0xc[%[from]],  r6\n"
  20              		"st.w r6,            0xc[%[to]]\n"
  21              		"ld.w 0x10[%[from]], r6\n"
  22              		"st.w r6,            0x10[%[to]]\n"
  23              		:
  24              		:[from] "r" ((vector3d*)from), [to] "r" ((vector3d*)to)
  25              		:"r6"
  26              		);
  27              	#endif
  28              	}
  29              	
  30              	/****************************
  31              	Scales a vector by a given fixed point vector
  32              	*****************************/
  33              	void inline g3d_scale(vector3d* factor, vector3d* v, vector3d* o){
  34              		if(factor->x == 1 && factor->y == 1 && factor->z == 1){
  35              			g3d_copyVector3d(v,o);
  36              			return;
  37              		}
  38              	#ifndef __ASM_CODE
  39              		o->x = F_MUL(v->x,factor->x);
  40              		o->y = F_MUL(v->y,factor->y);
  41              		o->z = F_MUL(v->z,factor->z);
  42              	#else
  43              		asm(
  44              		"ld.w 0[%[factor]],    r5\n"
  45              		"ld.w 0[%[v]],         r6\n"
  46              		"mul r5,               r6\n"
  47              		"mov r6,               r7\n"
  48              		"sar %[fshiftm1],      r7\n"
  49              		"andi 0x01,            r7,   r7\n"
  50              		"sar %[fshift],        r6\n"
  51              		"add r6,               r7\n"
  52              		"st.w r7,              0[%[o]]\n"
  53              		"ld.w 4[%[factor]],    r5\n"
  54              		"ld.w 4[%[v]],         r6\n"
  55              		"mul r5,               r6\n"
  56              		"mov r6,               r7\n"
  57              		"sar %[fshiftm1],      r7\n"
  58              		"andi 0x01,            r7,   r7\n"
  59              		"sar %[fshift],        r6\n"
  60              		"add r6,               r7\n"
  61              		"st.w r7,              4[%[o]]\n"
  62              		"ld.w 8[%[factor]],    r5\n"
  63              		"ld.w 8[%[v]],         r6\n"
  64              		"mul r5,               r6\n"
  65              		"mov r6,               r7\n"
  66              		"sar %[fshiftm1],      r7\n"
  67              		"andi 0x01,            r7,  r7\n"
  68              		"sar %[fshift],        r6\n"
  69              		"add r6,               r7\n"
  70              		"st.w r7,              8[%[o]]\n"
  71              		:
GAS LISTING /tmp/ccjfHZuC.s 			page 48


  72              		:[factor] "r" ((vector3d*)factor), [v]        "r" ((vector3d*)v)    , [o] "r" ((vector3d*)o),
  73              		 [fshift] "r" (FIXED_SHIFT)      , [fshiftm1] "r" (FIXED_SHIFT-1)
  74              		:"r5","r6","r7"
  75              		);
  76              	#endif
  77              	}
  78              	
  79              	/***********************************
  80              	Rotates a point around the X axis
  81              	************************************/
  82              	void inline g3d_rotateXAxis(s32 degrees, vector3d* v, vector3d* o){
  83              		o->x = v->x;
  84              	#ifndef __ASM_CODE
  85              		o->z = (F_MUL(v->z, cosine[degrees])) + (F_MUL(sine[degrees], v->y));
  86              		o->y = (F_MUL(v->z, -sine[degrees])) + (F_MUL(cosine[degrees], v->y));
  87              	#else
  88              		asm(
  89              		"ld.w %[vy],           r7\n"
  90              		"ld.w %[vz],           r8\n"
  91              		"ld.w %[cos],          r10\n"
  92              		"ld.w %[sin],          r11\n"
  93              		//F_MUL(v->z, cosine[degrees])
  94              		"mov r8,               r12\n"
  95              		"mul r10,              r12\n"
  96              		"sar %[fixShift],      r12\n"
  97              		//+ (F_MUL(sine[degrees],v->y))
  98              		"mov r7,               r13\n"
  99              		"mul r11,              r13\n"
 100              		"sar %[fixShift],      r13\n"
 101              		"add r12,              r13\n"
 102              		"st.w r13,             0x08[%[o]]\n"
 103              		//F_MUL(v->z, -sine[degrees])
 104              		"not r11,              r11\n"
 105              		"addi 1,r11,           r11\n"
 106              		"mov r8,               r12\n"
 107              		"mul r11,              r12\n"
 108              		"sar %[fixShift],      r12\n"
 109              		//+ F_MUL(cosine[degrees], v->y)
 110              		"mov r10,              r13\n"
 111              		"mul r7,               r13\n"
 112              		"sar %[fixShift],      r13\n"
 113              		"add r12,              r13\n"
 114              		"st.w r13,             0x04[%[o]]\n"
 115              		:/*output*/
 116              		:  [vy]  "m" (v->y)           , [vz]  "m" (v->z)         , [o]        "r" ((vector3d*)o)
 117              		 , [cos] "m" (cosine[degrees]), [sin] "m" (sine[degrees]), [fixShift] "i" (FIXED_SHIFT)	 
 118              		:"r7","r8","r10","r11","r12","r13"
 119              		);
 120              	#endif
 121              	}
 122              	
 123              	/**********************************
 124              	Rotates a point around the Y axis
 125              	***********************************/
 126              	void inline g3d_rotateYAxis(s32 degrees, vector3d* v, vector3d* o){
 127              		o->y = v->y;
 128              	#ifndef __ASM_CODE
GAS LISTING /tmp/ccjfHZuC.s 			page 49


 129              		o->x = (F_MUL(v->x, cosine[degrees])) + (F_MUL(sine[degrees], v->z));
 130              		o->z = (F_MUL(v->x, -sine[degrees])) + (F_MUL(cosine[degrees], v->z));
 131              	#else
 132              		asm(
 133              		"ld.w %[vz],                r7\n"
 134              		"ld.w %[vx],                r8\n"
 135              		"ld.w %[cos],               r10\n"
 136              		"ld.w %[sin],               r11\n"
 137              		//F_MUL(v->x, cosine[degrees])
 138              		"mov r8,                    r12\n"
 139              		"mul r10,                   r12\n"
 140              		"sar %[fixShift],           r12\n"
 141              		//+ (F_MUL(sine[degrees],v->z))
 142              		"mov r7,                    r13\n"
 143              		"mul r11,                   r13\n"
 144              		"sar %[fixShift],           r13\n"
 145              		"add r12,                   r13\n"
 146              		"st.w r13,                  0x00[%[o]]\n"
 147              		//F_MUL(v->x, -sine[degrees])
 148              		"not r11,                   r11\n"
 149              		"addi 1,                    r11,       r11\n"
 150              		"mov r8,                    r12\n"
 151              		"mul r11,                   r12\n"
 152              		"sar %[fixShift],           r12\n"
 153              		//+ F_MUL(cosine[degrees], v->z)
 154              		"mov r10,                   r13\n"
 155              		"mul r7,                    r13\n"
 156              		"sar %[fixShift],           r13\n"
 157              		"add r12,                   r13\n"
 158              		"st.w r13,                  0x08[%[o]]\n"
 159              		:/*output*/
 160              		: [vz]  "m" (v->z)            , [vx] "m" (v->x)          , [o]        "r" ((vector3d*)o)
 161              		 ,[cos] "m" (cosine[degrees]), [sin] "m" (sine[degrees]) , [fixShift] "i" (FIXED_SHIFT)
 162              		:"r7","r8","r10","r11","r12","r13"
 163              		);
 164              	#endif
 165              	}
 166              	
 167              	/**********************************
 168              	Rotates a point around the Z axis
 169              	***********************************/
 170              	void inline g3d_rotateZAxis(s32 degrees, vector3d* v, vector3d* o){
 171              		o->z = v->z;
 172              	#ifndef __ASM_CODE
 173              		o->x = (F_MUL(v->x, cosine[degrees])) + (F_MUL(sine[degrees], v->y));
 174              		o->y = (F_MUL(v->x, -sine[degrees])) + (F_MUL(cosine[degrees], v->y));
 175              	#else
 176              		asm(
 177              		"ld.w %[vy],r7\n"
 178              		"ld.w %[vx],r8\n"
 179              		"ld.w %[cos],r10\n"
 180              		"ld.w %[sin],r11\n"
 181              		//F_MUL(v->x, cosine[degrees])
 182              		"mov r8,r12\n"
 183              		"mul r10,r12\n"
 184              		"sar %[fixShift],r12\n"
 185              		//+ (F_MUL(sine[degrees],v->y))
GAS LISTING /tmp/ccjfHZuC.s 			page 50


 186              		"mov r7,r13\n"
 187              		"mul r11,r13\n"
 188              		"sar %[fixShift],r13\n"
 189              		"add r12,r13\n"
 190              		"st.w r13, 0x00[%[o]]\n"
 191              		//F_MUL(v->x, -sine[degrees])
 192              		"not r11,r11\n"
 193              		"addi 1,r11,r11\n"
 194              		"mov r8,r12\n"
 195              		"mul r11,r12\n"
 196              		"sar %[fixShift],r12\n"
 197              		//+ F_MUL(cosine[degrees], v->y)
 198              		"mov r10,r13\n"
 199              		"mul r7,r13\n"
 200              		"sar %[fixShift],r13\n"
 201              		"add r12,r13\n"
 202              		"st.w r13,0x04[%[o]]\n"
 203              		:/*output*/
 204              		: [vy]  "m" (v->y)           ,[vx]  "m" (v->x)         , [o]        "r" ((vector3d*)o)
 205              		 ,[cos] "m" (cosine[degrees]),[sin] "m" (sine[degrees]), [fixShift] "i" (FIXED_SHIFT)	 
 206              		:"r7","r8","r10","r11","r12","r13"
 207              		);
 208              	#endif
 209              	}
 210              	
 211              	/***********************************************
 212              	This will rotate a point around all 3 axis.
 213              	It performs checks on the rotation values to make sure the
 214              	values are not zero before performing the rotation calculations.
 215              	rx,ry,and rz are degrees and are NOT fixed point
 216              	Make sure the rotation values are between -360 and 360
 217              	************************************************/
 218              	void inline g3d_rotateAllAxis(s32 rx, s32 ry, s32 rz, vector3d* v, vector3d* o){
 219              		vector3d t;
 220              		
 221              		if(rx==0 && ry==0 && rz==0){
 222              			g3d_copyVector3d(v,o);
 223              			return;
 224              		}
 225              		
 226              		if(rx<0) rx=359+rx;
 227              		if(ry<0) ry=359+ry;
 228              		if(rz<0) rz=359+rz;
 229              	
 230              		g3d_copyVector3d(v,&t);
 231              		if(ry != 0){
 232              			g3d_rotateYAxis(ry,&t,o);
 233              			g3d_copyVector3d(o,&t);
 234              		}
 235              		if(rx != 0){
 236              			g3d_rotateXAxis(rx,&t,o);
 237              			g3d_copyVector3d(o,&t);
 238              		}
 239              		if(rz != 0){
 240              			g3d_rotateZAxis(rz,&t,o);
 241              			g3d_copyVector3d(o,&t);
 242              		}
GAS LISTING /tmp/ccjfHZuC.s 			page 51


 243              		g3d_copyVector3d(&t,o);
 244              	}
 245              	
 246              	/*******************************
 247              	This translates or moves a point
 248              	********************************/
 249              	void inline g3d_translate(s32 x, s32 y, s32 z, vector3d* v, vector3d* o){
 250              	#ifndef __ASM_CODE
 251              		o->x = v->x + x;
 252              		o->y = v->y + y;
 253              		o->z = v->z + z;
 254              	#else
 255              		asm(
 256              		"ld.w 0[%[v]], r5\n"
 257              		"add %[x],     r5\n"
 258              		"st.w r5,      0[%[o]]\n"
 259              		"ld.w 4[%[v]], r5\n"
 260              		"add %[y],     r5\n"
 261              		"st.w r5,      4[%[o]]\n"
 262              		"ld.w 8[%[v]], r5\n"
 263              		"add %[z],     r5\n"
 264              		"st.w r5,      8[%[o]]\n"
 265              		:
 266              		:[x] "r" (x), [y] "r" (y), [z] "r" (z), [v] "r" ((vector3d*)v), [o] "r" ((vector3d*)o)
 267              		:"r5"
 268              		);
 269              	#endif
 270              	}
 271              	
 272              	/********************************
 273              	This performs the rotations for the camera.
 274              	It just rotates a point in the opposite direction
 275              	of the cameras rotation angles.
 276              	*********************************/
 277              	void inline g3d_cameraRotateAllAxis(s32 rx, s32 ry, s32 rz, vector3d* v, vector3d* o){
 278              	#ifndef __ASM_CODE
 279              		rx = (~rx)+1;
 280              		ry = (~ry)+1;
 281              		rz = (~rz)+1;
 282              	#else
 283              		asm(
 284              		"ld.w %[rx],           r5\n"
 285              		"not r5,               r5\n"
 286              		"addi 0x01,            r5,      r5\n"
 287              		"st.w r5,              %[rx]\n"
 288              		"ld.w %[ry],           r5\n"
 289              		"not r5,               r5\n"
 290              		"addi 0x01,            r5,      r5\n"
 291              		"st.w r5,              %[ry]\n"
 292              		"ld.w %[rz],           r5\n"
 293              		"not r5,               r5\n"
 294              		"addi 0x01,            r5,      r5\n"
 295              		"st.w r5,              %[rz]\n"
 296              		:
 297              		:[rx] "m" (rx), [ry] "m" (ry), [rz] "m" (rz)
 298              		:"r5"
 299              		);
GAS LISTING /tmp/ccjfHZuC.s 			page 52


 300              	#endif
 301              		g3d_rotateAllAxis(rx,ry,rz,v,o);
 302              	}
 303              	
 304              	/**********************************
 305              	This performs the camera translate or move by
 306              	calculating the difference between the camera's position
 307              	and the points position.
 308              	***********************************/
 309              	void inline g3d_cameraTranslate(s32 x, s32 y, s32 z, vector3d* v, vector3d* o){
 310              	#ifndef __ASM_CODE
 311              		o->x = v->x - x;
 312              		o->y = v->y - y;
 313              		o->z = v->z - z;
 314              	#else
 315              		asm(
 316              		"ld.w 0[%[v]], r5\n"
 317              		"sub %[x],     r5\n"
 318              		"st.w r5,      0[%[o]]\n"
 319              		"ld.w 4[%[v]], r5\n"
 320              		"sub %[y],     r5\n"
 321              		"st.w r5,      4[%[o]]\n"
 322              		"ld.w 8[%[v]], r5\n"
 323              		"sub %[z],     r5\n"
 324              		"st.w r5,      8[%[o]]\n"
 325              		:
 326              		:[x] "r" (x), [y] "r" (y), [z] "r" (z), [v] "r" ((vector3d*)v), [o] "r" ((vector3d*)o)
 327              		:"r5"
 328              		);
 329              	#endif
 330              	}
 331              	
 332              	/**********************************
 333              	This performs all affine transformation
 334              	functions against a vector3d object
 335              	***********************************/
 336              	void g3d_renderVector3d(object* obj, vector3d* v, vector3d* o, u8 initHitCube){
 337              		vector3d t;
 338              		//Transformations
 339              		g3d_scale(&obj->worldScale,v,&t);
 340              		g3d_copyVector3d(&t,o);
 341              		
 342              		g3d_rotateAllAxis(obj->worldRotation.x,obj->worldRotation.y,obj->worldRotation.z,o,&t);
 343              		g3d_copyVector3d(&t,o);
 344              		
 345              		g3d_translate(obj->worldPosition.x,obj->worldPosition.y,obj->worldPosition.z,o,&t);
 346              		g3d_copyVector3d(&t,o);		
 347              		
 348              		if(cam.worldRotation.x != 0 || cam.worldRotation.y != 0 || cam.worldRotation.z != 0){			
 349              			g3d_cameraRotateAllAxis(cam.worldRotation.x,cam.worldRotation.y,cam.worldRotation.z,o,&t);
 350              			g3d_copyVector3d(&t,o);
 351              		}
 352              		
 353              		g3d_cameraTranslate(cam.worldPosition.x,cam.worldPosition.y,cam.worldPosition.z,o,&t);
 354              		g3d_copyVector3d(&t,o);
 355              	}
 356              	
GAS LISTING /tmp/ccjfHZuC.s 			page 53


 357              	void g3d_calculateProjection(vector3d* o){
 358              	#ifndef __ASM_CODE
 359              		o->sx = F_NUM_DN(F_ADD(F_DIV(F_MUL(o->x,cam.d),F_ADD(cam.d,o->z)),F_NUM_UP(SCREEN_WIDTH>>1)));
 360              		o->sy = F_NUM_DN(F_ADD(F_DIV(F_MUL(o->y,cam.d),F_ADD(cam.d,o->z)),F_NUM_UP(SCREEN_HEIGHT>>1)));
 361              		o->sy = SCREEN_HEIGHT - o->sy;//flip y axis
 362              	#else
 363              		asm volatile(
 364              		"ld.w %[ox],              r6\n"
 365              		"ld.w %[oy],              r7\n"
 366              		"ld.w %[oz],              r8\n"
 367              		"ld.w %[camd],            r9\n"
 368              		"movea %[scrHalfW],       r0,      r10\n"
 369              		"movea %[scrHalfH],       r0,      r11\n"
 370              		"movea %[scrH],           r0,      r12\n"
 371              		//F_NUM_UP(SCREEN_WIDTH>>1)
 372              		"shl %[fixShift],         r10\n"
 373              		//F_NUM_UP(SCREEN_HEIGHT>>1)
 374              		"shl %[fixShift],         r11\n"
 375              		//F_MUL(o->x,cam.d)
 376              		"shl 8,                   r6\n"                   //specific to cam.d of 256 and fixShift of 3 << 
 377              		                                                  //This is a multiply of cam.d or shift left 11 a
 378              		//F_MUL(o->y,cam.d)
 379              		"shl 8,                   r7\n"                   //specific to cam.d of 256 and fixShift of 3 << 
 380              		//F_ADD(cam.d, o->z)
 381              		"add r9,                  r8\n"
 382              		//F_DIV : sx
 383              		"shl %[fixShift],         r6\n"
 384              		"div r8,                  r6\n"                   //Need to find a way to eliminate this divide
 385              		                                                  //Perhaps lookup table of some sort?
 386              		//F_DIV : sy
 387              		"shl %[fixShift],         r7\n"
 388              		"div r8,                  r7\n"                   //Need to find a way to eliminate this divide
 389              		//F_ADD : sx
 390              		"add r10,                 r6\n"
 391              		//F_ADD : sy
 392              		"add r11,                 r7\n"
 393              		//F_NUM_DN : sx
 394              		"sar %[fixShift],         r6\n"
 395              		"st.w r6,                 0x0[%[sx]]\n"
 396              		//F_NUM_DN : sy
 397              		"sar %[fixShift],         r7\n"
 398              		"sub r7,                  r12\n"
 399              		"st.w r12,                0x0[%[sy]]\n"
 400              		://output
 401              		: [ox]         "m" (o->x)             , [oy]       "m" (o->y)            , [oz]   "m" (o->z)
 402              		 ,[scrHalfW]   "i" (SCREEN_WIDTH >> 1), [scrHalfH] "i" (SCREEN_HEIGHT>>1), [scrH] "i" (SCREEN_HEIG
 403              		 ,[camd]       "m" (cam.d)            , [sx]       "r" (&o->sx)          , [sy]   "r" (&o->sy)
 404              		 ,[fixShiftm1] "i" (FIXED_SHIFT-1)    , [fixShift] "i" (FIXED_SHIFT)
 405              		:"r6","r7","r8","r9","r10","r11","r12","r13"
 406              		);
 407              	#endif
 408              	}
 409              	
 410              	/**************************
 411              	This procedure actually draws an
 412              	object
 413              	**************************/
GAS LISTING /tmp/ccjfHZuC.s 			page 54


 414              	void g3d_drawObject(object* o){
 415              		s32 vertices,lines,v,verts,i;
 416              		vector3d v1;
 417              		vector3d v2;
 418              		vector3d* v1p;
 419              		vector3d* v2p;
 420              		vector3d* vtp;
 421              		v1p = &v1;
 422              		v2p = &v2;
 423              		
 424              		//Clip objects if needed
 425              		if(o->properties.doClip == 1)g3d_clipObject(o);
 426              		
 427              		if(o->properties.visible == 0 || o->properties.clip == 1) return;
 428              		
 429              		vertices=o->objData->vertexSize;//total elements in array
 430              		lines=o->objData->lineSize;//Total line endpoints
 431              		verts=o->objData->faceSize;//total vertices per section
 432              	
 433              		v=0;
 434              		i=0;
 435              		
 436              		//Put object through the render pipeline
 437              		g3d_renderObject(o);
 438              		/*vertices=o->objData->vertexSize;//total elements in array
 439              		lines=o->objData->lineSize;//Total line endpoints
 440              		verts=o->objData->faceSize;//total vertices per section
 441              	
 442              		v=0;
 443              		i=0;
 444              		//Load and render all distinct vertices into the vertex buffer;
 445              		//This will render all object vertices based on the objects position,rotation etc..
 446              		_CacheEnable
 447              		while(v < vertices){
 448              			v1.x = o->objData->data[v];
 449              			v1.y = o->objData->data[v+1];
 450              			v1.z = o->objData->data[v+2];
 451              			
 452              			g3d_renderVector3d(o, &v1, &v2, ((v==0)?(1):(0)));
 453              			
 454              			vertexBuffer[i] = v2;
 455              			i++;
 456              			v+=3;
 457              		};
 458              		_CacheDisable*/
 459              	
 460              		//This reads the "faces" section of the data and draws lines between points.
 461              		//We'll use the vertex buffer's already rendered vertices
 462              		v = vertices;
 463              		while(v < (lines+vertices)){
 464              			v1p = &vertexBuffer[o->objData->data[v]];		
 465              			
 466              			for(i=1; i<verts; i++){
 467              				v++;
 468              				v2p = &vertexBuffer[o->objData->data[v]];
 469              				
 470              				if((v1p->z > cam.d) || (v2p->z > cam.d)){
GAS LISTING /tmp/ccjfHZuC.s 			page 55


 471              					g3d_clipZAxis(v1p, v2p);
 472              					g3d_calculateProjection(v1p);
 473              					g3d_calculateProjection(v2p);
 474              					g3d_drawLine(v1p,v2p,o->properties.lineColor);
 475              				}
 476              				vtp = v2p;
 477              				v1p = v2p;
 478              				v2p = vtp;
 479              				
 480              			}
 481              			v++;
 482              		}
 483              	}
 484              	
 485              	void g3d_renderObject(object* o){
 486              		u8 resetCube;
 487              	#ifndef __ASM_CODE
 488              		s32 vertices, lines, verts, v, i;
 489              		vector3d v1;
 490              		vector3d v2;
 491              		
 492              		vertices=o->objData->vertexSize;//total elements in array
 493              		
 494              		v=0;
 495              		i=0;
 496              		//Load and render all distinct vertices into the vertex buffer;
 497              		//This will render all object vertices based on the objects position,rotation etc..
 498              		_CacheEnable
 499              		while(v < vertices){
 500              			v1.x = o->objData->data[v];
 501              			v1.y = o->objData->data[v+1];
 502              			v1.z = o->objData->data[v+2];
 503              			
 504              			g3d_renderVector3d(o, &v1, &v2, ((v==0)?(1):(0)));
 505              			
 506              			vertexBuffer[i] = v2;
 507              			i++;
 508              			v+=3;
 509              		};
 510              		_CacheDisable
 511              	#else
 512              		/*
 513              		
 514              		Max and Min values for sine and cosine are based on a signed byte so -128 -> 127.
 515              		We'll store one value per byte within the registers
 516              		r6 = rotation indicator flag
 517              		r7 = cos[x],sine[x],cos[y],sine[y]
 518              		r8 = cos[z],sine[z],cos[camx],sine[camx]
 519              		r9 = cos[camy],sine[camy],cos[camz],sine[camz]
 520              		
 521              		r10 = worldposx
 522              		r11 = worldposy
 523              		r12 = worldposz
 524              		r13 = camposx
 525              		r14 = camposy
 526              		r15 = camposz
 527              		r16 = vertex count
GAS LISTING /tmp/ccjfHZuC.s 			page 56


 528              		
 529              		r17, r18 are scratch
 530              		r19,r20,r12 are x,y,z vertex values
 531              		*/
 532              		asm volatile(
 533              		//Now we'll store the cosine and sine values for the axis rotation angles
 534              		//Well multiply the degree number by 4 (shl 2) to get the number of bytes for the offset in the si
 535              		/*********************
 536              		Cosine and sine of x axis
 537              		**********************/
 538              		"mov r0, r6\n"
 539              		"objCosineSineX:\n"
 540              		"ld.w 40[%[obj]], r17\n"                             //X axis rotation
 541              		"or r17, r6\n"
 542              		"cmp r0, r17\n"
 543              		"bge _x_ge_0\n"
 544              		"addi 359, r17, r17\n"                               //if x < 0 x = 359 + x
 545              		"_x_ge_0:\n"
 546              		"shl 2, r17\n"
 547              		"mov r17, r18\n"
 548              		"add %[cosine], r18\n"                               //Adds start address of cosine plus number of
 549              		"ld.w 0x00[r18], r18\n"                              //Get the cosine value
 550              		"andi 0xFF, r18, r18\n"
 551              		"shl 24, r18\n"                                      //Move cosine x to 1st byte of r18
 552              		"mov r18, r7\n"                                      //Store cosine x in 1st byte of r7
 553              		
 554              		"mov r17, r18\n"                                     //Begin to get the sine value
 555              		"add %[sine], r18\n"
 556              		"ld.w 0x00[r18], r18\n"                              //Get the sine value
 557              		"andi 0xFF, r18, r18\n"
 558              		"shl 16, r18\n"                                      //Move sine x to 2nd byte of r18
 559              		"or r18, r7\n"                                       //Store sine x in 2nd byte of r7
 560              		/*****************************
 561              		Cosine and sine of y axis
 562              		******************************/
 563              		"objCosineSineY:\n"
 564              		"ld.w 44[%[obj]], r17\n"                             //Y axis rotation
 565              		"or r17, r6\n"
 566              		"cmp r0, r17\n"
 567              		"bge _y_ge_0\n"
 568              		"addi 359, r17, r17\n"                               //if y < 0 y = 359 + y
 569              		"_y_ge_0:\n"
 570              		"shl 2, r17\n"
 571              		"mov r17, r18\n"
 572              		"add %[cosine], r18\n"
 573              		"ld.w 0x00[r18], r18\n"
 574              		"andi 0xFF, r18, r18\n"
 575              		"shl 8, r18\n"                                       //Move cosine of y to 3rd byte of r18
 576              		"or r18, r7\n"                                       //Store cosine of y to 3rd byte of r7
 577              		
 578              		"mov r17, r18\n"
 579              		"add %[sine], r18\n"
 580              		"ld.w 0x00[r18], r18\n"
 581              		"andi 0xFF, r18, r18\n"
 582              		"or r18, r7\n"                                       //Store sine of y to 4th byte of r7
 583              		/*****************************
 584              		Cosine and sine of z axis
GAS LISTING /tmp/ccjfHZuC.s 			page 57


 585              		******************************/
 586              		"objCosineSineZ:\n"
 587              		"ld.w 48[%[obj]], r17\n"                             //Z axis rotation
 588              		"or r17, r6\n"
 589              		"cmp r0, r17\n"
 590              		"bge _z_ge_0\n"
 591              		"addi 359, r17, r17\n"                               //if z < 0 z = 359 + z
 592              		"_z_ge_0:\n"
 593              		"shl 2, r17\n"
 594              		"mov r17, r18\n"
 595              		"add %[cosine], r18\n"
 596              		"ld.w 0x00[r18], r18\n"
 597              		"shl 24, r18\n"                                      //Move cosine z in 1st byte of r18
 598              		"mov r18, r8\n"                                      //Store cosine z in 1st byte of r8
 599              		
 600              		"mov r17, r18\n"
 601              		"add %[sine], r18\n"
 602              		"ld.w 0x00[r18], r18\n"
 603              		"andi 0xFF, r18, r18\n"
 604              		"shl 16, r18\n"                                      //Move sine z in 2nd byte of r18
 605              		"or r18, r8\n"                                       //Store sine z in 2nd byte of r8
 606              		/********************************
 607              		Camera cosine and sine of x axis
 608              		*********************************/
 609              		"camCosineSineX:\n"
 610              		"ld.w 100[%[cam]], r17\n"
 611              		"or r17, r6\n"
 612              		"not r17, r17\n"
 613              		"addi 0x01, r17, r17\n"                              //Twos complement
 614              		"cmp r0, r17\n"
 615              		"bge _cam_x_ge_0\n"
 616              		"addi 359, r17, r17\n"                               //if x < 0 x = 359 + x
 617              		"_cam_x_ge_0:\n"
 618              		"shl 2, r17\n"
 619              		"mov r17, r18\n"
 620              		"add %[cosine], r18\n"
 621              		"ld.w 0x00[r18], r18\n"
 622              		"andi 0xFF, r18, r18\n"
 623              		"shl 8, r18\n"                                       //Move cosine x to 3rd byte of r18
 624              		"or r18, r8\n"                                       //Store cosine x to 3rd byte of r8
 625              		
 626              		"mov r17, r18\n"
 627              		"add %[sine], r18\n"
 628              		"ld.w 0x00[r18], r18\n"
 629              		"andi 0xFF, r18, r18\n"
 630              		"or r18, r8\n"                                       //Store sine x to 4th byte of r8
 631              		/*****************************
 632              		Camera cosine and sine of y axis
 633              		******************************/
 634              		"camCosineSineY:\n"
 635              		"ld.w 104[%[cam]], r17\n"
 636              		"or r17, r6\n"
 637              		"not r17, r17\n"
 638              		"addi 0x01, r17, r17\n"                              //Twos complement
 639              		"cmp r0, r17\n"
 640              		"bge _cam_y_ge_0\n"
 641              		"addi 359, r17, r17\n"
GAS LISTING /tmp/ccjfHZuC.s 			page 58


 642              		"_cam_y_ge_0:\n"
 643              		"shl 2, r17\n"
 644              		"mov r17, r18\n"
 645              		"add %[cosine], r18\n"
 646              		"ld.w 0x00[r18], r18\n"
 647              		"andi 0xFF, r18, r18\n"
 648              		"shl 24, r18\n"                                      //Move cosine y to 1st byte of r18
 649              		"mov r18, r9\n"                                      //Store cosine y to 1st byte of r9
 650              		
 651              		"mov r17, r18\n"
 652              		"add %[sine], r18\n"
 653              		"ld.w 0x00[r18], r18\n"
 654              		"andi 0xFF, r18, r18\n"
 655              		"shl 16, r18\n"                                      //Move sine y to 2nd byte of r18
 656              		"or r18, r9\n"                                       //Store sine y to 2nd byte of r9
 657              		/******************************
 658              		Camera cosine and sine of z axis
 659              		*******************************/
 660              		"camCosineSineZ:\n"
 661              		"ld.w 108[%[cam]], r17\n"
 662              		"or r17, r6\n"
 663              		"not r17, r17\n"
 664              		"addi 0x01, r17, r17\n"                              //Twos complement
 665              		"cmp r0, r17\n"
 666              		"bge _cam_z_ge_0\n"
 667              		"addi 359, r17, r17\n"                               //if z < 0 z = 359 + z
 668              		"_cam_z_ge_0:\n"
 669              		"shl 2, r17\n"
 670              		"mov r17, r18\n"
 671              		"add %[cosine], r18\n"
 672              		"ld.w 0x00[r18], r18\n"
 673              		"andi 0xFF, r18, r18\n"
 674              		"shl 8, r18\n"                                       //Move cosine z to 3rd byte of r18
 675              		"or r18, r9\n"                                       //Store cosine z to 3rd byte of r9
 676              		
 677              		"mov r17, r18\n"
 678              		"add %[sine], r18\n"
 679              		"ld.w 0x00[r18], r18\n"
 680              		"andi 0xFF, r18, r18\n"
 681              		"or r18, r9\n"                                       //Store sine z to 4th byte of r9
 682              		/*******************************
 683              		Load the objects world position
 684              		********************************/
 685              		"objLoadPosition:\n"
 686              		"ld.w 0[%[obj]], r10\n"                              //X coordinate
 687              		"ld.w 4[%[obj]], r11\n"                              //Y coordinate
 688              		"ld.w 8[%[obj]], r12\n"                              //Z coordinate
 689              		/*******************************
 690              		Load the x, y, and z camera position values
 691              		and make them their twos complement
 692              		********************************/
 693              		"camLoadPosition:\n"
 694              		"ld.w 0x00[%[cam]], r13\n"                           //X coordinate
 695              		"not r13, r13\n"
 696              		"addi 0x01, r13, r13\n"                              //Twos complement
 697              		"ld.w 0x04[%[cam]], r14\n"                           //Y coordinate
 698              		"not r14, r14\n"
GAS LISTING /tmp/ccjfHZuC.s 			page 59


 699              		"addi 0x01, r14, r14\n"
 700              		"ld.w 0x08[%[cam]], r15\n"                           //Z coordinate
 701              		"not r15, r15\n"
 702              		"addi 0x01, r15, r15\n"
 703              		/**********************************
 704              		Loop through all the vertices and perform
 705              		all the operations
 706              		***********************************/
 707              		"mov 2, r17\n"
 708              		"ldsr r17, sr24\n"                                   //Enable Caching
 709              		"_renderObjectTop:\n"                                //Top of loop
 710              		"cmp r0, %[vertices]\n"
 711              		"ble _verts_le_0\n"                                  //if vertices <= 0 quit
 712              		/**********************************
 713              		Get vertex
 714              		***********************************/
 715              		"objLoadVertex:\n"
 716              		"ld.w 0x00[%[objData]], r19\n"                       //X value
 717              		"ld.w 0x04[%[objData]], r20\n"                       //Y value
 718              		"ld.w 0x08[%[objData]], r21\n"                       //Z value
 719              		
 720              		"addi -3, %[vertices], %[vertices]\n"                //Subtract 3 from vertices for loop
 721              		/*******************************
 722              		Perform scaling
 723              		********************************/
 724              		"objScaling:\n"
 725              		"ld.w 120[%[obj]], r17\n"                            //X scale factor
 726              		"cmp %[fixNumUp1], r17\n"
 727              		"be _skip_scale_x\n"
 728              		"mul r17, r19\n"                                     //Scale x by factor
 729              		"sar %[fixShift], r19\n"
 730              		"_skip_scale_x:\n"
 731              		
 732              		"ld.w 124[%[obj]], r17\n"                            //Y scale factor
 733              		"cmp %[fixNumUp1], r17\n"
 734              		"be _skip_scale_y\n"
 735              		"mul r17, r20\n"                                     //Scale y by factor
 736              		"sar %[fixShift], r20\n"
 737              		"_skip_scale_y:\n"
 738              		
 739              		"ld.w 128[%[obj]], r17\n"                            //Z scale factor
 740              		"cmp %[fixNumUp1], r17\n"
 741              		"be _skip_scale_z\n"
 742              		"mul r17, r21\n"                                     //Scale z by factor
 743              		"sar %[fixShift], r21\n"
 744              		"_skip_scale_z:\n"
 745              		/******************************
 746              		Check rotation flag and skip code
 747              		if not needed
 748              		*******************************/
 749              		"cmp r0, r6\n"
 750              		"be _skip_obj_rot_z\n"
 751              		/**********************************
 752              		Perform rotation for x axis
 753              		***********************************/
 754              		"objXAxisRot:\n"
 755              		"mov r7, r17\n"
GAS LISTING /tmp/ccjfHZuC.s 			page 60


 756              		"sar 24, r17\n"                                      //Get cosine x axis
 757              		"mul r21, r17\n"                                     //z * cosine[degrees]
 758              		"sar %[fixShift], r17\n"                             //F_NUM_DN
 759              		
 760              		"mov r7, r18\n"
 761              		"shl 8, r18\n"
 762              		"sar 24, r18\n"                                      //Get sine x axis
 763              		"mul r20, r18\n"                                     //y * sine[degrees]
 764              		"sar %[fixShift], r18\n"                             //F_NUM_DN
 765              		"add r18, r17\n"                                     //r17 now contains new z value
 766              		
 767              		"mov r7, r18\n"
 768              		"shl 8, r18\n"
 769              		"sar 24, r18\n"                                      //Get sine x
 770              		"not r18, r18\n"
 771              		"addi 0x01, r18, r18\n"                              //-sine[degrees]
 772              		"mul r21, r18\n"                                     //z * -sine[degrees]
 773              		"sar %[fixShift], r18\n"                             //F_NUM_DN
 774              		
 775              		"mov r7, r22\n"
 776              		"sar 24, r22\n"                                      //Get cosine x
 777              		"mul r20, r22\n"                                     //y * cosine[degrees]
 778              		"sar %[fixShift], r22\n"                             //F_NUM_DN
 779              		"add r22, r18\n"                                     //r18 now contains new y value
 780              		
 781              		"mov r17, r21\n"                                     //Update z value
 782              		"mov r18, r20\n"                                     //Update y value
 783              		"_skip_obj_rot_x:\n"
 784              		/****************************
 785              		Perform rotation for y axis
 786              		*****************************/
 787              		"objYAxisRot:\n"
 788              		"mov r7, r17\n"
 789              		"shl 16, r17\n"
 790              		"sar 24, r17\n"                                      //Get cosine of y axis rotation
 791              		"mul r19, r17\n"                                     //x * cosine[degrees]
 792              		"sar %[fixShift], r17\n"                             //F_NUM_DN
 793              		
 794              		"mov r7, r18\n"
 795              		"shl 24, r18\n"
 796              		"sar 24, r18\n"
 797              		"mul r21, r18\n"
 798              		"sar %[fixShift], r18\n"
 799              		"add r18, r17\n"                                     //r17 now contains new value for x
 800              		
 801              		"mov r7, r18\n"                                      //Get the sine of degrees
 802              		"shl 24, r18\n"
 803              		"sar 24, r18\n"                                      //Sign extend sine
 804              		"not r18, r18\n"
 805              		"addi 0x01, r18, r18\n"                              //Two's complement of sine value
 806              		"mul r19, r18\n"                                     //x * -sine[degrees]
 807              		"sar %[fixShift], r18\n"                             //F_NUM_DN
 808              		
 809              		"mov r7, r22\n"
 810              		"shl 16, r22\n"
 811              		"sar 24, r22\n"                                      //Get cosine of y axis
 812              		"mul r21, r22\n"                                     //z * cosine[degrees]
GAS LISTING /tmp/ccjfHZuC.s 			page 61


 813              		"sar %[fixShift], r22\n"                             //F_NUM_DN
 814              		"add r22, r18\n"                                     //r18 now contains new z value
 815              		
 816              		"mov r17, r19\n"                                     //Update new x value
 817              		"mov r18, r21\n"                                     //Update new z value
 818              		"_skip_obj_rot_y:\n"
 819              		/***************************
 820              		Perform rotation for z axis
 821              		****************************/
 822              		"objZAxisRot:\n"
 823              		"mov r8, r17\n"
 824              		"sar 24, r17\n"                                      //Get cosine z axis
 825              		"mul r19, r17\n"                                     //x * cosine[degrees]
 826              		"sar %[fixShift], r17\n"                             //F_NUM_DN
 827              		
 828              		"mov r8, r18\n"
 829              		"shl 8, r18\n"
 830              		"sar 24, r18\n"                                      //Get sine z axis
 831              		"mul r20, r18\n"                                     //y * sine[degrees]
 832              		"sar %[fixShift], r18\n"                             //F_NUM_DN
 833              		"add r18, r17\n"                                     //r17 now contains new x value
 834              		
 835              		"mov r8, r18\n"
 836              		"shl 8, r18\n"
 837              		"sar 24, r18\n"                                      //Get sine of z
 838              		"not r18, r18\n"
 839              		"addi 0x01, r18, r18\n"                              //Two's complement
 840              		"mul r19, r18\n"                                     //x * -sine[degrees]
 841              		"sar %[fixShift], r18\n"                             //F_NUM_DN
 842              		
 843              		"mov r8, r22\n"
 844              		"sar 24, r22\n"                                      //Get cosine z
 845              		"mul r20, r22\n"                                     //y * cosine[degrees]
 846              		"sar %[fixShift], r22\n"                             //F_NUM_DN
 847              		"add r22, r18\n"                                     //r18 now contains new y value
 848              		
 849              		"mov r17, r19\n"                                     //Update x value
 850              		"mov r18, r20\n"                                     //Update y value
 851              		"_skip_obj_rot_z:\n"
 852              		/***********************
 853              		Translate object
 854              		************************/
 855              		"objTranslate:\n"
 856              		"add r10, r19\n"                                     //Add x
 857              		"add r11, r20\n"                                     //Add y
 858              		"add r12, r21\n"                                     //Add z
 859              		
 860              		"cmp r0, r6\n"
 861              		"be _skip_cam_rot_z\n"
 862              		/***************************
 863              		Camera rotation x axis
 864              		****************************/
 865              		"camRotXAxis:\n"
 866              		"mov r8, r17\n"
 867              		"shl 16, r17\n"                                      
 868              		"sar 24, r17\n"                                      //Get cosine x axis
 869              		"mul r21, r17\n"                                     //z * cosine[degrees]
GAS LISTING /tmp/ccjfHZuC.s 			page 62


 870              		"sar %[fixShift], r17\n"                             //F_NUM_DN
 871              		
 872              		"mov r8, r18\n"
 873              		"shl 24, r18\n"
 874              		"sar 24, r18\n"                                      //Get sine x axis
 875              		"mul r20, r18\n"                                     //y * sine[degrees]
 876              		"sar %[fixShift], r18\n"                             //F_NUM_DN
 877              		"add r18, r17\n"                                     //r17 now contains new z value
 878              		
 879              		"mov r8, r18\n"
 880              		"shl 24, r18\n"
 881              		"sar 24, r18\n"                                      //Get sine x
 882              		"not r18, r18\n"
 883              		"addi 0x01, r18, r18\n"                              //-sine[degrees]
 884              		"mul r21, r18\n"                                     //z * -sine[degrees]
 885              		"sar %[fixShift], r18\n"                             //F_NUM_DN
 886              		
 887              		"mov r8, r22\n"
 888              		"shl 16, r22\n"
 889              		"sar 24, r22\n"                                      //Get cosine x
 890              		"mul r20, r22\n"                                     //y * cosine[degrees]
 891              		"sar %[fixShift], r22\n"                             //F_NUM_DN
 892              		"add r22, r18\n"                                     //r18 now contains new y value
 893              		
 894              		"mov r17, r21\n"                                     //Update z value
 895              		"mov r18, r20\n"                                     //Update y value
 896              		"_skip_cam_rot_x:\n"
 897              		/***************************
 898              		Camera rotation y axis
 899              		****************************/
 900              		"camRotYAxis:\n"
 901              		"mov r9, r17\n"
 902              		"sar 24, r17\n"                                      //Get cosine of y axis rotation
 903              		"mul r19, r17\n"                                     //x * cosine[degrees]
 904              		"sar %[fixShift], r17\n"                             //F_NUM_DN
 905              		
 906              		"mov r9, r18\n"
 907              		"shl 8, r18\n"
 908              		"sar 24, r18\n"
 909              		"mul r21, r18\n"
 910              		"sar %[fixShift], r18\n"
 911              		"add r18, r17\n"                                     //r17 now contains new value for x
 912              		
 913              		"mov r9, r18\n"                                      //Get the sine of degrees
 914              		"shl 8, r18\n"
 915              		"sar 24, r18\n"                                      //Sign extend sine
 916              		"not r18, r18\n"
 917              		"addi 0x01, r18, r18\n"                              //Two's complement of sine value
 918              		"mul r19, r18\n"                                     //x * -sine[degrees]
 919              		"sar %[fixShift], r18\n"                             //F_NUM_DN
 920              		
 921              		"mov r9, r22\n"
 922              		"sar 24, r22\n"                                      //Get cosine of y axis
 923              		"mul r21, r22\n"                                     //z * cosine[degrees]
 924              		"sar %[fixShift], r22\n"                             //F_NUM_DN
 925              		"add r22, r18\n"                                     //r18 now contains new z value
 926              		
GAS LISTING /tmp/ccjfHZuC.s 			page 63


 927              		"mov r17, r19\n"                                     //Update new x value
 928              		"mov r18, r21\n"                                     //Update new z value
 929              		"_skip_cam_rot_y:\n"
 930              		/***************************
 931              		Camera rotation z axis
 932              		****************************/
 933              		"camRotZAxis:\n"
 934              		"mov r9, r17\n"
 935              		"shl 16, r17\n"
 936              		"sar 24, r17\n"                                      //Get cosine z axis
 937              		"mul r19, r17\n"                                     //x * cosine[degrees]
 938              		"sar %[fixShift], r17\n"                             //F_NUM_DN
 939              		
 940              		"mov r9, r18\n"
 941              		"shl 24, r18\n"
 942              		"sar 24, r18\n"                                      //Get sine z axis
 943              		"mul r20, r18\n"                                     //y * sine[degrees]
 944              		"sar %[fixShift], r18\n"                             //F_NUM_DN
 945              		"add r18, r17\n"                                     //r17 now contains new x value
 946              		
 947              		"mov r9, r18\n"
 948              		"shl 24, r18\n"
 949              		"sar 24, r18\n"                                      //Get sine of z
 950              		"not r18, r18\n"
 951              		"addi 0x01, r18, r18\n"                              //Two's complement
 952              		"mul r19, r18\n"                                     //x * -sine[degrees]
 953              		"sar %[fixShift], r18\n"                             //F_NUM_DN
 954              		
 955              		"mov r9, r22\n"
 956              		"shl 16, r22\n"
 957              		"sar 24, r22\n"                                      //Get cosine z
 958              		"mul r20, r22\n"                                     //y * cosine[degrees]
 959              		"sar %[fixShift], r22\n"                             //F_NUM_DN
 960              		"add r22, r18\n"                                     //r18 now contains new y value
 961              		
 962              		"mov r17, r19\n"                                     //Update x value
 963              		"mov r18, r20\n"                                     //Update y value
 964              		"_skip_cam_rot_z:\n"
 965              		/***************************
 966              		Camera translation
 967              		****************************/
 968              		"camTranslate:\n"
 969              		"add r13, r19\n"
 970              		"add r14, r20\n"
 971              		"add r15, r21\n"
 972              		/***************************
 973              		Update vertex values in vertex buffer
 974              		****************************/
 975              		"objUpdateVertex:\n"
 976              		"st.w r19, 0x00%[vertexBuff]\n"
 977              		"st.w r20, 0x04%[vertexBuff]\n"
 978              		"st.w r21, 0x08%[vertexBuff]\n"
 979              		
 980              		"addi 12, %[objData], %[objData]\n"                  //Add 12 to objData to point to next vertex
 981              		"addi 20, %[vertexBuff], %[vertexBuff]\n"            //Add 20 to vertexBuffer to point to next ope
 982              		/***************************
 983              		End of Loop
GAS LISTING /tmp/ccjfHZuC.s 			page 64


 984              		****************************/
 985              		"jr _renderObjectTop\n"                              //Continue looping	
 986              		"_verts_le_0:\n"                                     //End of loop
 987              		"ldsr r0, sr24\n"                                    //Disable Caching
 988              		:
 989              		:[obj]         "r" (o),
 990              		 [cam]         "r" (&cam),
 991              		 [cosine]      "r" ((s32*)cosine),
 992              		 [sine]        "r" ((s32*)sine),
 993              		 [vertices]    "r" (o->objData->vertexSize),
 994              		 [objData]     "r" (&o->objData->data),
 995              		 [idx]         "r" (0),
 996              		 [vertexBuff]  "r" (&vertexBuffer),
 997              		 [fixShift]    "i" (FIXED_SHIFT),
 998              		 [fixShiftM1]  "i" (FIXED_SHIFT-1),
 999              		 [fixNumUp1]   "i" (F_NUM_UP(1)),
 1000              		 [collCube]    "r" (&o->properties.hitCube),
 1001              		 [resetCube]   "m" (resetCube)
 1002              		:"r6","r7","r8","r9","r10","r11","r12","r13","r14","r15","r16","r17","r18","r19","r20","r21","r22"
 1003              		);
 1004              	#endif
 1005              	}
 1006              	
 1007              	/**********************
 1008              	Quick and dirty cube based
 1009              	collision detection.
 1010              	***********************/
 1011              	void inline g3d_detectCollision(vector3d* position1, collisionCube* c1, vector3d* position2, collis
 1012              		s32 c1minX, c1maxX,
 1013              		    c1minY, c1maxY,
 1014              			c1minZ, c1maxZ,
 1015              			c2minX, c2maxX,
 1016              			c2minY, c2maxY,
 1017              			c2minZ, c2maxZ;
 1018              	
 1019              		c1minX = position1->x - (c1->width >> 1);
 1020              		c1maxX = position1->x + (c1->width >> 1);
 1021              		c1minY = position1->y - (c1->height >> 1);
 1022              		c1maxY = position1->y + (c1->height >> 1);
 1023              		c1minZ = position1->z - (c1->depth >> 1);
 1024              		c1maxZ = position1->z + (c1->depth >> 1);
 1025              		
 1026              		c2minX = position2->x - (c2->width >> 1);
 1027              		c2maxX = position2->x + (c2->width >> 1);
 1028              		c2minY = position2->y - (c2->height >> 1);
 1029              		c2maxY = position2->y + (c2->height >> 1);
 1030              		c2minZ = position2->z - (c2->depth >> 1);
 1031              		c2maxZ = position2->z + (c2->depth >> 1);
 1032              		
 1033              		if(c1minX > c2maxX ||
 1034              		   c1minY > c2maxY ||
 1035              		   c1minZ > c2maxZ ||
 1036              		   c1maxX < c2minX ||
 1037              		   c1maxY < c2minY ||
 1038              		   c1maxZ < c2maxZ
 1039              		) return;
 1040              	
GAS LISTING /tmp/ccjfHZuC.s 			page 65


 1041              		//compare c1 against c2
 1042              		if(
 1043              			(c1minX >= c2minX && c1minX <= c2maxX) ||
 1044              			(c1maxX >= c2minX && c1maxX <= c2maxX)){
 1045              				if(
 1046              					(c1minY >= c2minY && c1minY <= c2maxY) ||
 1047              					(c1maxY >= c2minY && c1maxY <= c2maxY)) {
 1048              						if(
 1049              							(c1minZ >= c2minZ && c1minZ <= c2maxZ) ||
 1050              							(c1maxZ >= c2minZ && c1maxZ <= c2maxZ)){							
 1051              								*flag = 1;
 1052              						}
 1053              				}
 1054              		}
 1055              		//compare c2 against c1
 1056              		if(
 1057              			(c2minX >= c1minX && c2minX <= c1maxX) ||
 1058              			(c2maxX >= c1minX && c2maxX <= c1maxX)){
 1059              				if(
 1060              					(c2minY >= c1minY && c2minY <= c1maxY) ||
 1061              					(c2maxY >= c1minY && c2maxY <= c1maxY)) {
 1062              						if(
 1063              							(c2minZ >= c1minZ && c2minZ <= c1maxZ) ||
 1064              							(c2maxZ >= c1minZ && c2maxZ <= c1maxZ)){
 1065              								*flag = 1;
 1066              						}
 1067              				}
 1068              		}
 1069              	}
 1070              	
 1071              	/************************************
 1072              	Cheap little object clipping function.
 1073              	If the center of the object is off the
 1074              	screen we'll clip it.
 1075              	*************************************/
 1076              	void inline g3d_clipObject(object* o){
 1077              		vector3d worldTemp, worldOrig;
 1078              		
 1079              		worldOrig.x = o->worldPosition.x;
 1080              		worldOrig.y = o->worldPosition.y;
 1081              		worldOrig.z = o->worldPosition.z;
 1082              		
 1083              		g3d_cameraTranslate(cam.worldPosition.x,cam.worldPosition.y,cam.worldPosition.z,&worldOrig,&worldT
 1084              		g3d_copyVector3d(&worldTemp,&worldOrig);
 1085              		
 1086              		if(cam.worldRotation.x != 0 || cam.worldRotation.y != 0 || cam.worldRotation.z != 0){			
 1087              			g3d_cameraRotateAllAxis(cam.worldRotation.x,cam.worldRotation.y,cam.worldRotation.z,&worldOrig,&w
 1088              			g3d_copyVector3d(&worldTemp,&worldOrig);
 1089              		}
 1090              		
 1091              		g3d_calculateProjection(&worldOrig);
 1092              		o->properties.clip = 0;
 1093              		if(worldOrig.sx < 0 || worldOrig.sx > SCREEN_WIDTH) o->properties.clip = 1;
 1094              		if(worldOrig.sy < -SCREEN_HEIGHT || worldOrig.sy > (SCREEN_HEIGHT<<1)) o->properties.clip = 1;
 1095              		if(worldOrig.z < (cam.d>>1) || worldOrig.z > FAR_Z) o->properties.clip = 1;
 1096              	}
 1097              	
GAS LISTING /tmp/ccjfHZuC.s 			page 66


 1098              	/*************************************
 1099              	Clips the z axis of the vectors if needed
 1100              	We are going to break up the line into equal
 1101              	pieces. We'll determine which piece the
 1102              	camera is closest to and clip the line
 1103              	to the closest piece. Not an exact science
 1104              	but should be ok for general purposes.
 1105              	This function needs performed before the
 1106              	projection calculation occurs.
 1107              	**************************************/
 1108              	void inline g3d_clipZAxis(vector3d* v1, vector3d* v2){
 1109              		s32 fracz,fracx,fracy,diff,mult;
 1110              		vector3d* minV;
 1111              		vector3d* maxV;
 1112              		
 1113              		if(v1->z > cam.d && v2->z > cam.d) return;
 1114              		if(v1->z < cam.d && v2->z < cam.d) return;
 1115              		
 1116              		/****************
 1117              		Calculate 8 positions between the two z points and
 1118              		determine which position the camera is closest to
 1119              		*****************/
 1120              		if(v1->z < cam.d) {
 1121              			minV = v1;
 1122              			maxV = v2;
 1123              		}else {
 1124              			minV = v2;
 1125              			maxV = v1;
 1126              		}
 1127              		fracz = (maxV->z - minV->z) >> 4;	
 1128              		//Get the fractional x portion
 1129              		fracx = (maxV->x - minV->x) >> 4;
 1130              		//Do same thing with y as we did with x
 1131              		fracy = (maxV->y - minV->y) >> 4;
 1132              		//Get the difference or length of the z axis line
 1133              		//From the minimum z value to the camara depth position
 1134              		diff = cam.d - minV->z;
 1135              		//Determine how many fractional portions there are
 1136              		//and set our multiplier. Division is 36 clock cycles
 1137              		//so it should be less expensive to just loop and subtract under most circumstances
 1138              		if(fracz > 0){
 1139              			while(diff > 0){
 1140              				diff -= fracz;
 1141              				mult++;
 1142              			}
 1143              			if(mult > 0)mult--;//The while loop always makes the mulitiplier one more than needed
 1144              		}
 1145              		
 1146              		minV->z = cam.d;
 1147              		//Set new x value	
 1148              		minV->x += (fracx * mult);
 1149              		//Set new y value
 1150              		minV->y += (fracy * mult);
 1151              	}
 1152              	
 1153              	/*******************************
 1154              	Draws a pixel onto the screen
GAS LISTING /tmp/ccjfHZuC.s 			page 67


 1155              	*******************************/
 1156              	void inline g3d_drawPoint(s32 x, s32 y, u8 color, s32 p){
 1157              		s32 loffset,roffset;
 1158              		u8 yleft;
 1159              	
 1160              		if(y<0 || y>SCREEN_HEIGHT) return;
 1161              		if(x<0 || x>SCREEN_WIDTH) return;
 1162              		
 1163              		//Put a cap on parallax
 1164              		if(p>PARALLAX_MAX) p=PARALLAX_MAX;
 1165              		
 1166              		loffset = (((x-p)<<4) + (y>>4));
 1167              		roffset = (loffset + (p<<5));
 1168              		
 1169              		if(loffset>0x1800 || loffset<0) return;
 1170              		if(roffset>0x1800 || roffset<0) return;
 1171              		
 1172              		color &= 0x03;
 1173              		
 1174              		yleft = (y&0x0F)<<1;
 1175              	
 1176              		currentFrameBuffer[loffset] |= (color<<yleft);
 1177              		((u32*)(currentFrameBuffer+0x4000))[roffset] |= (color<<yleft);
 1178              	}
 1179              	
 1180              	/*******************************
 1181              	My Line Algorithm (Brezenham based)
 1182              	*******************************/
 1183              	void /*__attribute__((section(".data")))*/ g3d_drawLine(vector3d* v1, vector3d* v2, u8 color){
 1184              		s32 vx,vy,vz,vx2,vy2;
 1185              		s32 dx, dy, dz;
 1186              		s32 sx,sy,sz,pixels,err;
 1187              		#ifdef __ASM_CODE
 1188              		s32 loffset,roffset;
 1189              		u8 yleft;
 1190              		#else
 1191              		s32 p;
 1192              		#endif
 1193              		
 1194              		vx = v1->sx;
 1195              		vy = v1->sy;
 1196              		vx2 = v2->sx;
 1197              		vy2 = v2->sy;
 1198              		
 1199              		dx=(~(vx - vx2)+1);
 1200              		dy=(~(vy - vy2)+1);
 1201              		dz=(~(F_NUM_DN(F_SUB(v1->z,v2->z))+1));
 1202              		//dz=(~(F_NUM_DN(F_SUB(vz,vz2))+1));
 1203              		
 1204              		sx=(dx<0)?(-1):(1);
 1205              		sy=(dy<0)?(-1):(1);
 1206              		sz=(dz<0)?(-1):(1);
 1207              		
 1208              		if(dx<0) dx=(~dx)+1;
 1209              		if(dy<0) dy=(~dy)+1;
 1210              		if(dz<0) dz=(~dz)+1;
 1211              		
GAS LISTING /tmp/ccjfHZuC.s 			page 68


 1212              		pixels=((dx>dy)?(dx):(dy))+1;
 1213              		vz = v1->z;
 1214 197c E241     		_CacheEnable
 1215 197e F871     		#ifndef __ASM_CODE
 1216              		if(dy<dx){
 2560              		mov 2,r15 
 2561              	 ldsr r15,sr24
 2562              	# 0 "" 2
 2563              	#NO_APP
 2564 1980 CD0D     		cmp r13,r14
 2565 1982 B08E     		ble .L311
 2566 1984 C00D     		cmp r0,r14
 2567 1986 0684     		be .L312
 2568 1988 EE01     		mov r14,r15
 2569 198a 048A     		br .L313
 2570              	.L312:
 2571 198c E141     		mov 1,r15
 2572              	.L313:
 2573 198e 4352     		shl 3,r18
 2574 1990 4F26     		div r15,r18
 2575 1992 F220     		mul r18,r7
 2576 1994 C00C     		cmp r0,r6
 2577 1996 069E     		bgt .+6
 2578 1998 00A84601 		jr .L314
 2579 199c EE01     		mov r14,r15
 2580 199e E15D     		sar 1,r15
 2581 19a0 C040     		mov 0,r6
 2582 19a2 A0A3C400 		movea lo(196),r0,r29
 2583 19a6 80A34001 		movea lo(320),r0,r28
 2584 19aa 40A31400 		movea lo(20),r0,r26
 2585 19ae 60A30018 		movea lo(6144),r0,r27
 2586 19b2 A0BC0000 		movhi hi(_currentFrameBuffer),r0,r5
 2587 19b6 A5A00000 		movea lo(_currentFrameBuffer),r5,r5
 2588 19ba 08B50300 		andi 3,r8,r8
 2589              	.L318:
 2590 19be 5D0D     		cmp r29,r10
 2591 19c0 5C96     		bh .L315
 2592 19c2 7C0D     		cmp r28,r11
 2593 19c4 5896     		bh .L315
 2594 19c6 2C01     		mov r12,r9
 2595 19c8 2B5D     		sar 11,r9
 2596 19ca 3A0D     		cmp r26,r9
 2597 19cc 048E     		ble .L316
 2598 19ce 3A01     		mov r26,r9
 2599              	.L316:
 2600 19d0 EB03     		mov r11,r31
 2601 19d2 E90B     		sub r9,r31
 2602 19d4 E453     		shl 4,r31
 2603 19d6 4A02     		mov r10,r18
 2604 19d8 445E     		sar 4,r18
 2605 19da F207     		add r18,r31
 2606 19dc 5F02     		mov r31,r18
 2607 19de FB0F     		cmp r27,r31
 2608 19e0 3C96     		bh .L315
 2609 19e2 2551     		shl 5,r9
 2610 19e4 E907     		add r9,r31
 2611 19e6 FB0F     		cmp r27,r31
GAS LISTING /tmp/ccjfHZuC.s 			page 69


 2612 19e8 3496     		bh .L315
 2613 19ea 4252     		shl 2,r18
 2614 19ec 25CD0000 		ld.w 0[r5],r9
 2615 19f0 4906     		add r9,r18
 2616 19f2 2A03     		mov r10,r25
 2617 19f4 2153     		shl 1,r25
 2618 19f6 2801     		mov r8,r9
 2619 19f8 3911     		shl r25,r9
 2620 19fa 2903     		mov r9,r25
 2621 19fc 32CD0000 		ld.w 0[r18],r9
 2622 1a00 3931     		or r25,r9
 2623 1a02 32DD0000 		st.w r9,0[r18]
 2624 1a06 FFA70040 		addi 16384,r31,r31
 2625 1a0a E253     		shl 2,r31
 2626 1a0c 45CE0000 		ld.w 0[r5],r18
 2627 1a10 F207     		add r18,r31
 2628 1a12 5FCE0000 		ld.w 0[r31],r18
 2629 1a16 3233     		or r18,r25
 2630 1a18 3FDF0000 		st.w r25,0[r31]
 2631              	.L315:
 2632 1a1c ED05     		add r13,r15
 2633 1a1e CF0D     		cmp r15,r14
 2634 1a20 069C     		bge .L317
 2635 1a22 5005     		add r16,r10
 2636 1a24 EE09     		sub r14,r15
 2637              	.L317:
 2638 1a26 D30C     		cmp r19,r6
 2639 1a28 B684     		be .L314
 2640 1a2a 8705     		add r7,r12
 2641 1a2c 7105     		add r17,r11
 2642 1a2e C144     		add 1,r6
 2643 1a30 8E8B     		br .L318
 2644              	.L311:
 2645 1a32 A00D     		cmp r0,r13
 2646 1a34 0684     		be .L319
 2647 1a36 ED01     		mov r13,r15
 2648 1a38 048A     		br .L320
 2649              	.L319:
 2650 1a3a E141     		mov 1,r15
 2651              	.L320:
 2652 1a3c 4352     		shl 3,r18
 2653 1a3e 4F26     		div r15,r18
 2654 1a40 F220     		mul r18,r7
 2655 1a42 C00C     		cmp r0,r6
 2656 1a44 9A8E     		ble .L314
 2657 1a46 ED01     		mov r13,r15
 2658 1a48 E15D     		sar 1,r15
 2659 1a4a C040     		mov 0,r6
 2660 1a4c A0A3C400 		movea lo(196),r0,r29
 2661 1a50 80A34001 		movea lo(320),r0,r28
 2662 1a54 40A31400 		movea lo(20),r0,r26
 2663 1a58 60A30018 		movea lo(6144),r0,r27
 2664 1a5c 20BF0000 		movhi hi(_currentFrameBuffer),r0,r25
 2665 1a60 39A30000 		movea lo(_currentFrameBuffer),r25,r25
 2666 1a64 08B50300 		andi 3,r8,r8
 2667              	.L324:
 2668 1a68 2A01     		mov r10,r9
GAS LISTING /tmp/ccjfHZuC.s 			page 70


 2669 1a6a 5D0D     		cmp r29,r10
 2670 1a6c 5A96     		bh .L321
 2671 1a6e 7C0D     		cmp r28,r11
 2672 1a70 5696     		bh .L321
 2673 1a72 EC03     		mov r12,r31
 2674 1a74 EB5F     		sar 11,r31
 2675 1a76 FA0F     		cmp r26,r31
 2676 1a78 048E     		ble .L322
 2677 1a7a FA03     		mov r26,r31
 2678              	.L322:
 2679 1a7c AB00     		mov r11,r5
 2680 1a7e BF08     		sub r31,r5
 2681 1a80 A450     		shl 4,r5
 2682 1a82 4A02     		mov r10,r18
 2683 1a84 445E     		sar 4,r18
 2684 1a86 B204     		add r18,r5
 2685 1a88 4502     		mov r5,r18
 2686 1a8a BB0C     		cmp r27,r5
 2687 1a8c 3A96     		bh .L321
 2688 1a8e E553     		shl 5,r31
 2689 1a90 BF04     		add r31,r5
 2690 1a92 BB0C     		cmp r27,r5
 2691 1a94 3296     		bh .L321
 2692 1a96 4252     		shl 2,r18
 2693 1a98 F9CF0000 		ld.w 0[r25],r31
 2694 1a9c 5F06     		add r31,r18
 2695 1a9e 4151     		shl 1,r10
 2696 1aa0 E803     		mov r8,r31
 2697 1aa2 EA13     		shl r10,r31
 2698 1aa4 5F01     		mov r31,r10
 2699 1aa6 F2CF0000 		ld.w 0[r18],r31
 2700 1aaa EA33     		or r10,r31
 2701 1aac F2DF0000 		st.w r31,0[r18]
 2702 1ab0 A5A40040 		addi 16384,r5,r5
 2703 1ab4 A250     		shl 2,r5
 2704 1ab6 59CE0000 		ld.w 0[r25],r18
 2705 1aba B204     		add r18,r5
 2706 1abc 45CE0000 		ld.w 0[r5],r18
 2707 1ac0 5231     		or r18,r10
 2708 1ac2 45DD0000 		st.w r10,0[r5]
 2709              	.L321:
 2710 1ac6 EE05     		add r14,r15
 2711 1ac8 AF0D     		cmp r15,r13
 2712 1aca 069C     		bge .L323
 2713 1acc 7105     		add r17,r11
 2714 1ace ED09     		sub r13,r15
 2715              	.L323:
 2716 1ad0 D30C     		cmp r19,r6
 2717 1ad2 0C84     		be .L314
 2718 1ad4 8705     		add r7,r12
 2719 1ad6 4901     		mov r9,r10
 2720 1ad8 5005     		add r16,r10
 2721 1ada C144     		add 1,r6
 2722 1adc 8C8B     		br .L324
 2723              	.L314:
 2724              	#APP
 2725              	# 1505 "G3d.c" 1
GAS LISTING /tmp/ccjfHZuC.s 			page 71


 1217              			err=(dx>>1);
 1218              			sz=(sz)*(F_NUM_UP(dz)/((dx==0)?(1):(dx)));
 1219              			for(p=0;p<pixels;p++){
 1220              				g3d_drawPoint(vx,vy,color,(F_NUM_DN(vz)>>PARALLAX_SHIFT));			
 1221              				err+=dy;
 1222              				if(err>dx){
 1223              					vy+=sy;
 1224              					err-=dx;
 1225              				}
 1226              				vz+=sz;
 1227              				vx+=sx;
 1228              			}
 1229              		}else{
 1230              			err=(dy>>1);
 1231              			sz=(sz)*(F_NUM_UP(dz)/((dy==0)?(1):(dy)));
 1232              			for(p=0;p<pixels;p++){
 1233              				g3d_drawPoint(vx,vy,color,(F_NUM_DN(vz)>>PARALLAX_SHIFT));
 1234              				err+=dx;
 1235              				if(err>dy){
 1236              					vx+=sx;
 1237              					err-=dy;
 1238              				}
 1239              				vz+=sz;
 1240              				vy+=sy;
 1241              			}
 1242              		}
 1243              		#else
 1244              		//The VB only runs at 20Mhz but it has 30 registers.
 1245              		//Lets use em all and squeeze out as much processing speed as possible.
 1246              		asm volatile(
 1247              		//Setup all the registers with initial values
 1248              		//r28,r29 are scratch for our purposes
 1249              		"ld.w %[dy],                r6\n"
 1250              		"ld.w %[dx],                r7\n"
 1251              		"ld.w %[err],               r8\n"
 1252              		"ld.w %[sz],                r9\n"
 1253              		"ld.w %[dz],                r10\n"
 1254              		"ld.w %[pixels],            r11\n"
 1255              		"ld.w %[vy],                r12\n"
 1256              		"ld.w %[sy],                r13\n"
 1257              		"ld.w %[vz],                r14\n"
 1258              		"ld.w %[vx],                r15\n"
 1259              		"ld.w %[sx],                r16\n"
 1260              		"ld.w %[loffset],           r17\n"
 1261              		"ld.w %[roffset],           r18\n"
 1262              		"ld.b %[yleft],             r19\n"
 1263              		"movea %[screenH],          r0,         r21\n"
 1264              		"movea %[screenW],          r0,         r22\n"
 1265              		"movea %[parallaxM],        r0,         r23\n"
 1266              		"ld.w %[fbLeft],            r24\n"
 1267              		"movea %[fbRightOff],       r0,         r25\n"
 1268              		"shl 0x02,                  r25\n"
 1269              		//if(dy<dx){
 1270              		"cmp r6,                    r7\n"
 1271              		"ble _dxltdy\n"
 1272              		//err=(dx>>1);
 1273              		"mov r7,                    r8\n"
GAS LISTING /tmp/ccjfHZuC.s 			page 72


 1274              		"sar 0x01,                  r8\n"
 1275              		//sz=(sz)*(F_NUM_UP(dz)/((dx==0)?(1):(dx)));
 1276              		"mov r7,                    r28\n"
 1277              		"cmp r0,                    r7\n"
 1278              		"bne _nextLine1\n"
 1279              		"mov 0x01,                  r28\n"
 1280              		"_nextLine1:\n"
 1281              		"mov r10,                   r29\n"
 1282              		"shl %[fixedShift],         r29\n"
 1283              		"div r28,                   r29\n"
 1284              		"mul r29,                   r9\n"
 1285              		//for(p=0;p<pixels;p++){
 1286              		"_lineLoop1Top:\n"
 1287              		"cmp r0,                    r11\n"
 1288              		"ble _lineLoop1End\n"
 1289              		"addi -1,                   r11,        r11\n"
 1290              		//drawPoint(vx,vy,color,(F_NUM_DN(vz)>>PARALLAX_SHIFT));
 1291              		//******************************************************
 1292              		"ld.b %[color],             r27\n"
 1293              		"mov r14,                   r26\n"
 1294              		"sar %[fixedShift],         r26\n"
 1295              		"sar %[parallaxShift],      r26\n"
 1296              		//if(y<0 || y>SCREEN_HEIGHT) return;
 1297              		"cmp r0,                    r12\n"
 1298              		"blt _endDrawPoint1\n"
 1299              		"cmp r12,                   r21\n"
 1300              		"blt _endDrawPoint1\n"
 1301              		//if(x<0 || x>SCREEN_WIDTH) return;
 1302              		"cmp r0,                    r15\n"
 1303              		"blt _endDrawPoint1\n"
 1304              		"cmp r15,                   r22\n"
 1305              		"blt _endDrawPoint1\n"
 1306              		//if(p>PARALLAX_MAX) p=PARALLAX_MAX;
 1307              			//"and r23,r26\n"
 1308              		"cmp r26,                   r23\n"
 1309              		"bgt _nextPoint1\n"
 1310              		"mov r23,                   r26\n"
 1311              		"_nextPoint1:\n"
 1312              		//loffset = (((x-p)<<4) + (y>>4));
 1313              		"mov r12,                   r17\n"
 1314              		"sar 0x04,                  r17\n"
 1315              		"mov r15,                   r28\n"
 1316              		"sub r26,                   r28\n"
 1317              		"shl 0x04,                  r28\n"
 1318              		"add r28,                   r17\n"
 1319              		//roffset = (loffset + (p<<5));	
 1320              		"mov r26,                   r18\n"
 1321              		"shl 0x05,                  r18\n"
 1322              		"add r17,                   r18\n"
 1323              		//if(loffset>0x1800 || loffset<0) return;		
 1324              		"movea 0x17FF,              r0,        r28\n"
 1325              		"cmp r28,                   r17\n"
 1326              		"bge _endDrawPoint1\n"
 1327              		"cmp r0,                    r17\n"
 1328              		"blt _endDrawPoint1\n"
 1329              		//if(roffset>0x1800 || roffset<0) return;
 1330              			//"movea 0x17FF,r0,r28\n"
GAS LISTING /tmp/ccjfHZuC.s 			page 73


 1331              		"cmp r28,                   r18\n"
 1332              		"bge _endDrawPoint1\n"
 1333              		"cmp r0,                    r18\n"
 1334              		"blt _endDrawPoint1\n"
 1335              		//color &= 0x03;
 1336              		"andi 0x03,                 r27,       r27\n"
 1337              		//yleft = (y&0x0F)<<1;
 1338              		"andi 0x0F,                 r12,       r19\n"
 1339              		"shl 0x01,                  r19\n"
 1340              		//currentFrameBuffer[loffset] |= (color<<yleft);
 1341              		"mov r17,                   r28\n"
 1342              		"shl 0x02,                  r28\n"
 1343              		"add r24,                   r28\n"
 1344              		"ld.w 0x0[r28],             r29\n"
 1345              		"shl r19,                   r27\n"
 1346              		"or r27,                    r29\n"
 1347              		"st.w r29,                  0x0[r28]\n"
 1348              		//((u32*)(currentFrameBuffer+0x4000))[roffset] |= (color<<yleft);
 1349              			//"movhi 0x01,r28,r28\n"
 1350              			//"add r18,r28\n"
 1351              			//"st.w r29,0x0[r28]\n"
 1352              	
 1353              		"mov r18,                   r28\n"
 1354              		"shl 0x02,                  r28\n"
 1355              		"add r25,                   r28\n"
 1356              		"add r24,                   r28\n"
 1357              		"ld.w 0x0[r28],             r29\n"
 1358              		"or r27,                    r29\n"
 1359              		"st.w r29,                  0x0[r28]\n"
 1360              	
 1361              		"_endDrawPoint1:\n"
 1362              		//******************************************************
 1363              		//err+=dy;
 1364              		"add r6,                    r8\n"
 1365              		//if(err>dx){
 1366              		"cmp r8,                    r7\n"
 1367              		"bgt _nextLine2\n"
 1368              		//vy+=sy;
 1369              		"add r13,                   r12\n"
 1370              		//err-=dx;
 1371              		"sub r7,                    r8\n"
 1372              		//}
 1373              		"_nextLine2:\n"		
 1374              		//vz+=sz;
 1375              		"add r9,                    r14\n"
 1376              		//vx+=sx;
 1377              		"add r16,                   r15\n"
 1378              		//}
 1379              		"jr _lineLoop1Top\n"
 1380              		"_lineLoop1End:\n"
 1381              		//else{
 1382              		"_dxltdy:\n"
 1383              		//err=(dy>>1);
 1384              		"mov r6,                    r8\n"
 1385              		"sar 0x01,                  r8\n"
 1386              		//sz=(sz)*(F_NUM_UP(dz)/((dy==0)?(1):(dy)));
 1387              		"mov r6,                    r28\n"
GAS LISTING /tmp/ccjfHZuC.s 			page 74


 1388              		"cmp r0,                    r6\n"
 1389              		"bne _nextLine3\n"
 1390              		"mov 0x01,                  r28\n"
 1391              		"_nextLine3:\n"
 1392              		"mov r10,                   r29\n"
 1393              		"shl %[fixedShift],         r29\n"
 1394              		"div r28,                   r29\n"
 1395              		"mul r29,                   r9\n"
 1396              		//for(p=0;p<pixels;p++){
 1397              		"_lineLoop2Top:\n"
 1398              		"cmp r0,                    r11\n"
 1399              		"ble _lineLoop2End\n"
 1400              		"addi -1,                   r11,      r11\n"
 1401              		//drawPoint(vx,vy,color,(F_NUM_DN(vz)>>PARALLAX_SHIFT));
 1402              		//******************************************************
 1403              		"ld.b %[color],             r27\n"
 1404              		"mov r14,                   r26\n"
 1405              		"sar %[fixedShift],         r26\n"
 1406              		"sar %[parallaxShift],      r26\n"
 1407              		//if(y<0 || y>SCREEN_HEIGHT) return;
 1408              		"cmp r0,                    r12\n"
 1409              		"blt _endDrawPoint2\n"
 1410              		"cmp r12,                   r21\n"
 1411              		"blt _endDrawPoint2\n"
 1412              		//if(x<0 || x>SCREEN_WIDTH) return;
 1413              		"cmp r0,                    r15\n"
 1414              		"blt _endDrawPoint2\n"
 1415              		"cmp r15,                   r22\n"
 1416              		"blt _endDrawPoint2\n"
 1417              		//if(p>PARALLAX_MAX) p=PARALLAX_MAX;
 1418              			//"and r23,r26\n"
 1419              		"cmp r26,                   r23\n"
 1420              		"bgt _nextPoint2\n"
 1421              		"mov r23,                   r26\n"
 1422              		"_nextPoint2:\n"
 1423              		//loffset = (((x-p)<<4) + (y>>4));
 1424              		"mov r12,                   r17\n"
 1425              		"sar 0x04,                  r17\n"
 1426              		"mov r15,                   r28\n"
 1427              		"sub r26,                   r28\n"
 1428              		"shl 0x04,                  r28\n"
 1429              		"add r28,                   r17\n"
 1430              		//roffset = (loffset + (p<<5));	
 1431              		"mov r26,                   r18\n"
 1432              		"shl 0x05,                  r18\n"
 1433              		"add r17,                   r18\n"
 1434              		//if(loffset>0x1800 || loffset<0) return;
 1435              		"movea 0x1800,              r0,       r28\n"
 1436              		"cmp r28,                   r17\n"
 1437              		"bge _endDrawPoint2\n"
 1438              		"cmp r0,                    r17\n"
 1439              		"blt _endDrawPoint2\n"
 1440              		//if(roffset>0x1800 || roffset<0) return;
 1441              		"movea 0x1800,              r0,       r28\n"
 1442              		"cmp r28,                   r18\n"
 1443              		"bge _endDrawPoint2\n"
 1444              		"cmp r0,                    r18\n"
GAS LISTING /tmp/ccjfHZuC.s 			page 75


 1445              		"blt _endDrawPoint2\n"
 1446              		//color &= 0x03;
 1447              		"andi 0x03,                 r27,      r27\n"
 1448              		//yleft = (y&0x0F)<<1;
 1449              		"andi 0x0F,                 r12,      r19\n"
 1450              		"shl 0x01,                  r19\n"
 1451              		//currentFrameBuffer[loffset] |= (color<<yleft);
 1452              		"mov r17,                   r28\n"
 1453              		"shl 0x02,                  r28\n"
 1454              		"add r24,                   r28\n"
 1455              		"ld.w 0x0[r28],             r29\n"
 1456              		"shl r19,                   r27\n"
 1457              		"or r27,                    r29\n"
 1458              		"st.w r29,                  0x0[r28]\n"
 1459              		//((u32*)(currentFrameBuffer+0x4000))[roffset] |= (color<<yleft);
 1460              			//"movhi 0x01,r28,r28\n"
 1461              			//"add r18,r28\n"
 1462              			//"st.w r29,0x0[r28]\n"
 1463              	
 1464              		"mov r18,                   r28\n"
 1465              		"shl 0x02,                  r28\n"
 1466              		"add r25,                   r28\n"
 1467              		"add r24,                   r28\n"
 1468              		"ld.w 0x0[r28],             r29\n"
 1469              		"or r27,                    r29\n"
 1470              		"st.w r29,                  0x0[r28]\n"
 1471              	
 1472              		"_endDrawPoint2:\n"
 1473              		//******************************************************
 1474              		//err+=dx;
 1475              		"add r7,                    r8\n"
 1476              		//if(err>dy){
 1477              		"cmp r8,                    r6\n"
 1478              		"bgt _nextLine4\n"
 1479              		//vx+=sx;
 1480              		"add r16,                   r15\n"
 1481              		//err-=dy;
 1482              		"sub r6,                    r8\n"
 1483              		//}
 1484              		"_nextLine4:\n"
 1485              		//vz+=sz;
 1486              		"add r9,                    r14\n"
 1487              		//vy+=sy;
 1488              		"add r13,                   r12\n"
 1489              		//}
 1490              		"jr _lineLoop2Top\n"
 1491              		"_lineLoop2End:\n"
 1492              		"_end:\n"
 1493              		:/*no output*/
 1494              		:[dy]            "m" (dy)                , [dx]         "m" (dx)          , [err]        "m" (err)
 1495              		 [sz]            "m" (sz)                , [dz]         "m" (dz)          , [pixels]     "m" (pixe
 1496              		 [vy]            "m" (vy)                , [sy]         "m" (sy)          , [vz]         "m" (vz),
 1497              		 [vx]            "m" (vx)                , [sx]         "m" (sx)          , [fixedShift] "i" (FIXE
 1498              		 [loffset]       "m" (loffset)           , [roffset]    "m" (roffset)     , [yleft]      "m" (ylef
 1499              		 [screenH]       "i" (SCREEN_HEIGHT)     , [screenW]    "i" (SCREEN_WIDTH), [parallaxM]  "i" (PARA
 1500              		 [fbLeft]        "m" (currentFrameBuffer), [fbRightOff] "i" (0x4000)      , [color]      "m" (colo
 1501              		 [parallaxShift] "i" (PARALLAX_SHIFT)
GAS LISTING /tmp/ccjfHZuC.s 			page 76


 1502              		 :"r6","r7","r8","r9","r10","r11","r12","r13","r14","r15","r16","r17","r18","r19","r21","r22","r23
 1503              		);
 1504              		#endif
 1505 1ade 1870     		_CacheDisable
 1506              	}
 2726              		ldsr r0,sr24
 2727              	# 0 "" 2
 2728              	#NO_APP
 2729 1ae0 7044     		add -16,sp
 2730 1ae2 00A80000 		jr __return_r25_r31
 2731              		.size	_g3d_drawLine, .-_g3d_drawLine
 2732 1ae6 0000     		.align 2
 2733              		.global _drawCrossHairs
 2734              		.type	_drawCrossHairs, @function
 2735              	_drawCrossHairs:
 2736 1ae8 5F01     		mov r31,r10
 2737 1aea 00AC0000 		jal __save_r27_r31
 2738 1aee 63A4D8FF 		addi -40,sp,sp
 2739 1af2 46CD0C00 		ld.w 12[r6],r10
 2740 1af6 66CD1000 		ld.w 16[r6],r11
 2741 1afa 03DC2C00 		st.w r0,44[sp]
 2742 1afe 03DC1800 		st.w r0,24[sp]
 2743 1b02 6A45     		add 10,r11
 2744 1b04 63DD3400 		st.w r11,52[sp]
 2745 1b08 63DD2000 		st.w r11,32[sp]
 2746 1b0c 6AA5F8FF 		addi -8,r10,r11
 2747 1b10 63DD3000 		st.w r11,48[sp]
 2748 1b14 4845     		add 8,r10
 2749 1b16 43DD1C00 		st.w r10,28[sp]
 2750 1b1a A3A72400 		addi 36,sp,r29
 2751 1b1e 83A71000 		addi 16,sp,r28
 2752 1b22 DD00     		mov r29,r6
 2753 1b24 FC00     		mov r28,r7
 2754 1b26 0141     		mov 1,r8
 2755 1b28 60BF0000 		movhi hi(_g3d_drawLine),r0,r27
 2756 1b2c 7BA30000 		movea lo(_g3d_drawLine),r27,r27
 2757 1b30 00AC0400 		jal .+4
 2758 1b34 E447     		add 4,r31
 2759 1b36 1B18     		jmp r27
 2760 1b38 43CD3400 		ld.w 52[sp],r10
 2761 1b3c 4AA5ECFF 		addi -20,r10,r10
 2762 1b40 43DD3400 		st.w r10,52[sp]
 2763 1b44 43CD2000 		ld.w 32[sp],r10
 2764 1b48 4AA5ECFF 		addi -20,r10,r10
 2765 1b4c 43DD2000 		st.w r10,32[sp]
 2766 1b50 DD00     		mov r29,r6
 2767 1b52 FC00     		mov r28,r7
 2768 1b54 0141     		mov 1,r8
 2769 1b56 00AC0400 		jal .+4
 2770 1b5a E447     		add 4,r31
 2771 1b5c 1B18     		jmp r27
 2772 1b5e 43CD3000 		ld.w 48[sp],r10
 2773 1b62 4345     		add 3,r10
 2774 1b64 43DD3000 		st.w r10,48[sp]
 2775 1b68 43CD1C00 		ld.w 28[sp],r10
 2776 1b6c 5D45     		add -3,r10
 2777 1b6e 43DD1C00 		st.w r10,28[sp]
GAS LISTING /tmp/ccjfHZuC.s 			page 77


 2778 1b72 43CD3400 		ld.w 52[sp],r10
 2779 1b76 4345     		add 3,r10
 2780 1b78 43DD3400 		st.w r10,52[sp]
 2781 1b7c 43CD2000 		ld.w 32[sp],r10
 2782 1b80 4345     		add 3,r10
 2783 1b82 43DD2000 		st.w r10,32[sp]
 2784 1b86 DD00     		mov r29,r6
 2785 1b88 FC00     		mov r28,r7
 2786 1b8a 0141     		mov 1,r8
 2787 1b8c 00AC0400 		jal .+4
 2788 1b90 E447     		add 4,r31
 2789 1b92 1B18     		jmp r27
 2790 1b94 43CD3400 		ld.w 52[sp],r10
 2791 1b98 4E45     		add 14,r10
 2792 1b9a 43DD3400 		st.w r10,52[sp]
 2793 1b9e 43CD2000 		ld.w 32[sp],r10
 2794 1ba2 4E45     		add 14,r10
 2795 1ba4 43DD2000 		st.w r10,32[sp]
 2796 1ba8 DD00     		mov r29,r6
 2797 1baa FC00     		mov r28,r7
 2798 1bac 0141     		mov 1,r8
 2799 1bae 00AC0400 		jal .+4
 2800 1bb2 E447     		add 4,r31
 2801 1bb4 1B18     		jmp r27
 2802 1bb6 63A42800 		addi 40,sp,sp
 2803 1bba 00A80000 		jr __return_r27_r31
 2804              		.size	_drawCrossHairs, .-_drawCrossHairs
 2805 1bbe 0000     		.align 2
 2806              		.global _g3d_cameraRotateAllAxis
 2807              		.type	_g3d_cameraRotateAllAxis, @function
 2808              	_g3d_cameraRotateAllAxis:
 2809 1bc0 43CD1000 		ld.w 16[sp],r10
 2810 1bc4 C63C     		not r6,r6
 2811 1bc6 C144     		add 1,r6
 2812 1bc8 E73C     		not r7,r7
 2813 1bca E144     		add 1,r7
 2814 1bcc 083D     		not r8,r8
 2815 1bce 0145     		add 1,r8
 2816 1bd0 C00C     		cmp r0,r6
 2817 1bd2 3494     		bne .L329
 2818 1bd4 E00C     		cmp r0,r7
 2819 1bd6 3094     		bne .L329
 2820 1bd8 000D     		cmp r0,r8
 2821 1bda 3C94     		bne .L330
 2822 1bdc 69CD0000 		ld.w 0[r9],r11
 2823 1be0 6ADD0000 		st.w r11,0[r10]
 2824 1be4 69CD0400 		ld.w 4[r9],r11
 2825 1be8 6ADD0400 		st.w r11,4[r10]
 2826 1bec 69CD0800 		ld.w 8[r9],r11
 2827 1bf0 6ADD0800 		st.w r11,8[r10]
 2828 1bf4 69CD0C00 		ld.w 12[r9],r11
 2829 1bf8 6ADD0C00 		st.w r11,12[r10]
 2830 1bfc 69CD1000 		ld.w 16[r9],r11
 2831 1c00 6ADD1000 		st.w r11,16[r10]
 2832 1c04 1F18     		jmp [r31]
 2833              	.L329:
 2834 1c06 C00C     		cmp r0,r6
GAS LISTING /tmp/ccjfHZuC.s 			page 78


 2835 1c08 069C     		bge .L332
 2836 1c0a C6A46701 		addi 359,r6,r6
 2837              	.L332:
 2838 1c0e E00C     		cmp r0,r7
 2839 1c10 069C     		bge .L330
 2840 1c12 E7A46701 		addi 359,r7,r7
 2841              	.L330:
 2842 1c16 000D     		cmp r0,r8
 2843 1c18 069C     		bge .L333
 2844 1c1a 08A56701 		addi 359,r8,r8
 2845              	.L333:
 2846 1c1e 09CE0000 		ld.w 0[r9],r16
 2847 1c22 69CD0400 		ld.w 4[r9],r11
 2848 1c26 89CD0800 		ld.w 8[r9],r12
 2849 1c2a C9CD0C00 		ld.w 12[r9],r14
 2850 1c2e A9CD1000 		ld.w 16[r9],r13
 2851 1c32 E00C     		cmp r0,r7
 2852 1c34 0694     		bne .L334
 2853 1c36 F001     		mov r16,r15
 2854 1c38 528A     		br .L335
 2855              	.L334:
 2856 1c3a 6ADD0400 		st.w r11,4[r10]
 2857 1c3e E250     		shl 2,r7
 2858 1c40 A0BD0000 		movhi hi(_cosine),r0,r13
 2859 1c44 ADA10000 		movea lo(_cosine),r13,r13
 2860 1c48 A705     		add r7,r13
 2861 1c4a CDCD0000 		ld.w 0[r13],r14
 2862 1c4e 3002     		mov r16,r17
 2863 1c50 2E22     		mul r14,r17
 2864 1c52 235E     		sar 3,r17
 2865 1c54 A0BD0000 		movhi hi(_sine),r0,r13
 2866 1c58 ADA10000 		movea lo(_sine),r13,r13
 2867 1c5c ED04     		add r13,r7
 2868 1c5e A7CD0000 		ld.w 0[r7],r13
 2869 1c62 EC01     		mov r12,r15
 2870 1c64 ED21     		mul r13,r15
 2871 1c66 E35D     		sar 3,r15
 2872 1c68 F105     		add r17,r15
 2873 1c6a EADD0000 		st.w r15,0[r10]
 2874 1c6e CC21     		mul r12,r14
 2875 1c70 C35D     		sar 3,r14
 2876 1c72 AD3D     		not r13,r13
 2877 1c74 A145     		add 1,r13
 2878 1c76 0D22     		mul r13,r16
 2879 1c78 035E     		sar 3,r16
 2880 1c7a 9001     		mov r16,r12
 2881 1c7c 8E05     		add r14,r12
 2882 1c7e 8ADD0800 		st.w r12,8[r10]
 2883 1c82 CACD0C00 		ld.w 12[r10],r14
 2884 1c86 AACD1000 		ld.w 16[r10],r13
 2885              	.L335:
 2886 1c8a C00C     		cmp r0,r6
 2887 1c8c 0694     		bne .L336
 2888 1c8e 0C02     		mov r12,r16
 2889 1c90 528A     		br .L337
 2890              	.L336:
 2891 1c92 EADD0000 		st.w r15,0[r10]
GAS LISTING /tmp/ccjfHZuC.s 			page 79


 2892 1c96 C250     		shl 2,r6
 2893 1c98 A0BD0000 		movhi hi(_cosine),r0,r13
 2894 1c9c ADA10000 		movea lo(_cosine),r13,r13
 2895 1ca0 A605     		add r6,r13
 2896 1ca2 CDCD0000 		ld.w 0[r13],r14
 2897 1ca6 2C02     		mov r12,r17
 2898 1ca8 2E22     		mul r14,r17
 2899 1caa 235E     		sar 3,r17
 2900 1cac A0BD0000 		movhi hi(_sine),r0,r13
 2901 1cb0 ADA10000 		movea lo(_sine),r13,r13
 2902 1cb4 CD04     		add r13,r6
 2903 1cb6 A6CD0000 		ld.w 0[r6],r13
 2904 1cba 0B02     		mov r11,r16
 2905 1cbc 0D22     		mul r13,r16
 2906 1cbe 035E     		sar 3,r16
 2907 1cc0 1106     		add r17,r16
 2908 1cc2 0ADE0800 		st.w r16,8[r10]
 2909 1cc6 CB21     		mul r11,r14
 2910 1cc8 C35D     		sar 3,r14
 2911 1cca AD3D     		not r13,r13
 2912 1ccc A145     		add 1,r13
 2913 1cce 8D21     		mul r13,r12
 2914 1cd0 835D     		sar 3,r12
 2915 1cd2 6C01     		mov r12,r11
 2916 1cd4 6E05     		add r14,r11
 2917 1cd6 6ADD0400 		st.w r11,4[r10]
 2918 1cda CACD0C00 		ld.w 12[r10],r14
 2919 1cde AACD1000 		ld.w 16[r10],r13
 2920              	.L337:
 2921 1ce2 000D     		cmp r0,r8
 2922 1ce4 0694     		bne .L338
 2923 1ce6 8F01     		mov r15,r12
 2924 1ce8 528A     		br .L339
 2925              	.L338:
 2926 1cea 0ADE0800 		st.w r16,8[r10]
 2927 1cee 0251     		shl 2,r8
 2928 1cf0 80BD0000 		movhi hi(_cosine),r0,r12
 2929 1cf4 8CA10000 		movea lo(_cosine),r12,r12
 2930 1cf8 8805     		add r8,r12
 2931 1cfa CCCD0000 		ld.w 0[r12],r14
 2932 1cfe 2F02     		mov r15,r17
 2933 1d00 2E22     		mul r14,r17
 2934 1d02 235E     		sar 3,r17
 2935 1d04 80BD0000 		movhi hi(_sine),r0,r12
 2936 1d08 8CA10000 		movea lo(_sine),r12,r12
 2937 1d0c 0C05     		add r12,r8
 2938 1d0e A8CD0000 		ld.w 0[r8],r13
 2939 1d12 8B01     		mov r11,r12
 2940 1d14 8D21     		mul r13,r12
 2941 1d16 835D     		sar 3,r12
 2942 1d18 9105     		add r17,r12
 2943 1d1a 8ADD0000 		st.w r12,0[r10]
 2944 1d1e CB21     		mul r11,r14
 2945 1d20 C35D     		sar 3,r14
 2946 1d22 AD3D     		not r13,r13
 2947 1d24 A145     		add 1,r13
 2948 1d26 ED21     		mul r13,r15
GAS LISTING /tmp/ccjfHZuC.s 			page 80


 2949 1d28 E35D     		sar 3,r15
 2950 1d2a 6E01     		mov r14,r11
 2951 1d2c 6F05     		add r15,r11
 2952 1d2e 6ADD0400 		st.w r11,4[r10]
 2953 1d32 CACD0C00 		ld.w 12[r10],r14
 2954 1d36 AACD1000 		ld.w 16[r10],r13
 2955              	.L339:
 2956 1d3a 8ADD0000 		st.w r12,0[r10]
 2957 1d3e 6ADD0400 		st.w r11,4[r10]
 2958 1d42 0ADE0800 		st.w r16,8[r10]
 2959 1d46 CADD0C00 		st.w r14,12[r10]
 2960 1d4a AADD1000 		st.w r13,16[r10]
 2961 1d4e 1F18     		jmp [r31]
 2962              		.size	_g3d_cameraRotateAllAxis, .-_g3d_cameraRotateAllAxis
 2963              		.align 2
 2964              		.global _initObjects
 2965              		.type	_initObjects, @function
 2966              	_initObjects:
 2967 1d50 5F01     		mov r31,r10
 2968 1d52 00AC0000 		jal __save_r2_r31
 2969 1d56 40BD0000 		movhi hi(_g),r0,r10
 2970 1d5a 4AA10000 		movea lo(_g),r10,r10
 2971 1d5e 0ADC0000 		st.w r0,0[r10]
 2972 1d62 0ADC0400 		st.w r0,4[r10]
 2973 1d66 0ADC0800 		st.w r0,8[r10]
 2974 1d6a 0ADC1400 		st.w r0,20[r10]
 2975 1d6e 0ADC1800 		st.w r0,24[r10]
 2976 1d72 0ADC1C00 		st.w r0,28[r10]
 2977 1d76 0ADC2800 		st.w r0,40[r10]
 2978 1d7a 0ADC2C00 		st.w r0,44[r10]
 2979 1d7e 0ADC3000 		st.w r0,48[r10]
 2980 1d82 0ADC3C00 		st.w r0,60[r10]
 2981 1d86 0ADC4000 		st.w r0,64[r10]
 2982 1d8a 0ADC4400 		st.w r0,68[r10]
 2983 1d8e 0ADC5000 		st.w r0,80[r10]
 2984 1d92 0ADC5400 		st.w r0,84[r10]
 2985 1d96 0ADC5800 		st.w r0,88[r10]
 2986 1d9a 0ADC6400 		st.w r0,100[r10]
 2987 1d9e 0ADC6800 		st.w r0,104[r10]
 2988 1da2 0ADC6C00 		st.w r0,108[r10]
 2989 1da6 6841     		mov 8,r11
 2990 1da8 6ADD7800 		st.w r11,120[r10]
 2991 1dac 6ADD7C00 		st.w r11,124[r10]
 2992 1db0 6ADD8000 		st.w r11,128[r10]
 2993 1db4 0ADC8C00 		st.w r0,140[r10]
 2994 1db8 0ADC9000 		st.w r0,144[r10]
 2995 1dbc 0ADC9400 		st.w r0,148[r10]
 2996 1dc0 0ADCC800 		st.w r0,200[r10]
 2997 1dc4 80BD0000 		movhi hi(_ground),r0,r12
 2998 1dc8 8CA10000 		movea lo(_ground),r12,r12
 2999 1dcc 8ADDC400 		st.w r12,196[r10]
 3000 1dd0 8141     		mov 1,r12
 3001 1dd2 8ADDA000 		st.w r12,160[r10]
 3002 1dd6 0ADCAC00 		st.w r0,172[r10]
 3003 1dda A341     		mov 3,r13
 3004 1ddc AADDB000 		st.w r13,176[r10]
 3005 1de0 0ADCB400 		st.w r0,180[r10]
GAS LISTING /tmp/ccjfHZuC.s 			page 81


 3006 1de4 8ADDA800 		st.w r12,168[r10]
 3007 1de8 C0BD0000 		movhi hi(_city),r0,r14
 3008 1dec CEA10000 		movea lo(_city),r14,r14
 3009 1df0 40BD0000 		movhi hi(_c1),r0,r10
 3010 1df4 4AA10000 		movea lo(_c1),r10,r10
 3011 1df8 0ADC0000 		st.w r0,0[r10]
 3012 1dfc 0ADC0400 		st.w r0,4[r10]
 3013 1e00 0ADC0800 		st.w r0,8[r10]
 3014 1e04 0ADC1400 		st.w r0,20[r10]
 3015 1e08 0ADC1800 		st.w r0,24[r10]
 3016 1e0c 0ADC1C00 		st.w r0,28[r10]
 3017 1e10 0ADC2800 		st.w r0,40[r10]
 3018 1e14 0ADC2C00 		st.w r0,44[r10]
 3019 1e18 0ADC3000 		st.w r0,48[r10]
 3020 1e1c 0ADC3C00 		st.w r0,60[r10]
 3021 1e20 0ADC4000 		st.w r0,64[r10]
 3022 1e24 0ADC4400 		st.w r0,68[r10]
 3023 1e28 0ADC5000 		st.w r0,80[r10]
 3024 1e2c 0ADC5400 		st.w r0,84[r10]
 3025 1e30 0ADC5800 		st.w r0,88[r10]
 3026 1e34 0ADC6400 		st.w r0,100[r10]
 3027 1e38 0ADC6800 		st.w r0,104[r10]
 3028 1e3c 0ADC6C00 		st.w r0,108[r10]
 3029 1e40 6ADD7800 		st.w r11,120[r10]
 3030 1e44 6ADD7C00 		st.w r11,124[r10]
 3031 1e48 6ADD8000 		st.w r11,128[r10]
 3032 1e4c 0ADC8C00 		st.w r0,140[r10]
 3033 1e50 0ADC9000 		st.w r0,144[r10]
 3034 1e54 0ADC9400 		st.w r0,148[r10]
 3035 1e58 0ADCC800 		st.w r0,200[r10]
 3036 1e5c CADDC400 		st.w r14,196[r10]
 3037 1e60 8ADDA000 		st.w r12,160[r10]
 3038 1e64 0ADCAC00 		st.w r0,172[r10]
 3039 1e68 AADDB000 		st.w r13,176[r10]
 3040 1e6c 0ADCB400 		st.w r0,180[r10]
 3041 1e70 8ADDA800 		st.w r12,168[r10]
 3042 1e74 40BD0000 		movhi hi(_c2),r0,r10
 3043 1e78 4AA10000 		movea lo(_c2),r10,r10
 3044 1e7c 0ADC0000 		st.w r0,0[r10]
 3045 1e80 0ADC0400 		st.w r0,4[r10]
 3046 1e84 0ADC0800 		st.w r0,8[r10]
 3047 1e88 0ADC1400 		st.w r0,20[r10]
 3048 1e8c 0ADC1800 		st.w r0,24[r10]
 3049 1e90 0ADC1C00 		st.w r0,28[r10]
 3050 1e94 0ADC2800 		st.w r0,40[r10]
 3051 1e98 0ADC2C00 		st.w r0,44[r10]
 3052 1e9c 0ADC3000 		st.w r0,48[r10]
 3053 1ea0 0ADC3C00 		st.w r0,60[r10]
 3054 1ea4 0ADC4000 		st.w r0,64[r10]
 3055 1ea8 0ADC4400 		st.w r0,68[r10]
 3056 1eac 0ADC5000 		st.w r0,80[r10]
 3057 1eb0 0ADC5400 		st.w r0,84[r10]
 3058 1eb4 0ADC5800 		st.w r0,88[r10]
 3059 1eb8 0ADC6400 		st.w r0,100[r10]
 3060 1ebc 0ADC6800 		st.w r0,104[r10]
 3061 1ec0 0ADC6C00 		st.w r0,108[r10]
 3062 1ec4 6ADD7800 		st.w r11,120[r10]
GAS LISTING /tmp/ccjfHZuC.s 			page 82


 3063 1ec8 6ADD7C00 		st.w r11,124[r10]
 3064 1ecc 6ADD8000 		st.w r11,128[r10]
 3065 1ed0 0ADC8C00 		st.w r0,140[r10]
 3066 1ed4 0ADC9000 		st.w r0,144[r10]
 3067 1ed8 0ADC9400 		st.w r0,148[r10]
 3068 1edc 0ADCC800 		st.w r0,200[r10]
 3069 1ee0 CADDC400 		st.w r14,196[r10]
 3070 1ee4 8ADDA000 		st.w r12,160[r10]
 3071 1ee8 0ADCAC00 		st.w r0,172[r10]
 3072 1eec AADDB000 		st.w r13,176[r10]
 3073 1ef0 0ADCB400 		st.w r0,180[r10]
 3074 1ef4 8ADDA800 		st.w r12,168[r10]
 3075 1ef8 40BD0000 		movhi hi(_c3),r0,r10
 3076 1efc 4AA10000 		movea lo(_c3),r10,r10
 3077 1f00 0ADC0000 		st.w r0,0[r10]
 3078 1f04 0ADC0400 		st.w r0,4[r10]
 3079 1f08 0ADC0800 		st.w r0,8[r10]
 3080 1f0c 0ADC1400 		st.w r0,20[r10]
 3081 1f10 0ADC1800 		st.w r0,24[r10]
 3082 1f14 0ADC1C00 		st.w r0,28[r10]
 3083 1f18 0ADC2800 		st.w r0,40[r10]
 3084 1f1c 0ADC2C00 		st.w r0,44[r10]
 3085 1f20 0ADC3000 		st.w r0,48[r10]
 3086 1f24 0ADC3C00 		st.w r0,60[r10]
 3087 1f28 0ADC4000 		st.w r0,64[r10]
 3088 1f2c 0ADC4400 		st.w r0,68[r10]
 3089 1f30 0ADC5000 		st.w r0,80[r10]
 3090 1f34 0ADC5400 		st.w r0,84[r10]
 3091 1f38 0ADC5800 		st.w r0,88[r10]
 3092 1f3c 0ADC6400 		st.w r0,100[r10]
 3093 1f40 0ADC6800 		st.w r0,104[r10]
 3094 1f44 0ADC6C00 		st.w r0,108[r10]
 3095 1f48 6ADD7800 		st.w r11,120[r10]
 3096 1f4c 6ADD7C00 		st.w r11,124[r10]
 3097 1f50 6ADD8000 		st.w r11,128[r10]
 3098 1f54 0ADC8C00 		st.w r0,140[r10]
 3099 1f58 0ADC9000 		st.w r0,144[r10]
 3100 1f5c 0ADC9400 		st.w r0,148[r10]
 3101 1f60 0ADCC800 		st.w r0,200[r10]
 3102 1f64 CADDC400 		st.w r14,196[r10]
 3103 1f68 8ADDA000 		st.w r12,160[r10]
 3104 1f6c 0ADCAC00 		st.w r0,172[r10]
 3105 1f70 AADDB000 		st.w r13,176[r10]
 3106 1f74 0ADCB400 		st.w r0,180[r10]
 3107 1f78 8ADDA800 		st.w r12,168[r10]
 3108 1f7c 40BD0000 		movhi hi(_c4),r0,r10
 3109 1f80 4AA10000 		movea lo(_c4),r10,r10
 3110 1f84 0ADC0000 		st.w r0,0[r10]
 3111 1f88 0ADC0400 		st.w r0,4[r10]
 3112 1f8c 0ADC0800 		st.w r0,8[r10]
 3113 1f90 0ADC1400 		st.w r0,20[r10]
 3114 1f94 0ADC1800 		st.w r0,24[r10]
 3115 1f98 0ADC1C00 		st.w r0,28[r10]
 3116 1f9c 0ADC2800 		st.w r0,40[r10]
 3117 1fa0 0ADC2C00 		st.w r0,44[r10]
 3118 1fa4 0ADC3000 		st.w r0,48[r10]
 3119 1fa8 0ADC3C00 		st.w r0,60[r10]
GAS LISTING /tmp/ccjfHZuC.s 			page 83


 3120 1fac 0ADC4000 		st.w r0,64[r10]
 3121 1fb0 0ADC4400 		st.w r0,68[r10]
 3122 1fb4 0ADC5000 		st.w r0,80[r10]
 3123 1fb8 0ADC5400 		st.w r0,84[r10]
 3124 1fbc 0ADC5800 		st.w r0,88[r10]
 3125 1fc0 0ADC6400 		st.w r0,100[r10]
 3126 1fc4 0ADC6800 		st.w r0,104[r10]
 3127 1fc8 0ADC6C00 		st.w r0,108[r10]
 3128 1fcc 6ADD7800 		st.w r11,120[r10]
 3129 1fd0 6ADD7C00 		st.w r11,124[r10]
 3130 1fd4 6ADD8000 		st.w r11,128[r10]
 3131 1fd8 0ADC8C00 		st.w r0,140[r10]
 3132 1fdc 0ADC9000 		st.w r0,144[r10]
 3133 1fe0 0ADC9400 		st.w r0,148[r10]
 3134 1fe4 0ADCC800 		st.w r0,200[r10]
 3135 1fe8 CADDC400 		st.w r14,196[r10]
 3136 1fec 8ADDA000 		st.w r12,160[r10]
 3137 1ff0 0ADCAC00 		st.w r0,172[r10]
 3138 1ff4 AADDB000 		st.w r13,176[r10]
 3139 1ff8 0ADCB400 		st.w r0,180[r10]
 3140 1ffc 8ADDA800 		st.w r12,168[r10]
 3141 2000 40BD0000 		movhi hi(_c5),r0,r10
 3142 2004 4AA10000 		movea lo(_c5),r10,r10
 3143 2008 0ADC0000 		st.w r0,0[r10]
 3144 200c 0ADC0400 		st.w r0,4[r10]
 3145 2010 0ADC0800 		st.w r0,8[r10]
 3146 2014 0ADC1400 		st.w r0,20[r10]
 3147 2018 0ADC1800 		st.w r0,24[r10]
 3148 201c 0ADC1C00 		st.w r0,28[r10]
 3149 2020 0ADC2800 		st.w r0,40[r10]
 3150 2024 0ADC2C00 		st.w r0,44[r10]
 3151 2028 0ADC3000 		st.w r0,48[r10]
 3152 202c 0ADC3C00 		st.w r0,60[r10]
 3153 2030 0ADC4000 		st.w r0,64[r10]
 3154 2034 0ADC4400 		st.w r0,68[r10]
 3155 2038 0ADC5000 		st.w r0,80[r10]
 3156 203c 0ADC5400 		st.w r0,84[r10]
 3157 2040 0ADC5800 		st.w r0,88[r10]
 3158 2044 0ADC6400 		st.w r0,100[r10]
 3159 2048 0ADC6800 		st.w r0,104[r10]
 3160 204c 0ADC6C00 		st.w r0,108[r10]
 3161 2050 6ADD7800 		st.w r11,120[r10]
 3162 2054 6ADD7C00 		st.w r11,124[r10]
 3163 2058 6ADD8000 		st.w r11,128[r10]
 3164 205c 0ADC8C00 		st.w r0,140[r10]
 3165 2060 0ADC9000 		st.w r0,144[r10]
 3166 2064 0ADC9400 		st.w r0,148[r10]
 3167 2068 0ADCC800 		st.w r0,200[r10]
 3168 206c CADDC400 		st.w r14,196[r10]
 3169 2070 8ADDA000 		st.w r12,160[r10]
 3170 2074 0ADCAC00 		st.w r0,172[r10]
 3171 2078 AADDB000 		st.w r13,176[r10]
 3172 207c 0ADCB400 		st.w r0,180[r10]
 3173 2080 8ADDA800 		st.w r12,168[r10]
 3174 2084 40BD0000 		movhi hi(_c6),r0,r10
 3175 2088 4AA10000 		movea lo(_c6),r10,r10
 3176 208c 0ADC0000 		st.w r0,0[r10]
GAS LISTING /tmp/ccjfHZuC.s 			page 84


 3177 2090 0ADC0400 		st.w r0,4[r10]
 3178 2094 0ADC0800 		st.w r0,8[r10]
 3179 2098 0ADC1400 		st.w r0,20[r10]
 3180 209c 0ADC1800 		st.w r0,24[r10]
 3181 20a0 0ADC1C00 		st.w r0,28[r10]
 3182 20a4 0ADC2800 		st.w r0,40[r10]
 3183 20a8 0ADC2C00 		st.w r0,44[r10]
 3184 20ac 0ADC3000 		st.w r0,48[r10]
 3185 20b0 0ADC3C00 		st.w r0,60[r10]
 3186 20b4 0ADC4000 		st.w r0,64[r10]
 3187 20b8 0ADC4400 		st.w r0,68[r10]
 3188 20bc 0ADC5000 		st.w r0,80[r10]
 3189 20c0 0ADC5400 		st.w r0,84[r10]
 3190 20c4 0ADC5800 		st.w r0,88[r10]
 3191 20c8 0ADC6400 		st.w r0,100[r10]
 3192 20cc 0ADC6800 		st.w r0,104[r10]
 3193 20d0 0ADC6C00 		st.w r0,108[r10]
 3194 20d4 6ADD7800 		st.w r11,120[r10]
 3195 20d8 6ADD7C00 		st.w r11,124[r10]
 3196 20dc 6ADD8000 		st.w r11,128[r10]
 3197 20e0 0ADC8C00 		st.w r0,140[r10]
 3198 20e4 0ADC9000 		st.w r0,144[r10]
 3199 20e8 0ADC9400 		st.w r0,148[r10]
 3200 20ec 0ADCC800 		st.w r0,200[r10]
 3201 20f0 CADDC400 		st.w r14,196[r10]
 3202 20f4 8ADDA000 		st.w r12,160[r10]
 3203 20f8 0ADCAC00 		st.w r0,172[r10]
 3204 20fc AADDB000 		st.w r13,176[r10]
 3205 2100 0ADCB400 		st.w r0,180[r10]
 3206 2104 8ADDA800 		st.w r12,168[r10]
 3207 2108 C0BD0000 		movhi hi(_meteor),r0,r14
 3208 210c CEA10000 		movea lo(_meteor),r14,r14
 3209 2110 40BD0000 		movhi hi(_m1),r0,r10
 3210 2114 4AA10000 		movea lo(_m1),r10,r10
 3211 2118 0ADC0000 		st.w r0,0[r10]
 3212 211c 0ADC0400 		st.w r0,4[r10]
 3213 2120 0ADC0800 		st.w r0,8[r10]
 3214 2124 0ADC1400 		st.w r0,20[r10]
 3215 2128 0ADC1800 		st.w r0,24[r10]
 3216 212c 0ADC1C00 		st.w r0,28[r10]
 3217 2130 0ADC2800 		st.w r0,40[r10]
 3218 2134 0ADC2C00 		st.w r0,44[r10]
 3219 2138 0ADC3000 		st.w r0,48[r10]
 3220 213c 0ADC3C00 		st.w r0,60[r10]
 3221 2140 0ADC4000 		st.w r0,64[r10]
 3222 2144 0ADC4400 		st.w r0,68[r10]
 3223 2148 0ADC5000 		st.w r0,80[r10]
 3224 214c 0ADC5400 		st.w r0,84[r10]
 3225 2150 0ADC5800 		st.w r0,88[r10]
 3226 2154 0ADC6400 		st.w r0,100[r10]
 3227 2158 0ADC6800 		st.w r0,104[r10]
 3228 215c 0ADC6C00 		st.w r0,108[r10]
 3229 2160 6ADD7800 		st.w r11,120[r10]
 3230 2164 6ADD7C00 		st.w r11,124[r10]
 3231 2168 6ADD8000 		st.w r11,128[r10]
 3232 216c 0ADC8C00 		st.w r0,140[r10]
 3233 2170 0ADC9000 		st.w r0,144[r10]
GAS LISTING /tmp/ccjfHZuC.s 			page 85


 3234 2174 0ADC9400 		st.w r0,148[r10]
 3235 2178 0ADCC800 		st.w r0,200[r10]
 3236 217c CADDC400 		st.w r14,196[r10]
 3237 2180 8ADDA000 		st.w r12,160[r10]
 3238 2184 0ADCAC00 		st.w r0,172[r10]
 3239 2188 AADDB000 		st.w r13,176[r10]
 3240 218c 0ADCB400 		st.w r0,180[r10]
 3241 2190 8ADDA800 		st.w r12,168[r10]
 3242 2194 40BD0000 		movhi hi(_m2),r0,r10
 3243 2198 4AA10000 		movea lo(_m2),r10,r10
 3244 219c 0ADC0000 		st.w r0,0[r10]
 3245 21a0 0ADC0400 		st.w r0,4[r10]
 3246 21a4 0ADC0800 		st.w r0,8[r10]
 3247 21a8 0ADC1400 		st.w r0,20[r10]
 3248 21ac 0ADC1800 		st.w r0,24[r10]
 3249 21b0 0ADC1C00 		st.w r0,28[r10]
 3250 21b4 0ADC2800 		st.w r0,40[r10]
 3251 21b8 0ADC2C00 		st.w r0,44[r10]
 3252 21bc 0ADC3000 		st.w r0,48[r10]
 3253 21c0 0ADC3C00 		st.w r0,60[r10]
 3254 21c4 0ADC4000 		st.w r0,64[r10]
 3255 21c8 0ADC4400 		st.w r0,68[r10]
 3256 21cc 0ADC5000 		st.w r0,80[r10]
 3257 21d0 0ADC5400 		st.w r0,84[r10]
 3258 21d4 0ADC5800 		st.w r0,88[r10]
 3259 21d8 0ADC6400 		st.w r0,100[r10]
 3260 21dc 0ADC6800 		st.w r0,104[r10]
 3261 21e0 0ADC6C00 		st.w r0,108[r10]
 3262 21e4 6ADD7800 		st.w r11,120[r10]
 3263 21e8 6ADD7C00 		st.w r11,124[r10]
 3264 21ec 6ADD8000 		st.w r11,128[r10]
 3265 21f0 0ADC8C00 		st.w r0,140[r10]
 3266 21f4 0ADC9000 		st.w r0,144[r10]
 3267 21f8 0ADC9400 		st.w r0,148[r10]
 3268 21fc 0ADCC800 		st.w r0,200[r10]
 3269 2200 CADDC400 		st.w r14,196[r10]
 3270 2204 8ADDA000 		st.w r12,160[r10]
 3271 2208 0ADCAC00 		st.w r0,172[r10]
 3272 220c AADDB000 		st.w r13,176[r10]
 3273 2210 0ADCB400 		st.w r0,180[r10]
 3274 2214 8ADDA800 		st.w r12,168[r10]
 3275 2218 40BD0000 		movhi hi(_m3),r0,r10
 3276 221c 4AA10000 		movea lo(_m3),r10,r10
 3277 2220 0ADC0000 		st.w r0,0[r10]
 3278 2224 0ADC0400 		st.w r0,4[r10]
 3279 2228 0ADC0800 		st.w r0,8[r10]
 3280 222c 0ADC1400 		st.w r0,20[r10]
 3281 2230 0ADC1800 		st.w r0,24[r10]
 3282 2234 0ADC1C00 		st.w r0,28[r10]
 3283 2238 0ADC2800 		st.w r0,40[r10]
 3284 223c 0ADC2C00 		st.w r0,44[r10]
 3285 2240 0ADC3000 		st.w r0,48[r10]
 3286 2244 0ADC3C00 		st.w r0,60[r10]
 3287 2248 0ADC4000 		st.w r0,64[r10]
 3288 224c 0ADC4400 		st.w r0,68[r10]
 3289 2250 0ADC5000 		st.w r0,80[r10]
 3290 2254 0ADC5400 		st.w r0,84[r10]
GAS LISTING /tmp/ccjfHZuC.s 			page 86


 3291 2258 0ADC5800 		st.w r0,88[r10]
 3292 225c 0ADC6400 		st.w r0,100[r10]
 3293 2260 0ADC6800 		st.w r0,104[r10]
 3294 2264 0ADC6C00 		st.w r0,108[r10]
 3295 2268 6ADD7800 		st.w r11,120[r10]
 3296 226c 6ADD7C00 		st.w r11,124[r10]
 3297 2270 6ADD8000 		st.w r11,128[r10]
 3298 2274 0ADC8C00 		st.w r0,140[r10]
 3299 2278 0ADC9000 		st.w r0,144[r10]
 3300 227c 0ADC9400 		st.w r0,148[r10]
 3301 2280 0ADCC800 		st.w r0,200[r10]
 3302 2284 CADDC400 		st.w r14,196[r10]
 3303 2288 8ADDA000 		st.w r12,160[r10]
 3304 228c 0ADCAC00 		st.w r0,172[r10]
 3305 2290 AADDB000 		st.w r13,176[r10]
 3306 2294 0ADCB400 		st.w r0,180[r10]
 3307 2298 8ADDA800 		st.w r12,168[r10]
 3308 229c 40BD0000 		movhi hi(_m4),r0,r10
 3309 22a0 4AA10000 		movea lo(_m4),r10,r10
 3310 22a4 0ADC0000 		st.w r0,0[r10]
 3311 22a8 0ADC0400 		st.w r0,4[r10]
 3312 22ac 6A03     		mov r10,r27
 3313 22ae 0ADC0800 		st.w r0,8[r10]
 3314 22b2 0ADC1400 		st.w r0,20[r10]
 3315 22b6 0ADC1800 		st.w r0,24[r10]
 3316 22ba 0ADC1C00 		st.w r0,28[r10]
 3317 22be 0ADC2800 		st.w r0,40[r10]
 3318 22c2 0ADC2C00 		st.w r0,44[r10]
 3319 22c6 0ADC3000 		st.w r0,48[r10]
 3320 22ca 0ADC3C00 		st.w r0,60[r10]
 3321 22ce 0ADC4000 		st.w r0,64[r10]
 3322 22d2 0ADC4400 		st.w r0,68[r10]
 3323 22d6 0ADC5000 		st.w r0,80[r10]
 3324 22da 0ADC5400 		st.w r0,84[r10]
 3325 22de 0ADC5800 		st.w r0,88[r10]
 3326 22e2 0ADC6400 		st.w r0,100[r10]
 3327 22e6 0ADC6800 		st.w r0,104[r10]
 3328 22ea 0ADC6C00 		st.w r0,108[r10]
 3329 22ee 2B03     		mov r11,r25
 3330 22f0 7BDD7800 		st.w r11,120[r27]
 3331 22f4 7BDD7C00 		st.w r11,124[r27]
 3332 22f8 7BDD8000 		st.w r11,128[r27]
 3333 22fc 0ADC8C00 		st.w r0,140[r10]
 3334 2300 0ADC9000 		st.w r0,144[r10]
 3335 2304 0ADC9400 		st.w r0,148[r10]
 3336 2308 0ADCC800 		st.w r0,200[r10]
 3337 230c CADDC400 		st.w r14,196[r10]
 3338 2310 0C01     		mov r12,r8
 3339 2312 9BDDA000 		st.w r12,160[r27]
 3340 2316 0ADCAC00 		st.w r0,172[r10]
 3341 231a 4D03     		mov r13,r26
 3342 231c BBDDB000 		st.w r13,176[r27]
 3343 2320 0ADCB400 		st.w r0,180[r10]
 3344 2324 9BDDA800 		st.w r12,168[r27]
 3345 2328 80BF0000 		movhi hi(_m5),r0,r28
 3346 232c 9CA30000 		movea lo(_m5),r28,r28
 3347 2330 1CDC0000 		st.w r0,0[r28]
GAS LISTING /tmp/ccjfHZuC.s 			page 87


 3348 2334 1CDC0400 		st.w r0,4[r28]
 3349 2338 1CDC0800 		st.w r0,8[r28]
 3350 233c 1CDC1400 		st.w r0,20[r28]
 3351 2340 1CDC1800 		st.w r0,24[r28]
 3352 2344 1CDC1C00 		st.w r0,28[r28]
 3353 2348 1CDC2800 		st.w r0,40[r28]
 3354 234c 1CDC2C00 		st.w r0,44[r28]
 3355 2350 1CDC3000 		st.w r0,48[r28]
 3356 2354 1CDC3C00 		st.w r0,60[r28]
 3357 2358 1CDC4000 		st.w r0,64[r28]
 3358 235c 1CDC4400 		st.w r0,68[r28]
 3359 2360 1CDC5000 		st.w r0,80[r28]
 3360 2364 1CDC5400 		st.w r0,84[r28]
 3361 2368 1CDC5800 		st.w r0,88[r28]
 3362 236c 1CDC6400 		st.w r0,100[r28]
 3363 2370 1CDC6800 		st.w r0,104[r28]
 3364 2374 1CDC6C00 		st.w r0,108[r28]
 3365 2378 7CDD7800 		st.w r11,120[r28]
 3366 237c 7CDD7C00 		st.w r11,124[r28]
 3367 2380 7CDD8000 		st.w r11,128[r28]
 3368 2384 1CDC8C00 		st.w r0,140[r28]
 3369 2388 1CDC9000 		st.w r0,144[r28]
 3370 238c 1CDC9400 		st.w r0,148[r28]
 3371 2390 1CDCC800 		st.w r0,200[r28]
 3372 2394 DCDDC400 		st.w r14,196[r28]
 3373 2398 9CDDA000 		st.w r12,160[r28]
 3374 239c 1CDCAC00 		st.w r0,172[r28]
 3375 23a0 BCDDB000 		st.w r13,176[r28]
 3376 23a4 1CDCB400 		st.w r0,180[r28]
 3377 23a8 9CDDA800 		st.w r12,168[r28]
 3378 23ac A0BF0000 		movhi hi(_m6),r0,r29
 3379 23b0 BDA30000 		movea lo(_m6),r29,r29
 3380 23b4 1DDC0000 		st.w r0,0[r29]
 3381 23b8 1DDC0400 		st.w r0,4[r29]
 3382 23bc 1DDC0800 		st.w r0,8[r29]
 3383 23c0 1DDC1400 		st.w r0,20[r29]
 3384 23c4 1DDC1800 		st.w r0,24[r29]
 3385 23c8 1DDC1C00 		st.w r0,28[r29]
 3386 23cc 1DDC2800 		st.w r0,40[r29]
 3387 23d0 1DDC2C00 		st.w r0,44[r29]
 3388 23d4 1DDC3000 		st.w r0,48[r29]
 3389 23d8 1DDC3C00 		st.w r0,60[r29]
 3390 23dc 1DDC4000 		st.w r0,64[r29]
 3391 23e0 1DDC4400 		st.w r0,68[r29]
 3392 23e4 1DDC5000 		st.w r0,80[r29]
 3393 23e8 1DDC5400 		st.w r0,84[r29]
 3394 23ec 1DDC5800 		st.w r0,88[r29]
 3395 23f0 1DDC6400 		st.w r0,100[r29]
 3396 23f4 1DDC6800 		st.w r0,104[r29]
 3397 23f8 1DDC6C00 		st.w r0,108[r29]
 3398 23fc 7DDD7800 		st.w r11,120[r29]
 3399 2400 7DDD7C00 		st.w r11,124[r29]
 3400 2404 7DDD8000 		st.w r11,128[r29]
 3401 2408 1DDC8C00 		st.w r0,140[r29]
 3402 240c 1DDC9000 		st.w r0,144[r29]
 3403 2410 1DDC9400 		st.w r0,148[r29]
 3404 2414 1DDCC800 		st.w r0,200[r29]
GAS LISTING /tmp/ccjfHZuC.s 			page 88


 3405 2418 DDDDC400 		st.w r14,196[r29]
 3406 241c 9DDDA000 		st.w r12,160[r29]
 3407 2420 1DDCAC00 		st.w r0,172[r29]
 3408 2424 BDDDB000 		st.w r13,176[r29]
 3409 2428 1DDCB400 		st.w r0,180[r29]
 3410 242c 9DDDA800 		st.w r12,168[r29]
 3411 2430 40BD0000 		movhi hi(_g),r0,r10
 3412 2434 CAA00000 		movea lo(_g),r10,r6
 3413 2438 E040     		mov 0,r7
 3414 243a 00BF0000 		movhi hi(_addNode),r0,r24
 3415 243e 18A30000 		movea lo(_addNode),r24,r24
 3416 2442 00AC0400 		jal .+4
 3417 2446 E447     		add 4,r31
 3418 2448 1818     		jmp r24
 3419 244a E0BE0000 		movhi hi(_c1),r0,r23
 3420 244e D7A00000 		movea lo(_c1),r23,r6
 3421 2452 FA00     		mov r26,r7
 3422 2454 0241     		mov 2,r8
 3423 2456 00AC0400 		jal .+4
 3424 245a E447     		add 4,r31
 3425 245c 1818     		jmp r24
 3426 245e C0BE0000 		movhi hi(_c2),r0,r22
 3427 2462 D6A00000 		movea lo(_c2),r22,r6
 3428 2466 FA00     		mov r26,r7
 3429 2468 0241     		mov 2,r8
 3430 246a 00AC0400 		jal .+4
 3431 246e E447     		add 4,r31
 3432 2470 1818     		jmp r24
 3433 2472 A0BE0000 		movhi hi(_c3),r0,r21
 3434 2476 D5A00000 		movea lo(_c3),r21,r6
 3435 247a FA00     		mov r26,r7
 3436 247c 0241     		mov 2,r8
 3437 247e 00AC0400 		jal .+4
 3438 2482 E447     		add 4,r31
 3439 2484 1818     		jmp r24
 3440 2486 80BE0000 		movhi hi(_c4),r0,r20
 3441 248a D4A00000 		movea lo(_c4),r20,r6
 3442 248e FA00     		mov r26,r7
 3443 2490 0241     		mov 2,r8
 3444 2492 00AC0400 		jal .+4
 3445 2496 E447     		add 4,r31
 3446 2498 1818     		jmp r24
 3447 249a 40BC0000 		movhi hi(_c5),r0,r2
 3448 249e C2A00000 		movea lo(_c5),r2,r6
 3449 24a2 FA00     		mov r26,r7
 3450 24a4 0241     		mov 2,r8
 3451 24a6 00AC0400 		jal .+4
 3452 24aa E447     		add 4,r31
 3453 24ac 1818     		jmp r24
 3454 24ae 60BD0000 		movhi hi(_c6),r0,r11
 3455 24b2 CBA00000 		movea lo(_c6),r11,r6
 3456 24b6 FA00     		mov r26,r7
 3457 24b8 0241     		mov 2,r8
 3458 24ba 00AC0400 		jal .+4
 3459 24be E447     		add 4,r31
 3460 24c0 1818     		jmp r24
 3461 24c2 A0BD0000 		movhi hi(_m1),r0,r13
GAS LISTING /tmp/ccjfHZuC.s 			page 89


 3462 24c6 CDA00000 		movea lo(_m1),r13,r6
 3463 24ca FA00     		mov r26,r7
 3464 24cc 1A01     		mov r26,r8
 3465 24ce 00AC0400 		jal .+4
 3466 24d2 E447     		add 4,r31
 3467 24d4 1818     		jmp r24
 3468 24d6 60BE0000 		movhi hi(_m2),r0,r19
 3469 24da D3A00000 		movea lo(_m2),r19,r6
 3470 24de FA00     		mov r26,r7
 3471 24e0 1A01     		mov r26,r8
 3472 24e2 00AC0400 		jal .+4
 3473 24e6 E447     		add 4,r31
 3474 24e8 1818     		jmp r24
 3475 24ea 40BD0000 		movhi hi(_m3),r0,r10
 3476 24ee CAA00000 		movea lo(_m3),r10,r6
 3477 24f2 FA00     		mov r26,r7
 3478 24f4 1A01     		mov r26,r8
 3479 24f6 00AC0400 		jal .+4
 3480 24fa E447     		add 4,r31
 3481 24fc 1818     		jmp r24
 3482 24fe DB00     		mov r27,r6
 3483 2500 FA00     		mov r26,r7
 3484 2502 1A01     		mov r26,r8
 3485 2504 00AC0400 		jal .+4
 3486 2508 E447     		add 4,r31
 3487 250a 1818     		jmp r24
 3488 250c DC00     		mov r28,r6
 3489 250e FA00     		mov r26,r7
 3490 2510 1A01     		mov r26,r8
 3491 2512 00AC0400 		jal .+4
 3492 2516 E447     		add 4,r31
 3493 2518 1818     		jmp r24
 3494 251a DD00     		mov r29,r6
 3495 251c FA00     		mov r26,r7
 3496 251e 1A01     		mov r26,r8
 3497 2520 00AC0400 		jal .+4
 3498 2524 E447     		add 4,r31
 3499 2526 1818     		jmp r24
 3500 2528 F7A20000 		movea lo(_c1),r23,r23
 3501 252c 80A1A00F 		movea lo(4000),r0,r12
 3502 2530 97DD0800 		st.w r12,8[r23]
 3503 2534 40A260F0 		movea lo(-4000),r0,r18
 3504 2538 57DE0000 		st.w r18,0[r23]
 3505 253c 17DC0400 		st.w r0,4[r23]
 3506 2540 D6A20000 		movea lo(_c2),r22,r22
 3507 2544 96DD0800 		st.w r12,8[r22]
 3508 2548 16DC0000 		st.w r0,0[r22]
 3509 254c 16DC0400 		st.w r0,4[r22]
 3510 2550 B5A20000 		movea lo(_c3),r21,r21
 3511 2554 95DD0800 		st.w r12,8[r21]
 3512 2558 95DD0000 		st.w r12,0[r21]
 3513 255c 15DC0400 		st.w r0,4[r21]
 3514 2560 94A20000 		movea lo(_c4),r20,r20
 3515 2564 E0A1401F 		movea lo(8000),r0,r15
 3516 2568 F4DD0800 		st.w r15,8[r20]
 3517 256c 54DE0000 		st.w r18,0[r20]
 3518 2570 14DC0400 		st.w r0,4[r20]
GAS LISTING /tmp/ccjfHZuC.s 			page 90


 3519 2574 42A00000 		movea lo(_c5),r2,r2
 3520 2578 E2DD0800 		st.w r15,8[r2]
 3521 257c 02DC0000 		st.w r0,0[r2]
 3522 2580 02DC0400 		st.w r0,4[r2]
 3523 2584 60BD0000 		movhi hi(_c6),r0,r11
 3524 2588 4BA10000 		movea lo(_c6),r11,r10
 3525 258c EADD0800 		st.w r15,8[r10]
 3526 2590 8ADD0000 		st.w r12,0[r10]
 3527 2594 0ADC0400 		st.w r0,4[r10]
 3528 2598 A0BD0000 		movhi hi(_g),r0,r13
 3529 259c 4DA10000 		movea lo(_g),r13,r10
 3530 25a0 60A14006 		movea lo(1600),r0,r11
 3531 25a4 6ADD0800 		st.w r11,8[r10]
 3532 25a8 60A11000 		movea lo(16),r0,r11
 3533 25ac 6ADD8000 		st.w r11,128[r10]
 3534 25b0 0ADCA800 		st.w r0,168[r10]
 3535 25b4 40BD0000 		movhi hi(_cam),r0,r10
 3536 25b8 4AA10000 		movea lo(_cam),r10,r10
 3537 25bc A0A18002 		movea lo(640),r0,r13
 3538 25c0 AADD0400 		st.w r13,4[r10]
 3539 25c4 B841     		mov -8,r13
 3540 25c6 AADD6400 		st.w r13,100[r10]
 3541 25ca 60BE0000 		movhi hi(_m1),r0,r19
 3542 25ce 53A10000 		movea lo(_m1),r19,r10
 3543 25d2 20BE0100 		movhi hi(64000),r0,r17
 3544 25d6 31A200FA 		movea lo(64000),r17,r17
 3545 25da 2ADE0800 		st.w r17,8[r10]
 3546 25de A0A1C0E0 		movea lo(-8000),r0,r13
 3547 25e2 AADD0000 		st.w r13,0[r10]
 3548 25e6 A0A1204E 		movea lo(20000),r0,r13
 3549 25ea AADD0400 		st.w r13,4[r10]
 3550 25ee A0BD0000 		movhi hi(_meteorSpeed),r0,r13
 3551 25f2 0DCE0000 		ld.w lo(_meteorSpeed)[r13],r16
 3552 25f6 0ADE5800 		st.w r16,88[r10]
 3553 25fa 0ADC1400 		st.w r0,20[r10]
 3554 25fe 0ADC1800 		st.w r0,24[r10]
 3555 2602 8ADD1C00 		st.w r12,28[r10]
 3556 2606 6ADD3C00 		st.w r11,60[r10]
 3557 260a C441     		mov 4,r14
 3558 260c CADD4400 		st.w r14,68[r10]
 3559 2610 6ADD7800 		st.w r11,120[r10]
 3560 2614 6ADD7C00 		st.w r11,124[r10]
 3561 2618 A0BD0000 		movhi hi(_m2),r0,r13
 3562 261c 4DA10000 		movea lo(_m2),r13,r10
 3563 2620 2ADE0800 		st.w r17,8[r10]
 3564 2624 A0A1803E 		movea lo(16000),r0,r13
 3565 2628 AADD0000 		st.w r13,0[r10]
 3566 262c C0A0C05D 		movea lo(24000),r0,r6
 3567 2630 CADC0400 		st.w r6,4[r10]
 3568 2634 0ADE5800 		st.w r16,88[r10]
 3569 2638 4ADE1400 		st.w r18,20[r10]
 3570 263c 0ADC1800 		st.w r0,24[r10]
 3571 2640 8ADD1C00 		st.w r12,28[r10]
 3572 2644 CADD3C00 		st.w r14,60[r10]
 3573 2648 CADD4400 		st.w r14,68[r10]
 3574 264c A0A12000 		movea lo(32),r0,r13
 3575 2650 AADD7800 		st.w r13,120[r10]
GAS LISTING /tmp/ccjfHZuC.s 			page 91


 3576 2654 AADD7C00 		st.w r13,124[r10]
 3577 2658 AADD8000 		st.w r13,128[r10]
 3578 265c 60BE0000 		movhi hi(_m3),r0,r19
 3579 2660 53A10000 		movea lo(_m3),r19,r10
 3580 2664 2ADE0800 		st.w r17,8[r10]
 3581 2668 CADC0000 		st.w r6,0[r10]
 3582 266c 60A2606D 		movea lo(28000),r0,r19
 3583 2670 6ADE0400 		st.w r19,4[r10]
 3584 2674 0ADE5800 		st.w r16,88[r10]
 3585 2678 4ADE1400 		st.w r18,20[r10]
 3586 267c 0ADC1800 		st.w r0,24[r10]
 3587 2680 EADD1C00 		st.w r15,28[r10]
 3588 2684 6ADD3C00 		st.w r11,60[r10]
 3589 2688 6ADD4400 		st.w r11,68[r10]
 3590 268c 2ADF7800 		st.w r25,120[r10]
 3591 2690 2ADF7C00 		st.w r25,124[r10]
 3592 2694 2ADF8000 		st.w r25,128[r10]
 3593 2698 3BDE0800 		st.w r17,8[r27]
 3594 269c 40A140A2 		movea lo(-24000),r0,r10
 3595 26a0 5BDD0000 		st.w r10,0[r27]
 3596 26a4 7BDE0400 		st.w r19,4[r27]
 3597 26a8 1BDE5800 		st.w r16,88[r27]
 3598 26ac 9BDD1400 		st.w r12,20[r27]
 3599 26b0 1BDC1800 		st.w r0,24[r27]
 3600 26b4 9BDD1C00 		st.w r12,28[r27]
 3601 26b8 7BDD3C00 		st.w r11,60[r27]
 3602 26bc 7BDD4400 		st.w r11,68[r27]
 3603 26c0 3BDF7800 		st.w r25,120[r27]
 3604 26c4 3BDF7C00 		st.w r25,124[r27]
 3605 26c8 3BDF8000 		st.w r25,128[r27]
 3606 26cc 3CDE0800 		st.w r17,8[r28]
 3607 26d0 40A180C1 		movea lo(-16000),r0,r10
 3608 26d4 5CDD0000 		st.w r10,0[r28]
 3609 26d8 DCDC0400 		st.w r6,4[r28]
 3610 26dc 1CDE5800 		st.w r16,88[r28]
 3611 26e0 1CDC1400 		st.w r0,20[r28]
 3612 26e4 1CDC1800 		st.w r0,24[r28]
 3613 26e8 FCDD1C00 		st.w r15,28[r28]
 3614 26ec 7CDD3C00 		st.w r11,60[r28]
 3615 26f0 DCDD4400 		st.w r14,68[r28]
 3616 26f4 7CDD7800 		st.w r11,120[r28]
 3617 26f8 7CDD7C00 		st.w r11,124[r28]
 3618 26fc 3DDE0800 		st.w r17,8[r29]
 3619 2700 40A1C044 		movea lo(17600),r0,r10
 3620 2704 5DDD0000 		st.w r10,0[r29]
 3621 2708 7DDE0400 		st.w r19,4[r29]
 3622 270c 1DDE5800 		st.w r16,88[r29]
 3623 2710 9DDD1400 		st.w r12,20[r29]
 3624 2714 1DDC1800 		st.w r0,24[r29]
 3625 2718 FDDD1C00 		st.w r15,28[r29]
 3626 271c DDDD3C00 		st.w r14,60[r29]
 3627 2720 DDDD4400 		st.w r14,68[r29]
 3628 2724 BDDD7800 		st.w r13,120[r29]
 3629 2728 BDDD7C00 		st.w r13,124[r29]
 3630 272c BDDD8000 		st.w r13,128[r29]
 3631 2730 00A80000 		jr __return_r2_r31
 3632              		.size	_initObjects, .-_initObjects
GAS LISTING /tmp/ccjfHZuC.s 			page 92


 3633              		.align 2
 3634              		.global _g3d_renderVector3d
 3635              		.type	_g3d_renderVector3d, @function
 3636              	_g3d_renderVector3d:
 3637 2734 86CD7800 		ld.w 120[r6],r12
 3638 2738 814D     		cmp 1,r12
 3639 273a 2894     		bne .L344
 3640 273c A6CD7C00 		ld.w 124[r6],r13
 3641 2740 A14D     		cmp 1,r13
 3642 2742 2094     		bne .L344
 3643 2744 A6CD8000 		ld.w 128[r6],r13
 3644 2748 A14D     		cmp 1,r13
 3645 274a 1894     		bne .L344
 3646 274c C7CD0000 		ld.w 0[r7],r14
 3647 2750 87CD0400 		ld.w 4[r7],r12
 3648 2754 A7CD0800 		ld.w 8[r7],r13
 3649 2758 47CD0C00 		ld.w 12[r7],r10
 3650 275c 67CD1000 		ld.w 16[r7],r11
 3651 2760 228A     		br .L345
 3652              	.L344:
 3653 2762 C7CD0000 		ld.w 0[r7],r14
 3654 2766 CC21     		mul r12,r14
 3655 2768 C35D     		sar 3,r14
 3656 276a A6CD7C00 		ld.w 124[r6],r13
 3657 276e 87CD0400 		ld.w 4[r7],r12
 3658 2772 8D21     		mul r13,r12
 3659 2774 835D     		sar 3,r12
 3660 2776 E6CD8000 		ld.w 128[r6],r15
 3661 277a A7CD0800 		ld.w 8[r7],r13
 3662 277e AF21     		mul r15,r13
 3663 2780 A35D     		sar 3,r13
 3664              	.L345:
 3665 2782 C8DD0000 		st.w r14,0[r8]
 3666 2786 88DD0400 		st.w r12,4[r8]
 3667 278a A8DD0800 		st.w r13,8[r8]
 3668 278e 48DD0C00 		st.w r10,12[r8]
 3669 2792 68DD1000 		st.w r11,16[r8]
 3670 2796 E6CD2800 		ld.w 40[r6],r15
 3671 279a 06CE2C00 		ld.w 44[r6],r16
 3672 279e 26CE3000 		ld.w 48[r6],r17
 3673 27a2 E00D     		cmp r0,r15
 3674 27a4 0C94     		bne .L346
 3675 27a6 000E     		cmp r0,r16
 3676 27a8 0894     		bne .L346
 3677 27aa 200E     		cmp r0,r17
 3678 27ac 1494     		bne .L348
 3679 27ae E68A     		br .L347
 3680              	.L346:
 3681 27b0 E00D     		cmp r0,r15
 3682 27b2 069C     		bge .L349
 3683 27b4 EFA56701 		addi 359,r15,r15
 3684              	.L349:
 3685 27b8 000E     		cmp r0,r16
 3686 27ba 069C     		bge .L348
 3687 27bc 10A66701 		addi 359,r16,r16
 3688              	.L348:
 3689 27c0 200E     		cmp r0,r17
GAS LISTING /tmp/ccjfHZuC.s 			page 93


 3690 27c2 069C     		bge .L350
 3691 27c4 31A66701 		addi 359,r17,r17
 3692              	.L350:
 3693 27c8 000E     		cmp r0,r16
 3694 27ca 0894     		bne .L351
 3695 27cc 0E02     		mov r14,r16
 3696 27ce CD01     		mov r13,r14
 3697 27d0 3C8A     		br .L352
 3698              	.L351:
 3699 27d2 0252     		shl 2,r16
 3700 27d4 40BE0000 		movhi hi(_cosine),r0,r18
 3701 27d8 52A20000 		movea lo(_cosine),r18,r18
 3702 27dc 5006     		add r16,r18
 3703 27de 72CE0000 		ld.w 0[r18],r19
 3704 27e2 F300     		mov r19,r7
 3705 27e4 EE20     		mul r14,r7
 3706 27e6 E35C     		sar 3,r7
 3707 27e8 40BE0000 		movhi hi(_sine),r0,r18
 3708 27ec 52A20000 		movea lo(_sine),r18,r18
 3709 27f0 1206     		add r18,r16
 3710 27f2 50CE0000 		ld.w 0[r16],r18
 3711 27f6 1202     		mov r18,r16
 3712 27f8 0D22     		mul r13,r16
 3713 27fa 035E     		sar 3,r16
 3714 27fc 0706     		add r7,r16
 3715 27fe B321     		mul r19,r13
 3716 2800 A35D     		sar 3,r13
 3717 2802 523E     		not r18,r18
 3718 2804 4146     		add 1,r18
 3719 2806 D221     		mul r18,r14
 3720 2808 C35D     		sar 3,r14
 3721 280a CD05     		add r13,r14
 3722              	.L352:
 3723 280c E00D     		cmp r0,r15
 3724 280e 0694     		bne .L353
 3725 2810 AE01     		mov r14,r13
 3726 2812 3E8A     		br .L354
 3727              	.L353:
 3728 2814 E251     		shl 2,r15
 3729 2816 A0BD0000 		movhi hi(_cosine),r0,r13
 3730 281a ADA10000 		movea lo(_cosine),r13,r13
 3731 281e AF05     		add r15,r13
 3732 2820 4DCE0000 		ld.w 0[r13],r18
 3733 2824 6E02     		mov r14,r19
 3734 2826 7222     		mul r18,r19
 3735 2828 635E     		sar 3,r19
 3736 282a A0BD0000 		movhi hi(_sine),r0,r13
 3737 282e ADA10000 		movea lo(_sine),r13,r13
 3738 2832 ED05     		add r13,r15
 3739 2834 EFCD0000 		ld.w 0[r15],r15
 3740 2838 AF01     		mov r15,r13
 3741 283a AC21     		mul r12,r13
 3742 283c A35D     		sar 3,r13
 3743 283e B305     		add r19,r13
 3744 2840 4C22     		mul r12,r18
 3745 2842 435E     		sar 3,r18
 3746 2844 EF3D     		not r15,r15
GAS LISTING /tmp/ccjfHZuC.s 			page 94


 3747 2846 E145     		add 1,r15
 3748 2848 CF21     		mul r15,r14
 3749 284a C35D     		sar 3,r14
 3750 284c 8E01     		mov r14,r12
 3751 284e 9205     		add r18,r12
 3752              	.L354:
 3753 2850 200E     		cmp r0,r17
 3754 2852 0694     		bne .L355
 3755 2854 D001     		mov r16,r14
 3756 2856 3E8A     		br .L347
 3757              	.L355:
 3758 2858 2252     		shl 2,r17
 3759 285a C0BD0000 		movhi hi(_cosine),r0,r14
 3760 285e CEA10000 		movea lo(_cosine),r14,r14
 3761 2862 D105     		add r17,r14
 3762 2864 4ECE0000 		ld.w 0[r14],r18
 3763 2868 7002     		mov r16,r19
 3764 286a 7222     		mul r18,r19
 3765 286c 635E     		sar 3,r19
 3766 286e C0BD0000 		movhi hi(_sine),r0,r14
 3767 2872 CEA10000 		movea lo(_sine),r14,r14
 3768 2876 2E06     		add r14,r17
 3769 2878 F1CD0000 		ld.w 0[r17],r15
 3770 287c CC01     		mov r12,r14
 3771 287e CF21     		mul r15,r14
 3772 2880 C35D     		sar 3,r14
 3773 2882 D305     		add r19,r14
 3774 2884 4C22     		mul r12,r18
 3775 2886 435E     		sar 3,r18
 3776 2888 EF3D     		not r15,r15
 3777 288a E145     		add 1,r15
 3778 288c 0F22     		mul r15,r16
 3779 288e 035E     		sar 3,r16
 3780 2890 9201     		mov r18,r12
 3781 2892 9005     		add r16,r12
 3782              	.L347:
 3783 2894 C8DD0000 		st.w r14,0[r8]
 3784 2898 88DD0400 		st.w r12,4[r8]
 3785 289c A8DD0800 		st.w r13,8[r8]
 3786 28a0 48DD0C00 		st.w r10,12[r8]
 3787 28a4 68DD1000 		st.w r11,16[r8]
 3788 28a8 E6CD0000 		ld.w 0[r6],r15
 3789 28ac CF05     		add r15,r14
 3790 28ae E6CD0400 		ld.w 4[r6],r15
 3791 28b2 8F05     		add r15,r12
 3792 28b4 E6CD0800 		ld.w 8[r6],r15
 3793 28b8 AF05     		add r15,r13
 3794 28ba C8DD0000 		st.w r14,0[r8]
 3795 28be 88DD0400 		st.w r12,4[r8]
 3796 28c2 A8DD0800 		st.w r13,8[r8]
 3797 28c6 E0BD0000 		movhi hi(_cam),r0,r15
 3798 28ca EFA10000 		movea lo(_cam),r15,r15
 3799 28ce EFCD6400 		ld.w 100[r15],r15
 3800 28d2 E00D     		cmp r0,r15
 3801 28d4 2A94     		bne .L356
 3802 28d6 00BE0000 		movhi hi(_cam),r0,r16
 3803 28da 10A20000 		movea lo(_cam),r16,r16
GAS LISTING /tmp/ccjfHZuC.s 			page 95


 3804 28de 10CE6800 		ld.w 104[r16],r16
 3805 28e2 000E     		cmp r0,r16
 3806 28e4 1A94     		bne .L356
 3807 28e6 E0BD0000 		movhi hi(_cam),r0,r15
 3808 28ea EFA10000 		movea lo(_cam),r15,r15
 3809 28ee 0FCE6C00 		ld.w 108[r15],r16
 3810 28f2 000E     		cmp r0,r16
 3811 28f4 0684     		be .+6
 3812 28f6 00A86A01 		jr .L357
 3813 28fa 00A82801 		jr .L358
 3814              	.L356:
 3815 28fe EF3D     		not r15,r15
 3816 2900 E145     		add 1,r15
 3817 2902 00BE0000 		movhi hi(_cam),r0,r16
 3818 2906 10A20000 		movea lo(_cam),r16,r16
 3819 290a 30CE6800 		ld.w 104[r16],r17
 3820 290e 313E     		not r17,r17
 3821 2910 2146     		add 1,r17
 3822 2912 10CE6C00 		ld.w 108[r16],r16
 3823 2916 103E     		not r16,r16
 3824 2918 0146     		add 1,r16
 3825 291a E00D     		cmp r0,r15
 3826 291c 0E94     		bne .L359
 3827 291e 200E     		cmp r0,r17
 3828 2920 0A94     		bne .L359
 3829              	.L369:
 3830 2922 000E     		cmp r0,r16
 3831 2924 EA84     		be .L360
 3832 2926 2042     		mov 0,r17
 3833 2928 128A     		br .L361
 3834              	.L359:
 3835 292a E00D     		cmp r0,r15
 3836 292c 069C     		bge .L362
 3837 292e EFA56701 		addi 359,r15,r15
 3838              	.L362:
 3839 2932 200E     		cmp r0,r17
 3840 2934 069C     		bge .L361
 3841 2936 31A66701 		addi 359,r17,r17
 3842              	.L361:
 3843 293a 000E     		cmp r0,r16
 3844 293c 069C     		bge .L363
 3845 293e 10A66701 		addi 359,r16,r16
 3846              	.L363:
 3847 2942 200E     		cmp r0,r17
 3848 2944 0894     		bne .L364
 3849 2946 2E02     		mov r14,r17
 3850 2948 CD01     		mov r13,r14
 3851 294a 3C8A     		br .L365
 3852              	.L364:
 3853 294c 2252     		shl 2,r17
 3854 294e 40BE0000 		movhi hi(_cosine),r0,r18
 3855 2952 52A20000 		movea lo(_cosine),r18,r18
 3856 2956 5106     		add r17,r18
 3857 2958 72CE0000 		ld.w 0[r18],r19
 3858 295c D300     		mov r19,r6
 3859 295e CE20     		mul r14,r6
 3860 2960 C35C     		sar 3,r6
GAS LISTING /tmp/ccjfHZuC.s 			page 96


 3861 2962 40BE0000 		movhi hi(_sine),r0,r18
 3862 2966 52A20000 		movea lo(_sine),r18,r18
 3863 296a 3206     		add r18,r17
 3864 296c 51CE0000 		ld.w 0[r17],r18
 3865 2970 3202     		mov r18,r17
 3866 2972 2D22     		mul r13,r17
 3867 2974 235E     		sar 3,r17
 3868 2976 2606     		add r6,r17
 3869 2978 B321     		mul r19,r13
 3870 297a A35D     		sar 3,r13
 3871 297c 523E     		not r18,r18
 3872 297e 4146     		add 1,r18
 3873 2980 D221     		mul r18,r14
 3874 2982 C35D     		sar 3,r14
 3875 2984 CD05     		add r13,r14
 3876              	.L365:
 3877 2986 E00D     		cmp r0,r15
 3878 2988 0694     		bne .L366
 3879 298a AE01     		mov r14,r13
 3880 298c 3E8A     		br .L367
 3881              	.L366:
 3882 298e E251     		shl 2,r15
 3883 2990 A0BD0000 		movhi hi(_cosine),r0,r13
 3884 2994 ADA10000 		movea lo(_cosine),r13,r13
 3885 2998 AF05     		add r15,r13
 3886 299a 4DCE0000 		ld.w 0[r13],r18
 3887 299e 6E02     		mov r14,r19
 3888 29a0 7222     		mul r18,r19
 3889 29a2 635E     		sar 3,r19
 3890 29a4 A0BD0000 		movhi hi(_sine),r0,r13
 3891 29a8 ADA10000 		movea lo(_sine),r13,r13
 3892 29ac ED05     		add r13,r15
 3893 29ae EFCD0000 		ld.w 0[r15],r15
 3894 29b2 AF01     		mov r15,r13
 3895 29b4 AC21     		mul r12,r13
 3896 29b6 A35D     		sar 3,r13
 3897 29b8 B305     		add r19,r13
 3898 29ba 4C22     		mul r12,r18
 3899 29bc 435E     		sar 3,r18
 3900 29be EF3D     		not r15,r15
 3901 29c0 E145     		add 1,r15
 3902 29c2 CF21     		mul r15,r14
 3903 29c4 C35D     		sar 3,r14
 3904 29c6 8E01     		mov r14,r12
 3905 29c8 9205     		add r18,r12
 3906              	.L367:
 3907 29ca 000E     		cmp r0,r16
 3908 29cc 0694     		bne .L368
 3909 29ce D101     		mov r17,r14
 3910 29d0 3E8A     		br .L360
 3911              	.L368:
 3912 29d2 0252     		shl 2,r16
 3913 29d4 C0BD0000 		movhi hi(_cosine),r0,r14
 3914 29d8 CEA10000 		movea lo(_cosine),r14,r14
 3915 29dc D005     		add r16,r14
 3916 29de 4ECE0000 		ld.w 0[r14],r18
 3917 29e2 7102     		mov r17,r19
GAS LISTING /tmp/ccjfHZuC.s 			page 97


 3918 29e4 7222     		mul r18,r19
 3919 29e6 635E     		sar 3,r19
 3920 29e8 C0BD0000 		movhi hi(_sine),r0,r14
 3921 29ec CEA10000 		movea lo(_sine),r14,r14
 3922 29f0 0E06     		add r14,r16
 3923 29f2 F0CD0000 		ld.w 0[r16],r15
 3924 29f6 CC01     		mov r12,r14
 3925 29f8 CF21     		mul r15,r14
 3926 29fa C35D     		sar 3,r14
 3927 29fc D305     		add r19,r14
 3928 29fe 4C22     		mul r12,r18
 3929 2a00 435E     		sar 3,r18
 3930 2a02 EF3D     		not r15,r15
 3931 2a04 E145     		add 1,r15
 3932 2a06 2F22     		mul r15,r17
 3933 2a08 235E     		sar 3,r17
 3934 2a0a 9201     		mov r18,r12
 3935 2a0c 9105     		add r17,r12
 3936              	.L360:
 3937 2a0e C8DD0000 		st.w r14,0[r8]
 3938 2a12 88DD0400 		st.w r12,4[r8]
 3939 2a16 A8DD0800 		st.w r13,8[r8]
 3940 2a1a 48DD0C00 		st.w r10,12[r8]
 3941 2a1e 68DD1000 		st.w r11,16[r8]
 3942              	.L358:
 3943 2a22 80BD0000 		movhi hi(_cam),r0,r12
 3944 2a26 8CA10000 		movea lo(_cam),r12,r12
 3945 2a2a C8CD0400 		ld.w 4[r8],r14
 3946 2a2e ACCD0400 		ld.w 4[r12],r13
 3947 2a32 CD09     		sub r13,r14
 3948 2a34 A8CD0800 		ld.w 8[r8],r13
 3949 2a38 ECCD0800 		ld.w 8[r12],r15
 3950 2a3c AF09     		sub r15,r13
 3951 2a3e 08CE0000 		ld.w 0[r8],r16
 3952 2a42 ECCD0000 		ld.w 0[r12],r15
 3953 2a46 9001     		mov r16,r12
 3954 2a48 8F09     		sub r15,r12
 3955 2a4a 88DD0000 		st.w r12,0[r8]
 3956 2a4e C8DD0400 		st.w r14,4[r8]
 3957 2a52 A8DD0800 		st.w r13,8[r8]
 3958 2a56 48DD0C00 		st.w r10,12[r8]
 3959 2a5a 68DD1000 		st.w r11,16[r8]
 3960 2a5e 1F18     		jmp [r31]
 3961              	.L357:
 3962 2a60 103E     		not r16,r16
 3963 2a62 0146     		add 1,r16
 3964 2a64 E041     		mov 0,r15
 3965 2a66 FFABBCFE 		jr .L369
 3966              		.size	_g3d_renderVector3d, .-_g3d_renderVector3d
 3967 2a6a 0000     		.align 2
 3968              		.global _g3d_renderObject
 3969              		.type	_g3d_renderObject, @function
 3970              	_g3d_renderObject:
 3971 2a6c 5F01     		mov r31,r10
 3972 2a6e 00AC0000 		jal __save_r22_r31
 3973 2a72 63A4D8FF 		addi -40,sp,sp
 3974 2a76 8603     		mov r6,r28
GAS LISTING /tmp/ccjfHZuC.s 			page 98


 3975 2a78 46CDC400 		ld.w 196[r6],r10
 3976 2a7c EACE0000 		ld.w 0[r10],r23
 3977              	#APP
 3978              	# 498 "G3d.c" 1
 3979              		mov 2,r15 
 3980              	 ldsr r15,sr24
 3981              	# 0 "" 2
 3982              	#NO_APP
 3983 2a84 E00E     		cmp r0,r23
 3984 2a86 968E     		ble .L372
 3985 2a88 A0BF0000 		movhi hi(_vertexBuffer),r0,r29
 3986 2a8c BDA30000 		movea lo(_vertexBuffer),r29,r29
 3987 2a90 4041     		mov 0,r10
 3988 2a92 43A72400 		addi 36,sp,r26
 3989 2a96 23A71000 		addi 16,sp,r25
 3990 2a9a C0BE0000 		movhi hi(_g3d_renderVector3d),r0,r22
 3991 2a9e 16A30000 		movea lo(_g3d_renderVector3d),r22,r24
 3992              	.L373:
 3993 2aa2 7CCDC400 		ld.w 196[r28],r11
 3994 2aa6 6AA70300 		addi 3,r10,r27
 3995 2aaa 9B01     		mov r27,r12
 3996 2aac 8251     		shl 2,r12
 3997 2aae 8B05     		add r11,r12
 3998 2ab0 8CCD0000 		ld.w 0[r12],r12
 3999 2ab4 83DD2400 		st.w r12,36[sp]
 4000 2ab8 8AA50400 		addi 4,r10,r12
 4001 2abc 8251     		shl 2,r12
 4002 2abe 8B05     		add r11,r12
 4003 2ac0 8CCD0000 		ld.w 0[r12],r12
 4004 2ac4 83DD2800 		st.w r12,40[sp]
 4005 2ac8 8AA50500 		addi 5,r10,r12
 4006 2acc 8251     		shl 2,r12
 4007 2ace 6C05     		add r12,r11
 4008 2ad0 6BCD0000 		ld.w 0[r11],r11
 4009 2ad4 63DD2C00 		st.w r11,44[sp]
 4010 2ad8 400D     		cmp r0,r10
 4011 2ada 2249     		setf z,r9
 4012 2adc DC00     		mov r28,r6
 4013 2ade FA00     		mov r26,r7
 4014 2ae0 1901     		mov r25,r8
 4015 2ae2 00AC0400 		jal .+4
 4016 2ae6 E447     		add 4,r31
 4017 2ae8 1818     		jmp r24
 4018 2aea 43CD1000 		ld.w 16[sp],r10
 4019 2aee 5DDD0000 		st.w r10,0[r29]
 4020 2af2 43CD1400 		ld.w 20[sp],r10
 4021 2af6 5DDD0400 		st.w r10,4[r29]
 4022 2afa 43CD1800 		ld.w 24[sp],r10
 4023 2afe 5DDD0800 		st.w r10,8[r29]
 4024 2b02 43CD1C00 		ld.w 28[sp],r10
 4025 2b06 5DDD0C00 		st.w r10,12[r29]
 4026 2b0a 43CD2000 		ld.w 32[sp],r10
 4027 2b0e 5DDD1000 		st.w r10,16[r29]
 4028 2b12 5B01     		mov r27,r10
 4029 2b14 BDA71400 		addi 20,r29,r29
 4030 2b18 FB0E     		cmp r27,r23
 4031 2b1a 889F     		bgt .L373
GAS LISTING /tmp/ccjfHZuC.s 			page 99


 4032              	.L372:
 4033              	#APP
 4034              	# 510 "G3d.c" 1
 4035              		ldsr r0,sr24
 4036              	# 0 "" 2
 4037              	#NO_APP
 4038 2b1e 63A42800 		addi 40,sp,sp
 4039 2b22 00A80000 		jr __return_r22_r31
 4040              		.size	_g3d_renderObject, .-_g3d_renderObject
 4041 2b26 0000     		.align 2
 4042              		.global _g3d_clipObject
 4043              		.type	_g3d_clipObject, @function
 4044              	_g3d_clipObject:
 4045 2b28 40BD0000 		movhi hi(_cam),r0,r10
 4046 2b2c 4AA10000 		movea lo(_cam),r10,r10
 4047 2b30 A6CD0000 		ld.w 0[r6],r13
 4048 2b34 6ACD0000 		ld.w 0[r10],r11
 4049 2b38 AB09     		sub r11,r13
 4050 2b3a 66CD0400 		ld.w 4[r6],r11
 4051 2b3e 8ACD0400 		ld.w 4[r10],r12
 4052 2b42 6C09     		sub r12,r11
 4053 2b44 86CD0800 		ld.w 8[r6],r12
 4054 2b48 CACD0800 		ld.w 8[r10],r14
 4055 2b4c 8E09     		sub r14,r12
 4056 2b4e 4ACD6400 		ld.w 100[r10],r10
 4057 2b52 400D     		cmp r0,r10
 4058 2b54 2A94     		bne .L377
 4059 2b56 C0BD0000 		movhi hi(_cam),r0,r14
 4060 2b5a CEA10000 		movea lo(_cam),r14,r14
 4061 2b5e CECD6800 		ld.w 104[r14],r14
 4062 2b62 C00D     		cmp r0,r14
 4063 2b64 1A94     		bne .L377
 4064 2b66 40BD0000 		movhi hi(_cam),r0,r10
 4065 2b6a 4AA10000 		movea lo(_cam),r10,r10
 4066 2b6e CACD6C00 		ld.w 108[r10],r14
 4067 2b72 C00D     		cmp r0,r14
 4068 2b74 0684     		be .+6
 4069 2b76 00A88C01 		jr .L378
 4070 2b7a 00A81401 		jr .L379
 4071              	.L377:
 4072 2b7e 4A3D     		not r10,r10
 4073 2b80 4145     		add 1,r10
 4074 2b82 C0BD0000 		movhi hi(_cam),r0,r14
 4075 2b86 CEA10000 		movea lo(_cam),r14,r14
 4076 2b8a EECD6800 		ld.w 104[r14],r15
 4077 2b8e EF3D     		not r15,r15
 4078 2b90 E145     		add 1,r15
 4079 2b92 CECD6C00 		ld.w 108[r14],r14
 4080 2b96 CE3D     		not r14,r14
 4081 2b98 C145     		add 1,r14
 4082 2b9a 400D     		cmp r0,r10
 4083 2b9c 0E94     		bne .L380
 4084 2b9e E00D     		cmp r0,r15
 4085 2ba0 0A94     		bne .L380
 4086              	.L393:
 4087 2ba2 C00D     		cmp r0,r14
 4088 2ba4 EA84     		be .L379
GAS LISTING /tmp/ccjfHZuC.s 			page 100


 4089 2ba6 E041     		mov 0,r15
 4090 2ba8 128A     		br .L381
 4091              	.L380:
 4092 2baa 400D     		cmp r0,r10
 4093 2bac 069C     		bge .L382
 4094 2bae 4AA56701 		addi 359,r10,r10
 4095              	.L382:
 4096 2bb2 E00D     		cmp r0,r15
 4097 2bb4 069C     		bge .L381
 4098 2bb6 EFA56701 		addi 359,r15,r15
 4099              	.L381:
 4100 2bba C00D     		cmp r0,r14
 4101 2bbc 069C     		bge .L383
 4102 2bbe CEA56701 		addi 359,r14,r14
 4103              	.L383:
 4104 2bc2 E00D     		cmp r0,r15
 4105 2bc4 0894     		bne .L384
 4106 2bc6 ED01     		mov r13,r15
 4107 2bc8 AC01     		mov r12,r13
 4108 2bca 3C8A     		br .L385
 4109              	.L384:
 4110 2bcc E251     		shl 2,r15
 4111 2bce 00BE0000 		movhi hi(_cosine),r0,r16
 4112 2bd2 10A20000 		movea lo(_cosine),r16,r16
 4113 2bd6 0F06     		add r15,r16
 4114 2bd8 30CE0000 		ld.w 0[r16],r17
 4115 2bdc 5102     		mov r17,r18
 4116 2bde 4D22     		mul r13,r18
 4117 2be0 435E     		sar 3,r18
 4118 2be2 00BE0000 		movhi hi(_sine),r0,r16
 4119 2be6 10A20000 		movea lo(_sine),r16,r16
 4120 2bea F005     		add r16,r15
 4121 2bec 0FCE0000 		ld.w 0[r15],r16
 4122 2bf0 F001     		mov r16,r15
 4123 2bf2 EC21     		mul r12,r15
 4124 2bf4 E35D     		sar 3,r15
 4125 2bf6 F205     		add r18,r15
 4126 2bf8 9121     		mul r17,r12
 4127 2bfa 835D     		sar 3,r12
 4128 2bfc 103E     		not r16,r16
 4129 2bfe 0146     		add 1,r16
 4130 2c00 B021     		mul r16,r13
 4131 2c02 A35D     		sar 3,r13
 4132 2c04 AC05     		add r12,r13
 4133              	.L385:
 4134 2c06 400D     		cmp r0,r10
 4135 2c08 0694     		bne .L386
 4136 2c0a 8D01     		mov r13,r12
 4137 2c0c 3E8A     		br .L387
 4138              	.L386:
 4139 2c0e 4251     		shl 2,r10
 4140 2c10 80BD0000 		movhi hi(_cosine),r0,r12
 4141 2c14 8CA10000 		movea lo(_cosine),r12,r12
 4142 2c18 8A05     		add r10,r12
 4143 2c1a 0CCE0000 		ld.w 0[r12],r16
 4144 2c1e 2D02     		mov r13,r17
 4145 2c20 3022     		mul r16,r17
GAS LISTING /tmp/ccjfHZuC.s 			page 101


 4146 2c22 235E     		sar 3,r17
 4147 2c24 80BD0000 		movhi hi(_sine),r0,r12
 4148 2c28 8CA10000 		movea lo(_sine),r12,r12
 4149 2c2c 4C05     		add r12,r10
 4150 2c2e 4ACD0000 		ld.w 0[r10],r10
 4151 2c32 8A01     		mov r10,r12
 4152 2c34 8B21     		mul r11,r12
 4153 2c36 835D     		sar 3,r12
 4154 2c38 9105     		add r17,r12
 4155 2c3a 0B22     		mul r11,r16
 4156 2c3c 035E     		sar 3,r16
 4157 2c3e 4A3D     		not r10,r10
 4158 2c40 4145     		add 1,r10
 4159 2c42 AA21     		mul r10,r13
 4160 2c44 A35D     		sar 3,r13
 4161 2c46 6D01     		mov r13,r11
 4162 2c48 7005     		add r16,r11
 4163              	.L387:
 4164 2c4a C00D     		cmp r0,r14
 4165 2c4c 0694     		bne .L388
 4166 2c4e AF01     		mov r15,r13
 4167 2c50 3E8A     		br .L379
 4168              	.L388:
 4169 2c52 C251     		shl 2,r14
 4170 2c54 40BD0000 		movhi hi(_cosine),r0,r10
 4171 2c58 4AA10000 		movea lo(_cosine),r10,r10
 4172 2c5c 4E05     		add r14,r10
 4173 2c5e 0ACE0000 		ld.w 0[r10],r16
 4174 2c62 2F02     		mov r15,r17
 4175 2c64 3022     		mul r16,r17
 4176 2c66 235E     		sar 3,r17
 4177 2c68 40BD0000 		movhi hi(_sine),r0,r10
 4178 2c6c 4AA10000 		movea lo(_sine),r10,r10
 4179 2c70 CA05     		add r10,r14
 4180 2c72 4ECD0000 		ld.w 0[r14],r10
 4181 2c76 AB01     		mov r11,r13
 4182 2c78 AA21     		mul r10,r13
 4183 2c7a A35D     		sar 3,r13
 4184 2c7c B105     		add r17,r13
 4185 2c7e 0B22     		mul r11,r16
 4186 2c80 035E     		sar 3,r16
 4187 2c82 4A3D     		not r10,r10
 4188 2c84 4145     		add 1,r10
 4189 2c86 EA21     		mul r10,r15
 4190 2c88 E35D     		sar 3,r15
 4191 2c8a 7001     		mov r16,r11
 4192 2c8c 6F05     		add r15,r11
 4193              	.L379:
 4194 2c8e 40BD0000 		movhi hi(_cam),r0,r10
 4195 2c92 4AA10000 		movea lo(_cam),r10,r10
 4196 2c96 4ACD8C00 		ld.w 140[r10],r10
 4197 2c9a CC01     		mov r12,r14
 4198 2c9c CA05     		add r10,r14
 4199 2c9e 06DCA400 		st.w r0,164[r6]
 4200 2ca2 AA21     		mul r10,r13
 4201 2ca4 F841     		mov -8,r15
 4202 2ca6 AF35     		and r15,r13
GAS LISTING /tmp/ccjfHZuC.s 			page 102


 4203 2ca8 AE25     		div r14,r13
 4204 2caa ADA50005 		addi 1280,r13,r13
 4205 2cae A35D     		sar 3,r13
 4206 2cb0 E0A14001 		movea lo(320),r0,r15
 4207 2cb4 AF0D     		cmp r15,r13
 4208 2cb6 0886     		bnh .L389
 4209 2cb8 A141     		mov 1,r13
 4210 2cba A6DDA400 		st.w r13,164[r6]
 4211              	.L389:
 4212 2cbe 4B21     		mul r11,r10
 4213 2cc0 1842     		mov -8,r16
 4214 2cc2 5035     		and r16,r10
 4215 2cc4 4E25     		div r14,r10
 4216 2cc6 4AA51003 		addi 784,r10,r10
 4217 2cca 435D     		sar 3,r10
 4218 2ccc C0A18801 		movea lo(392),r0,r14
 4219 2cd0 CA09     		sub r10,r14
 4220 2cd2 40A14C02 		movea lo(588),r0,r10
 4221 2cd6 CA0D     		cmp r10,r14
 4222 2cd8 0886     		bnh .L390
 4223 2cda 4141     		mov 1,r10
 4224 2cdc 46DDA400 		st.w r10,164[r6]
 4225              	.L390:
 4226 2ce0 40BD0000 		movhi hi(_cam),r0,r10
 4227 2ce4 4AA10000 		movea lo(_cam),r10,r10
 4228 2ce8 4ACD8C00 		ld.w 140[r10],r10
 4229 2cec 415D     		sar 1,r10
 4230 2cee 4C0D     		cmp r12,r10
 4231 2cf0 0A9E     		bgt .L391
 4232 2cf2 40BD0100 		movhi hi(65536),r0,r10
 4233 2cf6 8A0D     		cmp r10,r12
 4234 2cf8 148E     		ble .L394
 4235              	.L391:
 4236 2cfa 4141     		mov 1,r10
 4237 2cfc 46DDA400 		st.w r10,164[r6]
 4238 2d00 1F18     		jmp [r31]
 4239              	.L378:
 4240 2d02 CE3D     		not r14,r14
 4241 2d04 C145     		add 1,r14
 4242 2d06 4041     		mov 0,r10
 4243 2d08 FFAB9AFE 		jr .L393
 4244              	.L394:
 4245 2d0c 1F18     		jmp [r31]
 4246              		.size	_g3d_clipObject, .-_g3d_clipObject
 4247 2d0e 0000     		.align 2
 4248              		.global _g3d_drawObject
 4249              		.type	_g3d_drawObject, @function
 4250              	_g3d_drawObject:
 4251 2d10 5F01     		mov r31,r10
 4252 2d12 00AC0000 		jal __save_r2_r31
 4253 2d16 7C44     		add -4,sp
 4254 2d18 8603     		mov r6,r28
 4255 2d1a 46CDA800 		ld.w 168[r6],r10
 4256 2d1e 414D     		cmp 1,r10
 4257 2d20 0684     		be .+6
 4258 2d22 00A8D001 		jr .L396
 4259 2d26 40BD0000 		movhi hi(_cam),r0,r10
GAS LISTING /tmp/ccjfHZuC.s 			page 103


 4260 2d2a 4AA10000 		movea lo(_cam),r10,r10
 4261 2d2e 86CD0000 		ld.w 0[r6],r12
 4262 2d32 6ACD0000 		ld.w 0[r10],r11
 4263 2d36 8B09     		sub r11,r12
 4264 2d38 A6CD0400 		ld.w 4[r6],r13
 4265 2d3c 6ACD0400 		ld.w 4[r10],r11
 4266 2d40 AB09     		sub r11,r13
 4267 2d42 C6CD0800 		ld.w 8[r6],r14
 4268 2d46 6ACD0800 		ld.w 8[r10],r11
 4269 2d4a CB09     		sub r11,r14
 4270 2d4c 4ACD6400 		ld.w 100[r10],r10
 4271 2d50 400D     		cmp r0,r10
 4272 2d52 2A94     		bne .L397
 4273 2d54 60BD0000 		movhi hi(_cam),r0,r11
 4274 2d58 6BA10000 		movea lo(_cam),r11,r11
 4275 2d5c 6BCD6800 		ld.w 104[r11],r11
 4276 2d60 600D     		cmp r0,r11
 4277 2d62 1A94     		bne .L397
 4278 2d64 40BD0000 		movhi hi(_cam),r0,r10
 4279 2d68 4AA10000 		movea lo(_cam),r10,r10
 4280 2d6c 6ACD6C00 		ld.w 108[r10],r11
 4281 2d70 600D     		cmp r0,r11
 4282 2d72 0684     		be .+6
 4283 2d74 00A85E03 		jr .L398
 4284 2d78 00A80801 		jr .L399
 4285              	.L397:
 4286 2d7c 4A3D     		not r10,r10
 4287 2d7e 4145     		add 1,r10
 4288 2d80 60BD0000 		movhi hi(_cam),r0,r11
 4289 2d84 6BA10000 		movea lo(_cam),r11,r11
 4290 2d88 EBCD6800 		ld.w 104[r11],r15
 4291 2d8c EF3D     		not r15,r15
 4292 2d8e E145     		add 1,r15
 4293 2d90 6BCD6C00 		ld.w 108[r11],r11
 4294 2d94 6B3D     		not r11,r11
 4295 2d96 6145     		add 1,r11
 4296 2d98 400D     		cmp r0,r10
 4297 2d9a 0E94     		bne .L400
 4298 2d9c E00D     		cmp r0,r15
 4299 2d9e 0A94     		bne .L400
 4300              	.L423:
 4301 2da0 600D     		cmp r0,r11
 4302 2da2 DE84     		be .L399
 4303 2da4 E041     		mov 0,r15
 4304 2da6 128A     		br .L401
 4305              	.L400:
 4306 2da8 400D     		cmp r0,r10
 4307 2daa 069C     		bge .L402
 4308 2dac 4AA56701 		addi 359,r10,r10
 4309              	.L402:
 4310 2db0 E00D     		cmp r0,r15
 4311 2db2 069C     		bge .L401
 4312 2db4 EFA56701 		addi 359,r15,r15
 4313              	.L401:
 4314 2db8 600D     		cmp r0,r11
 4315 2dba 069C     		bge .L403
 4316 2dbc 6BA56701 		addi 359,r11,r11
GAS LISTING /tmp/ccjfHZuC.s 			page 104


 4317              	.L403:
 4318 2dc0 E00D     		cmp r0,r15
 4319 2dc2 3E84     		be .L404
 4320 2dc4 E251     		shl 2,r15
 4321 2dc6 00BE0000 		movhi hi(_cosine),r0,r16
 4322 2dca 10A20000 		movea lo(_cosine),r16,r16
 4323 2dce 0F06     		add r15,r16
 4324 2dd0 10CE0000 		ld.w 0[r16],r16
 4325 2dd4 3002     		mov r16,r17
 4326 2dd6 2C22     		mul r12,r17
 4327 2dd8 235E     		sar 3,r17
 4328 2dda 40BE0000 		movhi hi(_sine),r0,r18
 4329 2dde 52A20000 		movea lo(_sine),r18,r18
 4330 2de2 F205     		add r18,r15
 4331 2de4 EFCD0000 		ld.w 0[r15],r15
 4332 2de8 4F02     		mov r15,r18
 4333 2dea 4E22     		mul r14,r18
 4334 2dec 435E     		sar 3,r18
 4335 2dee D021     		mul r16,r14
 4336 2df0 C35D     		sar 3,r14
 4337 2df2 EF3D     		not r15,r15
 4338 2df4 E145     		add 1,r15
 4339 2df6 8F21     		mul r15,r12
 4340 2df8 835D     		sar 3,r12
 4341 2dfa CC05     		add r12,r14
 4342 2dfc 9201     		mov r18,r12
 4343 2dfe 9105     		add r17,r12
 4344              	.L404:
 4345 2e00 400D     		cmp r0,r10
 4346 2e02 3E84     		be .L405
 4347 2e04 4251     		shl 2,r10
 4348 2e06 E0BD0000 		movhi hi(_cosine),r0,r15
 4349 2e0a EFA10000 		movea lo(_cosine),r15,r15
 4350 2e0e EA05     		add r10,r15
 4351 2e10 EFCD0000 		ld.w 0[r15],r15
 4352 2e14 2E02     		mov r14,r17
 4353 2e16 2F22     		mul r15,r17
 4354 2e18 235E     		sar 3,r17
 4355 2e1a 00BE0000 		movhi hi(_sine),r0,r16
 4356 2e1e 10A20000 		movea lo(_sine),r16,r16
 4357 2e22 5005     		add r16,r10
 4358 2e24 4ACD0000 		ld.w 0[r10],r10
 4359 2e28 0A02     		mov r10,r16
 4360 2e2a 0D22     		mul r13,r16
 4361 2e2c 035E     		sar 3,r16
 4362 2e2e AF21     		mul r15,r13
 4363 2e30 A35D     		sar 3,r13
 4364 2e32 4A3D     		not r10,r10
 4365 2e34 4145     		add 1,r10
 4366 2e36 4E21     		mul r14,r10
 4367 2e38 435D     		sar 3,r10
 4368 2e3a AA05     		add r10,r13
 4369 2e3c D101     		mov r17,r14
 4370 2e3e D005     		add r16,r14
 4371              	.L405:
 4372 2e40 600D     		cmp r0,r11
 4373 2e42 3E84     		be .L399
GAS LISTING /tmp/ccjfHZuC.s 			page 105


 4374 2e44 6251     		shl 2,r11
 4375 2e46 40BD0000 		movhi hi(_cosine),r0,r10
 4376 2e4a 4AA10000 		movea lo(_cosine),r10,r10
 4377 2e4e 4B05     		add r11,r10
 4378 2e50 EACD0000 		ld.w 0[r10],r15
 4379 2e54 0C02     		mov r12,r16
 4380 2e56 0F22     		mul r15,r16
 4381 2e58 035E     		sar 3,r16
 4382 2e5a 40BE0000 		movhi hi(_sine),r0,r18
 4383 2e5e 52A20000 		movea lo(_sine),r18,r18
 4384 2e62 7205     		add r18,r11
 4385 2e64 4BCD0000 		ld.w 0[r11],r10
 4386 2e68 6D01     		mov r13,r11
 4387 2e6a 6A21     		mul r10,r11
 4388 2e6c 635D     		sar 3,r11
 4389 2e6e AF21     		mul r15,r13
 4390 2e70 A35D     		sar 3,r13
 4391 2e72 4A3D     		not r10,r10
 4392 2e74 4145     		add 1,r10
 4393 2e76 4C21     		mul r12,r10
 4394 2e78 435D     		sar 3,r10
 4395 2e7a AA05     		add r10,r13
 4396 2e7c 8B01     		mov r11,r12
 4397 2e7e 9005     		add r16,r12
 4398              	.L399:
 4399 2e80 40BD0000 		movhi hi(_cam),r0,r10
 4400 2e84 4AA10000 		movea lo(_cam),r10,r10
 4401 2e88 4ACD8C00 		ld.w 140[r10],r10
 4402 2e8c 6E01     		mov r14,r11
 4403 2e8e 6A05     		add r10,r11
 4404 2e90 1CDCA400 		st.w r0,164[r28]
 4405 2e94 8A21     		mul r10,r12
 4406 2e96 F841     		mov -8,r15
 4407 2e98 EC35     		and r12,r15
 4408 2e9a EB25     		div r11,r15
 4409 2e9c EFA50005 		addi 1280,r15,r15
 4410 2ea0 E35D     		sar 3,r15
 4411 2ea2 80A14001 		movea lo(320),r0,r12
 4412 2ea6 EC0D     		cmp r12,r15
 4413 2ea8 0886     		bnh .L406
 4414 2eaa 8141     		mov 1,r12
 4415 2eac 9CDDA400 		st.w r12,164[r28]
 4416              	.L406:
 4417 2eb0 4D21     		mul r13,r10
 4418 2eb2 9841     		mov -8,r12
 4419 2eb4 4C35     		and r12,r10
 4420 2eb6 4B25     		div r11,r10
 4421 2eb8 4AA51003 		addi 784,r10,r10
 4422 2ebc 435D     		sar 3,r10
 4423 2ebe 60A18801 		movea lo(392),r0,r11
 4424 2ec2 6A09     		sub r10,r11
 4425 2ec4 40A14C02 		movea lo(588),r0,r10
 4426 2ec8 6A0D     		cmp r10,r11
 4427 2eca 0886     		bnh .L407
 4428 2ecc 4141     		mov 1,r10
 4429 2ece 5CDDA400 		st.w r10,164[r28]
 4430              	.L407:
GAS LISTING /tmp/ccjfHZuC.s 			page 106


 4431 2ed2 40BD0000 		movhi hi(_cam),r0,r10
 4432 2ed6 4AA10000 		movea lo(_cam),r10,r10
 4433 2eda 4ACD8C00 		ld.w 140[r10],r10
 4434 2ede 415D     		sar 1,r10
 4435 2ee0 CA0D     		cmp r10,r14
 4436 2ee2 0A8C     		blt .L408
 4437 2ee4 40BD0100 		movhi hi(65536),r0,r10
 4438 2ee8 CA0D     		cmp r10,r14
 4439 2eea 088E     		ble .L396
 4440              	.L408:
 4441 2eec 4141     		mov 1,r10
 4442 2eee 5CDDA400 		st.w r10,164[r28]
 4443              	.L396:
 4444 2ef2 5CCDA000 		ld.w 160[r28],r10
 4445 2ef6 400D     		cmp r0,r10
 4446 2ef8 0694     		bne .+6
 4447 2efa 00A8E201 		jr .L424
 4448 2efe 5CCDA400 		ld.w 164[r28],r10
 4449 2f02 414D     		cmp 1,r10
 4450 2f04 0694     		bne .+6
 4451 2f06 00A8D601 		jr .L424
 4452 2f0a 5CCDC400 		ld.w 196[r28],r10
 4453 2f0e CACE0000 		ld.w 0[r10],r22
 4454 2f12 4ACC0400 		ld.w 4[r10],r2
 4455 2f16 0ACF0800 		ld.w 8[r10],r24
 4456 2f1a DC00     		mov r28,r6
 4457 2f1c FFAFE4D0 		jal _g3d_renderObject
 4458 2f20 5604     		add r22,r2
 4459 2f22 C20E     		cmp r2,r22
 4460 2f24 068C     		blt .+6
 4461 2f26 00A8B601 		jr .L424
 4462 2f2a E0BE0000 		movhi hi(_cam),r0,r23
 4463 2f2e F7A20000 		movea lo(_cam),r23,r23
 4464 2f32 20A3C400 		movea lo(196),r0,r25
 4465 2f36 A0BE0000 		movhi hi(_g3d_drawLine),r0,r21
 4466 2f3a B5A20000 		movea lo(_g3d_drawLine),r21,r21
 4467 2f3e B8A5FFFF 		addi -1,r24,r13
 4468 2f42 A3DD1000 		st.w r13,16[sp]
 4469 2f46 8042     		mov 0,r20
 4470              	.L422:
 4471 2f48 7CCDC400 		ld.w 196[r28],r11
 4472 2f4c 56A50300 		addi 3,r22,r10
 4473 2f50 4251     		shl 2,r10
 4474 2f52 4B05     		add r11,r10
 4475 2f54 CACC0000 		ld.w 0[r10],r6
 4476 2f58 014F     		cmp 1,r24
 4477 2f5a 069E     		bgt .+6
 4478 2f5c 00A86A01 		jr .L410
 4479 2f60 4601     		mov r6,r10
 4480 2f62 4251     		shl 2,r10
 4481 2f64 C450     		shl 4,r6
 4482 2f66 CA04     		add r10,r6
 4483 2f68 00BE0000 		movhi hi(_vertexBuffer),r0,r16
 4484 2f6c 10A20000 		movea lo(_vertexBuffer),r16,r16
 4485 2f70 D004     		add r16,r6
 4486 2f72 7603     		mov r22,r27
 4487 2f74 4143     		mov 1,r26
GAS LISTING /tmp/ccjfHZuC.s 			page 107


 4488              	.L421:
 4489 2f76 6147     		add 1,r27
 4490 2f78 7CCDC400 		ld.w 196[r28],r11
 4491 2f7c 5BA50300 		addi 3,r27,r10
 4492 2f80 4251     		shl 2,r10
 4493 2f82 4B05     		add r11,r10
 4494 2f84 AACF0000 		ld.w 0[r10],r29
 4495 2f88 5D01     		mov r29,r10
 4496 2f8a 4251     		shl 2,r10
 4497 2f8c A453     		shl 4,r29
 4498 2f8e AA07     		add r10,r29
 4499 2f90 40BE0000 		movhi hi(_vertexBuffer),r0,r18
 4500 2f94 52A20000 		movea lo(_vertexBuffer),r18,r18
 4501 2f98 B207     		add r18,r29
 4502 2f9a 46CD0800 		ld.w 8[r6],r10
 4503 2f9e 77CD8C00 		ld.w 140[r23],r11
 4504 2fa2 4B0D     		cmp r11,r10
 4505 2fa4 0E9E     		bgt .L411
 4506 2fa6 9DCD0800 		ld.w 8[r29],r12
 4507 2faa 6C0D     		cmp r12,r11
 4508 2fac 0E8C     		blt .L412
 4509 2fae 00A80601 		jr .L413
 4510              	.L411:
 4511 2fb2 9DCD0800 		ld.w 8[r29],r12
 4512 2fb6 6C0D     		cmp r12,r11
 4513 2fb8 848C     		blt .L414
 4514              	.L412:
 4515 2fba 4B0D     		cmp r11,r10
 4516 2fbc 088C     		blt .L415
 4517 2fbe 8601     		mov r6,r12
 4518 2fc0 FD01     		mov r29,r15
 4519 2fc2 0E8A     		br .L416
 4520              	.L415:
 4521 2fc4 5DCD0800 		ld.w 8[r29],r10
 4522 2fc8 6A0D     		cmp r10,r11
 4523 2fca 729E     		bgt .L414
 4524 2fcc 9D01     		mov r29,r12
 4525 2fce E601     		mov r6,r15
 4526              	.L416:
 4527 2fd0 4FCD0800 		ld.w 8[r15],r10
 4528 2fd4 CCCD0800 		ld.w 8[r12],r14
 4529 2fd8 CA09     		sub r10,r14
 4530 2fda C45D     		sar 4,r14
 4531 2fdc 6CCE0000 		ld.w 0[r12],r19
 4532 2fe0 4FCE0000 		ld.w 0[r15],r18
 4533 2fe4 ECCC0400 		ld.w 4[r12],r7
 4534 2fe8 2FCE0400 		ld.w 4[r15],r17
 4535 2fec 288E     		ble .L417
 4536 2fee 8B01     		mov r11,r12
 4537 2ff0 8A09     		sub r10,r12
 4538 2ff2 4C01     		mov r12,r10
 4539 2ff4 800D     		cmp r0,r12
 4540 2ff6 1E8E     		ble .L417
 4541 2ff8 0E3E     		not r14,r16
 4542 2ffa 0146     		add 1,r16
 4543 2ffc 4E09     		sub r14,r10
 4544 2ffe 9401     		mov r20,r12
GAS LISTING /tmp/ccjfHZuC.s 			page 108


 4545              	.L418:
 4546 3000 8145     		add 1,r12
 4547 3002 5005     		add r16,r10
 4548 3004 AA01     		mov r10,r13
 4549 3006 AE05     		add r14,r13
 4550 3008 A00D     		cmp r0,r13
 4551 300a F69F     		bgt .L418
 4552 300c 800D     		cmp r0,r12
 4553 300e 088E     		ble .L419
 4554 3010 9F45     		add -1,r12
 4555 3012 048A     		br .L419
 4556              	.L417:
 4557 3014 9401     		mov r20,r12
 4558              	.L419:
 4559 3016 6FDD0800 		st.w r11,8[r15]
 4560 301a 720A     		sub r18,r19
 4561 301c 645E     		sar 4,r19
 4562 301e 6C22     		mul r12,r19
 4563 3020 4FCD0000 		ld.w 0[r15],r10
 4564 3024 5305     		add r19,r10
 4565 3026 4FDD0000 		st.w r10,0[r15]
 4566 302a 4701     		mov r7,r10
 4567 302c 5109     		sub r17,r10
 4568 302e 445D     		sar 4,r10
 4569 3030 8A21     		mul r10,r12
 4570 3032 4FCD0400 		ld.w 4[r15],r10
 4571 3036 8A05     		add r10,r12
 4572 3038 8FDD0400 		st.w r12,4[r15]
 4573              	.L414:
 4574 303c 86CD0000 		ld.w 0[r6],r12
 4575 3040 8B21     		mul r11,r12
 4576 3042 B841     		mov -8,r13
 4577 3044 8D35     		and r13,r12
 4578 3046 46CD0800 		ld.w 8[r6],r10
 4579 304a 4B05     		add r11,r10
 4580 304c 8A25     		div r10,r12
 4581 304e 8CA50005 		addi 1280,r12,r12
 4582 3052 835D     		sar 3,r12
 4583 3054 86DD0C00 		st.w r12,12[r6]
 4584 3058 86CD0400 		ld.w 4[r6],r12
 4585 305c 8B21     		mul r11,r12
 4586 305e 8D35     		and r13,r12
 4587 3060 8A25     		div r10,r12
 4588 3062 4CA51003 		addi 784,r12,r10
 4589 3066 435D     		sar 3,r10
 4590 3068 1902     		mov r25,r16
 4591 306a 0A0A     		sub r10,r16
 4592 306c 06DE1000 		st.w r16,16[r6]
 4593 3070 5DCD0800 		ld.w 8[r29],r10
 4594 3074 4B05     		add r11,r10
 4595 3076 9DCD0000 		ld.w 0[r29],r12
 4596 307a 8B21     		mul r11,r12
 4597 307c 8D35     		and r13,r12
 4598 307e 8A25     		div r10,r12
 4599 3080 8CA50005 		addi 1280,r12,r12
 4600 3084 835D     		sar 3,r12
 4601 3086 9DDD0C00 		st.w r12,12[r29]
GAS LISTING /tmp/ccjfHZuC.s 			page 109


 4602 308a 9DCD0400 		ld.w 4[r29],r12
 4603 308e 6C21     		mul r12,r11
 4604 3090 6D35     		and r13,r11
 4605 3092 6A25     		div r10,r11
 4606 3094 4BA51003 		addi 784,r11,r10
 4607 3098 435D     		sar 3,r10
 4608 309a 5902     		mov r25,r18
 4609 309c 4A0A     		sub r10,r18
 4610 309e 5DDE1000 		st.w r18,16[r29]
 4611 30a2 1CCDB000 		ld.w 176[r28],r8
 4612 30a6 FD00     		mov r29,r7
 4613 30a8 08B5FF00 		andi 255,r8,r8
 4614 30ac 00AC0400 		jal .+4
 4615 30b0 E447     		add 4,r31
 4616 30b2 1518     		jmp r21
 4617              	.L413:
 4618 30b4 4147     		add 1,r26
 4619 30b6 1A0F     		cmp r26,r24
 4620 30b8 088E     		ble .L420
 4621 30ba DD00     		mov r29,r6
 4622 30bc FFABBAFE 		jr .L421
 4623              	.L420:
 4624 30c0 43CD1000 		ld.w 16[sp],r10
 4625 30c4 CA06     		add r10,r22
 4626              	.L410:
 4627 30c6 C146     		add 1,r22
 4628 30c8 C20E     		cmp r2,r22
 4629 30ca 069C     		bge .+6
 4630 30cc FFAB7CFE 		jr .L422
 4631 30d0 0C8A     		br .L424
 4632              	.L398:
 4633 30d2 6B3D     		not r11,r11
 4634 30d4 6145     		add 1,r11
 4635 30d6 4041     		mov 0,r10
 4636 30d8 FFABC8FC 		jr .L423
 4637              	.L424:
 4638 30dc 6444     		add 4,sp
 4639 30de 00A80000 		jr __return_r2_r31
 4640              		.size	_g3d_drawObject, .-_g3d_drawObject
 4641 30e2 0000     		.align 2
 4642              		.global _main
 4643              		.type	_main, @function
 4644              	_main:
 4645 30e4 5F01     		mov r31,r10
 4646 30e6 00AC0000 		jal __save_r2_r31
 4647 30ea 63A4CCFF 		addi -52,sp,sp
 4648 30ee 40BD0000 		movhi hi(_crossH),r0,r10
 4649 30f2 4AA10000 		movea lo(_crossH),r10,r10
 4650 30f6 60A1A000 		movea lo(160),r0,r11
 4651 30fa 6ADD0C00 		st.w r11,12[r10]
 4652 30fe 60A16200 		movea lo(98),r0,r11
 4653 3102 6ADD1000 		st.w r11,16[r10]
 4654 3106 40BD0000 		movhi hi(_accelerator),r0,r10
 4655 310a 0AD00000 		st.b r0,lo(_accelerator)[r10]
 4656 310e 60A1C800 		movea lo(200),r0,r11
 4657 3112 40BD0000 		movhi hi(_meteorSpeed),r0,r10
 4658 3116 6ADD0000 		st.w r11,lo(_meteorSpeed)[r10]
GAS LISTING /tmp/ccjfHZuC.s 			page 110


 4659 311a FFAFE6CE 		jal _vbInit
 4660 311e FFAFE2CE 		jal _initCam
 4661 3122 FFAFDECE 		jal _initObjects
 4662 3126 C0BE0000 		movhi hi(_tick),r0,r22
 4663 312a D6A20000 		movea lo(_tick),r22,r22
 4664 312e A0BE0000 		movhi hi(_accelerator),r0,r21
 4665 3132 B5A20000 		movea lo(_accelerator),r21,r21
 4666 3136 00BF0000 		movhi hi(_gameNodeIdx),r0,r24
 4667 313a 18A30000 		movea lo(_gameNodeIdx),r24,r24
 4668 313e E0BE0000 		movhi hi(_frameSkip),r0,r23
 4669 3142 F7A20000 		movea lo(_frameSkip),r23,r23
 4670 3146 40BF0000 		movhi hi(_gameNodes),r0,r26
 4671 314a 5AA30000 		movea lo(_gameNodes),r26,r26
 4672 314e 80BE0000 		movhi hi(_g3d_drawObject),r0,r20
 4673 3152 94A20000 		movea lo(_g3d_drawObject),r20,r20
 4674 3156 40BD0000 		movhi hi(_crossH),r0,r10
 4675 315a 4AA10000 		movea lo(_crossH),r10,r10
 4676 315e 43DD1400 		st.w r10,20[sp]
 4677 3162 43A43000 		addi 48,sp,r2
 4678 3166 40BD0000 		movhi hi(_g3d_drawLine),r0,r10
 4679 316a 4AA10000 		movea lo(_g3d_drawLine),r10,r10
 4680 316e 43DD1000 		st.w r10,16[sp]
 4681 3172 40BD0000 		movhi hi(_frameSkipCount),r0,r10
 4682 3176 4AA10000 		movea lo(_frameSkipCount),r10,r10
 4683 317a 43DD1800 		st.w r10,24[sp]
 4684              	.L469:
 4685 317e 16DC0000 		st.w r0,0[r22]
 4686 3182 55C10000 		ld.b 0[r21],r10
 4687 3186 4145     		add 1,r10
 4688 3188 4AB50300 		andi 3,r10,r10
 4689 318c 55D10000 		st.b r10,0[r21]
 4690 3190 FFAF70CE 		jal _handleInput
 4691 3194 58C10000 		ld.b 0[r24],r10
 4692 3198 400D     		cmp r0,r10
 4693 319a 0694     		bne .+6
 4694 319c 00A8AE03 		jr .L428
 4695 31a0 57C10000 		ld.b 0[r23],r10
 4696 31a4 400D     		cmp r0,r10
 4697 31a6 0684     		be .+6
 4698 31a8 00A8A203 		jr .L428
 4699 31ac 2043     		mov 0,r25
 4700 31ae 80A36701 		movea lo(359),r0,r28
 4701 31b2 60A399FE 		movea lo(-359),r0,r27
 4702 31b6 0E8A     		br .L429
 4703              	.L464:
 4704 31b8 57C10000 		ld.b 0[r23],r10
 4705 31bc 400D     		cmp r0,r10
 4706 31be 0684     		be .+6
 4707 31c0 00A88A03 		jr .L428
 4708              	.L429:
 4709 31c4 B903     		mov r25,r29
 4710 31c6 5901     		mov r25,r10
 4711 31c8 5905     		add r25,r10
 4712 31ca 5905     		add r25,r10
 4713 31cc 4451     		shl 4,r10
 4714 31ce 5A05     		add r26,r10
 4715 31d0 4AC10000 		ld.b 0[r10],r10
GAS LISTING /tmp/ccjfHZuC.s 			page 111


 4716 31d4 4AB5FF00 		andi 255,r10,r10
 4717 31d8 414D     		cmp 1,r10
 4718 31da 2C94     		bne .L430
 4719 31dc 5901     		mov r25,r10
 4720 31de 5905     		add r25,r10
 4721 31e0 5905     		add r25,r10
 4722 31e2 6A01     		mov r10,r11
 4723 31e4 6451     		shl 4,r11
 4724 31e6 7A05     		add r26,r11
 4725 31e8 6BC10300 		ld.b 3[r11],r11
 4726 31ec 6BB5FF00 		andi 255,r11,r11
 4727 31f0 4251     		shl 2,r10
 4728 31f2 4B05     		add r11,r10
 4729 31f4 4245     		add 2,r10
 4730 31f6 4251     		shl 2,r10
 4731 31f8 5A05     		add r26,r10
 4732 31fa CACC0000 		ld.w 0[r10],r6
 4733 31fe 00AC0400 		jal .+4
 4734 3202 E447     		add 4,r31
 4735 3204 1418     		jmp r20
 4736              	.L430:
 4737 3206 5D01     		mov r29,r10
 4738 3208 5D05     		add r29,r10
 4739 320a 5D05     		add r29,r10
 4740 320c 4451     		shl 4,r10
 4741 320e 5A05     		add r26,r10
 4742 3210 4AC10000 		ld.b 0[r10],r10
 4743 3214 4AB5FF00 		andi 255,r10,r10
 4744 3218 424D     		cmp 2,r10
 4745 321a 2C94     		bne .L431
 4746 321c 5D01     		mov r29,r10
 4747 321e 5D05     		add r29,r10
 4748 3220 5D05     		add r29,r10
 4749 3222 6A01     		mov r10,r11
 4750 3224 6451     		shl 4,r11
 4751 3226 7A05     		add r26,r11
 4752 3228 6BC10300 		ld.b 3[r11],r11
 4753 322c 6BB5FF00 		andi 255,r11,r11
 4754 3230 4251     		shl 2,r10
 4755 3232 4B05     		add r11,r10
 4756 3234 4245     		add 2,r10
 4757 3236 4251     		shl 2,r10
 4758 3238 5A05     		add r26,r10
 4759 323a CACC0000 		ld.w 0[r10],r6
 4760 323e 00AC0400 		jal .+4
 4761 3242 E447     		add 4,r31
 4762 3244 1418     		jmp r20
 4763              	.L431:
 4764 3246 5D01     		mov r29,r10
 4765 3248 5D05     		add r29,r10
 4766 324a 5D05     		add r29,r10
 4767 324c 4451     		shl 4,r10
 4768 324e 5A05     		add r26,r10
 4769 3250 4AC10000 		ld.b 0[r10],r10
 4770 3254 4AB5FF00 		andi 255,r10,r10
 4771 3258 434D     		cmp 3,r10
 4772 325a 0684     		be .+6
GAS LISTING /tmp/ccjfHZuC.s 			page 112


 4773 325c 00A89202 		jr .L432
 4774 3260 55C10000 		ld.b 0[r21],r10
 4775 3264 4AB50300 		andi 3,r10,r10
 4776 3268 434D     		cmp 3,r10
 4777 326a 6A94     		bne .L433
 4778 326c 5D01     		mov r29,r10
 4779 326e 5D05     		add r29,r10
 4780 3270 5D05     		add r29,r10
 4781 3272 6A01     		mov r10,r11
 4782 3274 6451     		shl 4,r11
 4783 3276 7A05     		add r26,r11
 4784 3278 6BC10300 		ld.b 3[r11],r11
 4785 327c 6BB5FF00 		andi 255,r11,r11
 4786 3280 4251     		shl 2,r10
 4787 3282 4B05     		add r11,r10
 4788 3284 4245     		add 2,r10
 4789 3286 4251     		shl 2,r10
 4790 3288 5A05     		add r26,r10
 4791 328a 4ACD0000 		ld.w 0[r10],r10
 4792 328e 8ACD0800 		ld.w 8[r10],r12
 4793 3292 6ACD5800 		ld.w 88[r10],r11
 4794 3296 8B25     		div r11,r12
 4795 3298 6ACD1400 		ld.w 20[r10],r11
 4796 329c AACD0000 		ld.w 0[r10],r13
 4797 32a0 6D09     		sub r13,r11
 4798 32a2 6C25     		div r12,r11
 4799 32a4 6ADD5000 		st.w r11,80[r10]
 4800 32a8 AACD1800 		ld.w 24[r10],r13
 4801 32ac CACD0400 		ld.w 4[r10],r14
 4802 32b0 AE09     		sub r14,r13
 4803 32b2 AC25     		div r12,r13
 4804 32b4 AADD5400 		st.w r13,84[r10]
 4805 32b8 600D     		cmp r0,r11
 4806 32ba 0A9C     		bge .L434
 4807 32bc 6B3D     		not r11,r11
 4808 32be 6145     		add 1,r11
 4809 32c0 6ADD5000 		st.w r11,80[r10]
 4810              	.L434:
 4811 32c4 6ACD5400 		ld.w 84[r10],r11
 4812 32c8 600D     		cmp r0,r11
 4813 32ca 0A9C     		bge .L433
 4814 32cc 6B3D     		not r11,r11
 4815 32ce 6145     		add 1,r11
 4816 32d0 6ADD5400 		st.w r11,84[r10]
 4817              	.L433:
 4818 32d4 5D01     		mov r29,r10
 4819 32d6 5D05     		add r29,r10
 4820 32d8 5D05     		add r29,r10
 4821 32da 6A01     		mov r10,r11
 4822 32dc 6451     		shl 4,r11
 4823 32de 7A05     		add r26,r11
 4824 32e0 6BC10300 		ld.b 3[r11],r11
 4825 32e4 6BB5FF00 		andi 255,r11,r11
 4826 32e8 4251     		shl 2,r10
 4827 32ea 4B05     		add r11,r10
 4828 32ec 4245     		add 2,r10
 4829 32ee 4251     		shl 2,r10
GAS LISTING /tmp/ccjfHZuC.s 			page 113


 4830 32f0 5A05     		add r26,r10
 4831 32f2 4ACD0000 		ld.w 0[r10],r10
 4832 32f6 6ACD3C00 		ld.w 60[r10],r11
 4833 32fa 600D     		cmp r0,r11
 4834 32fc 0C84     		be .L435
 4835 32fe 8ACD2800 		ld.w 40[r10],r12
 4836 3302 6C05     		add r12,r11
 4837 3304 6ADD2800 		st.w r11,40[r10]
 4838              	.L435:
 4839 3308 6ACD4000 		ld.w 64[r10],r11
 4840 330c 600D     		cmp r0,r11
 4841 330e 0C84     		be .L436
 4842 3310 8ACD2C00 		ld.w 44[r10],r12
 4843 3314 6C05     		add r12,r11
 4844 3316 6ADD2C00 		st.w r11,44[r10]
 4845              	.L436:
 4846 331a 6ACD4400 		ld.w 68[r10],r11
 4847 331e 600D     		cmp r0,r11
 4848 3320 0C84     		be .L437
 4849 3322 8ACD3000 		ld.w 48[r10],r12
 4850 3326 6C05     		add r12,r11
 4851 3328 6ADD3000 		st.w r11,48[r10]
 4852              	.L437:
 4853 332c 6ACD6400 		ld.w 100[r10],r11
 4854 3330 600D     		cmp r0,r11
 4855 3332 0C84     		be .L438
 4856 3334 8ACD5000 		ld.w 80[r10],r12
 4857 3338 6C05     		add r12,r11
 4858 333a 6ADD5000 		st.w r11,80[r10]
 4859              	.L438:
 4860 333e 6ACD6800 		ld.w 104[r10],r11
 4861 3342 600D     		cmp r0,r11
 4862 3344 0C84     		be .L439
 4863 3346 8ACD5400 		ld.w 84[r10],r12
 4864 334a 6C05     		add r12,r11
 4865 334c 6ADD5400 		st.w r11,84[r10]
 4866              	.L439:
 4867 3350 6ACD6C00 		ld.w 108[r10],r11
 4868 3354 600D     		cmp r0,r11
 4869 3356 0C84     		be .L440
 4870 3358 8ACD5800 		ld.w 88[r10],r12
 4871 335c 6C05     		add r12,r11
 4872 335e 6ADD5800 		st.w r11,88[r10]
 4873              	.L440:
 4874 3362 6ACD8C00 		ld.w 140[r10],r11
 4875 3366 600D     		cmp r0,r11
 4876 3368 0C84     		be .L441
 4877 336a 8ACD7800 		ld.w 120[r10],r12
 4878 336e 6C05     		add r12,r11
 4879 3370 6ADD7800 		st.w r11,120[r10]
 4880              	.L441:
 4881 3374 6ACD9000 		ld.w 144[r10],r11
 4882 3378 600D     		cmp r0,r11
 4883 337a 0C84     		be .L442
 4884 337c 8ACD7C00 		ld.w 124[r10],r12
 4885 3380 6C05     		add r12,r11
 4886 3382 6ADD7C00 		st.w r11,124[r10]
GAS LISTING /tmp/ccjfHZuC.s 			page 114


 4887              	.L442:
 4888 3386 6ACD9400 		ld.w 148[r10],r11
 4889 338a 600D     		cmp r0,r11
 4890 338c 0C84     		be .L443
 4891 338e 8ACD8000 		ld.w 128[r10],r12
 4892 3392 6C05     		add r12,r11
 4893 3394 6ADD8000 		st.w r11,128[r10]
 4894              	.L443:
 4895 3398 6ACD2800 		ld.w 40[r10],r11
 4896 339c 7C0D     		cmp r28,r11
 4897 339e 0E8E     		ble .L444
 4898              	.L477:
 4899 33a0 6BA598FE 		addi -360,r11,r11
 4900 33a4 7C0D     		cmp r28,r11
 4901 33a6 FA9F     		bgt .L477
 4902 33a8 6ADD2800 		st.w r11,40[r10]
 4903              	.L444:
 4904 33ac 6ACD2C00 		ld.w 44[r10],r11
 4905 33b0 7C0D     		cmp r28,r11
 4906 33b2 0E8E     		ble .L446
 4907              	.L476:
 4908 33b4 6BA598FE 		addi -360,r11,r11
 4909 33b8 7C0D     		cmp r28,r11
 4910 33ba FA9F     		bgt .L476
 4911 33bc 6ADD2C00 		st.w r11,44[r10]
 4912              	.L446:
 4913 33c0 6ACD3000 		ld.w 48[r10],r11
 4914 33c4 7C0D     		cmp r28,r11
 4915 33c6 0E8E     		ble .L448
 4916              	.L475:
 4917 33c8 6BA598FE 		addi -360,r11,r11
 4918 33cc 7C0D     		cmp r28,r11
 4919 33ce FA9F     		bgt .L475
 4920 33d0 6ADD3000 		st.w r11,48[r10]
 4921              	.L448:
 4922 33d4 6ACD2800 		ld.w 40[r10],r11
 4923 33d8 7B0D     		cmp r27,r11
 4924 33da 0E9C     		bge .L450
 4925              	.L474:
 4926 33dc 6BA56801 		addi 360,r11,r11
 4927 33e0 7B0D     		cmp r27,r11
 4928 33e2 FA8D     		blt .L474
 4929 33e4 6ADD2800 		st.w r11,40[r10]
 4930              	.L450:
 4931 33e8 6ACD2C00 		ld.w 44[r10],r11
 4932 33ec 7B0D     		cmp r27,r11
 4933 33ee 0E9C     		bge .L452
 4934              	.L473:
 4935 33f0 6BA56801 		addi 360,r11,r11
 4936 33f4 7B0D     		cmp r27,r11
 4937 33f6 FA8D     		blt .L473
 4938 33f8 6ADD2C00 		st.w r11,44[r10]
 4939              	.L452:
 4940 33fc 6ACD3000 		ld.w 48[r10],r11
 4941 3400 7B0D     		cmp r27,r11
 4942 3402 0E9C     		bge .L454
 4943              	.L472:
GAS LISTING /tmp/ccjfHZuC.s 			page 115


 4944 3404 6BA56801 		addi 360,r11,r11
 4945 3408 7B0D     		cmp r27,r11
 4946 340a FA8D     		blt .L472
 4947 340c 6ADD3000 		st.w r11,48[r10]
 4948              	.L454:
 4949 3410 8ACD1400 		ld.w 20[r10],r12
 4950 3414 6ACD0000 		ld.w 0[r10],r11
 4951 3418 8B0D     		cmp r11,r12
 4952 341a 3284     		be .L456
 4953 341c 1A8E     		ble .L457
 4954 341e 8ACD5000 		ld.w 80[r10],r12
 4955 3422 6C05     		add r12,r11
 4956 3424 6ADD0000 		st.w r11,0[r10]
 4957 3428 8ACD1400 		ld.w 20[r10],r12
 4958 342c 6C0D     		cmp r12,r11
 4959 342e 1E8E     		ble .L456
 4960 3430 8ADD0000 		st.w r12,0[r10]
 4961 3434 188A     		br .L456
 4962              	.L457:
 4963 3436 8ACD5000 		ld.w 80[r10],r12
 4964 343a 6C09     		sub r12,r11
 4965 343c 6ADD0000 		st.w r11,0[r10]
 4966 3440 8ACD1400 		ld.w 20[r10],r12
 4967 3444 6C0D     		cmp r12,r11
 4968 3446 069C     		bge .L456
 4969 3448 8ADD0000 		st.w r12,0[r10]
 4970              	.L456:
 4971 344c 8ACD1800 		ld.w 24[r10],r12
 4972 3450 6ACD0400 		ld.w 4[r10],r11
 4973 3454 8B0D     		cmp r11,r12
 4974 3456 3284     		be .L458
 4975 3458 1A8E     		ble .L459
 4976 345a 8ACD5400 		ld.w 84[r10],r12
 4977 345e 6C05     		add r12,r11
 4978 3460 6ADD0400 		st.w r11,4[r10]
 4979 3464 8ACD1800 		ld.w 24[r10],r12
 4980 3468 6C0D     		cmp r12,r11
 4981 346a 1E8E     		ble .L458
 4982 346c 8ADD0400 		st.w r12,4[r10]
 4983 3470 188A     		br .L458
 4984              	.L459:
 4985 3472 8ACD5400 		ld.w 84[r10],r12
 4986 3476 6C09     		sub r12,r11
 4987 3478 6ADD0400 		st.w r11,4[r10]
 4988 347c 8ACD1800 		ld.w 24[r10],r12
 4989 3480 6C0D     		cmp r12,r11
 4990 3482 069C     		bge .L458
 4991 3484 8ADD0400 		st.w r12,4[r10]
 4992              	.L458:
 4993 3488 8ACD1C00 		ld.w 28[r10],r12
 4994 348c 6ACD0800 		ld.w 8[r10],r11
 4995 3490 8B0D     		cmp r11,r12
 4996 3492 3284     		be .L460
 4997 3494 1A8E     		ble .L461
 4998 3496 8ACD5800 		ld.w 88[r10],r12
 4999 349a 6C05     		add r12,r11
 5000 349c 6ADD0800 		st.w r11,8[r10]
GAS LISTING /tmp/ccjfHZuC.s 			page 116


 5001 34a0 8ACD1C00 		ld.w 28[r10],r12
 5002 34a4 6C0D     		cmp r12,r11
 5003 34a6 1E8E     		ble .L460
 5004 34a8 8ADD0800 		st.w r12,8[r10]
 5005 34ac 188A     		br .L460
 5006              	.L461:
 5007 34ae 8ACD5800 		ld.w 88[r10],r12
 5008 34b2 6C09     		sub r12,r11
 5009 34b4 6ADD0800 		st.w r11,8[r10]
 5010 34b8 8ACD1C00 		ld.w 28[r10],r12
 5011 34bc 6C0D     		cmp r12,r11
 5012 34be 069C     		bge .L460
 5013 34c0 8ADD0800 		st.w r12,8[r10]
 5014              	.L460:
 5015 34c4 5D01     		mov r29,r10
 5016 34c6 5D05     		add r29,r10
 5017 34c8 5D05     		add r29,r10
 5018 34ca 6A01     		mov r10,r11
 5019 34cc 6451     		shl 4,r11
 5020 34ce 7A05     		add r26,r11
 5021 34d0 6BC10300 		ld.b 3[r11],r11
 5022 34d4 6BB5FF00 		andi 255,r11,r11
 5023 34d8 4251     		shl 2,r10
 5024 34da 4B05     		add r11,r10
 5025 34dc 4245     		add 2,r10
 5026 34de 4251     		shl 2,r10
 5027 34e0 5A05     		add r26,r10
 5028 34e2 CACC0000 		ld.w 0[r10],r6
 5029 34e6 00AC0400 		jal .+4
 5030 34ea E447     		add 4,r31
 5031 34ec 1418     		jmp r20
 5032              	.L432:
 5033 34ee 5D01     		mov r29,r10
 5034 34f0 5D05     		add r29,r10
 5035 34f2 5D05     		add r29,r10
 5036 34f4 6A01     		mov r10,r11
 5037 34f6 6451     		shl 4,r11
 5038 34f8 7A05     		add r26,r11
 5039 34fa 6BC10300 		ld.b 3[r11],r11
 5040 34fe 6BB5FF00 		andi 255,r11,r11
 5041 3502 8BA50100 		addi 1,r11,r12
 5042 3506 4451     		shl 4,r10
 5043 3508 5A05     		add r26,r10
 5044 350a 4AC10500 		ld.b 5[r10],r10
 5045 350e 4AB5FF00 		andi 255,r10,r10
 5046 3512 8A0D     		cmp r10,r12
 5047 3514 129C     		bge .L462
 5048 3516 5D01     		mov r29,r10
 5049 3518 5D05     		add r29,r10
 5050 351a AA07     		add r10,r29
 5051 351c A453     		shl 4,r29
 5052 351e BA07     		add r26,r29
 5053 3520 9DD10300 		st.b r12,3[r29]
 5054 3524 108A     		br .L463
 5055              	.L462:
 5056 3526 5D01     		mov r29,r10
 5057 3528 5D05     		add r29,r10
GAS LISTING /tmp/ccjfHZuC.s 			page 117


 5058 352a AA07     		add r10,r29
 5059 352c A453     		shl 4,r29
 5060 352e BA07     		add r26,r29
 5061 3530 1DD00300 		st.b r0,3[r29]
 5062              	.L463:
 5063 3534 2147     		add 1,r25
 5064 3536 39B7FF00 		andi 255,r25,r25
 5065 353a 58C10000 		ld.b 0[r24],r10
 5066 353e 4AB5FF00 		andi 255,r10,r10
 5067 3542 590D     		cmp r25,r10
 5068 3544 0686     		bnh .+6
 5069 3546 FFAB72FC 		jr .L464
 5070              	.L428:
 5071 354a 63CD1400 		ld.w 20[sp],r11
 5072 354e 4BCD0C00 		ld.w 12[r11],r10
 5073 3552 6BCD1000 		ld.w 16[r11],r11
 5074 3556 03DC3800 		st.w r0,56[sp]
 5075 355a 03DC2400 		st.w r0,36[sp]
 5076 355e 6A45     		add 10,r11
 5077 3560 63DD4000 		st.w r11,64[sp]
 5078 3564 63DD2C00 		st.w r11,44[sp]
 5079 3568 6AA5F8FF 		addi -8,r10,r11
 5080 356c 63DD3C00 		st.w r11,60[sp]
 5081 3570 4845     		add 8,r10
 5082 3572 43DD2800 		st.w r10,40[sp]
 5083 3576 A3A71C00 		addi 28,sp,r29
 5084 357a C200     		mov r2,r6
 5085 357c FD00     		mov r29,r7
 5086 357e 0141     		mov 1,r8
 5087 3580 83CD1000 		ld.w 16[sp],r12
 5088 3584 00AC0400 		jal .+4
 5089 3588 E447     		add 4,r31
 5090 358a 0C18     		jmp r12
 5091 358c 43CD4000 		ld.w 64[sp],r10
 5092 3590 4AA5ECFF 		addi -20,r10,r10
 5093 3594 43DD4000 		st.w r10,64[sp]
 5094 3598 43CD2C00 		ld.w 44[sp],r10
 5095 359c 4AA5ECFF 		addi -20,r10,r10
 5096 35a0 43DD2C00 		st.w r10,44[sp]
 5097 35a4 C200     		mov r2,r6
 5098 35a6 FD00     		mov r29,r7
 5099 35a8 0141     		mov 1,r8
 5100 35aa 43CD1000 		ld.w 16[sp],r10
 5101 35ae 00AC0400 		jal .+4
 5102 35b2 E447     		add 4,r31
 5103 35b4 0A18     		jmp r10
 5104 35b6 43CD3C00 		ld.w 60[sp],r10
 5105 35ba 4345     		add 3,r10
 5106 35bc 43DD3C00 		st.w r10,60[sp]
 5107 35c0 43CD2800 		ld.w 40[sp],r10
 5108 35c4 5D45     		add -3,r10
 5109 35c6 43DD2800 		st.w r10,40[sp]
 5110 35ca 43CD4000 		ld.w 64[sp],r10
 5111 35ce 4345     		add 3,r10
 5112 35d0 43DD4000 		st.w r10,64[sp]
 5113 35d4 43CD2C00 		ld.w 44[sp],r10
 5114 35d8 4345     		add 3,r10
GAS LISTING /tmp/ccjfHZuC.s 			page 118


 5115 35da 43DD2C00 		st.w r10,44[sp]
 5116 35de C200     		mov r2,r6
 5117 35e0 FD00     		mov r29,r7
 5118 35e2 0141     		mov 1,r8
 5119 35e4 63CD1000 		ld.w 16[sp],r11
 5120 35e8 00AC0400 		jal .+4
 5121 35ec E447     		add 4,r31
 5122 35ee 0B18     		jmp r11
 5123 35f0 43CD4000 		ld.w 64[sp],r10
 5124 35f4 4E45     		add 14,r10
 5125 35f6 43DD4000 		st.w r10,64[sp]
 5126 35fa 43CD2C00 		ld.w 44[sp],r10
 5127 35fe 4E45     		add 14,r10
 5128 3600 43DD2C00 		st.w r10,44[sp]
 5129 3604 C200     		mov r2,r6
 5130 3606 FD00     		mov r29,r7
 5131 3608 0141     		mov 1,r8
 5132 360a 83CD1000 		ld.w 16[sp],r12
 5133 360e 00AC0400 		jal .+4
 5134 3612 E447     		add 4,r31
 5135 3614 0C18     		jmp r12
 5136 3616 76CD0000 		ld.w 0[r22],r11
 5137 361a 40A1D000 		movea lo(208),r0,r10
 5138 361e 6A0D     		cmp r10,r11
 5139 3620 1886     		bnh .L465
 5140 3622 4141     		mov 1,r10
 5141 3624 57D10000 		st.b r10,0[r23]
 5142 3628 63CD1800 		ld.w 24[sp],r11
 5143 362c 4BC10000 		ld.b 0[r11],r10
 5144 3630 4145     		add 1,r10
 5145 3632 4BD10000 		st.b r10,0[r11]
 5146 3636 0E8A     		br .L466
 5147              	.L465:
 5148 3638 17D00000 		st.b r0,0[r23]
 5149 363c 83CD1800 		ld.w 24[sp],r12
 5150 3640 0CD00000 		st.b r0,0[r12]
 5151              	.L466:
 5152 3644 60A1CF00 		movea lo(207),r0,r11
 5153              	.L471:
 5154 3648 56CD0000 		ld.w 0[r22],r10
 5155 364c 4B0D     		cmp r11,r10
 5156 364e FA87     		bnh .L471
 5157 3650 76CD0000 		ld.w 0[r22],r11
 5158 3654 40A1D000 		movea lo(208),r0,r10
 5159 3658 6A0D     		cmp r10,r11
 5160 365a 0896     		bh .L467
 5161 365c 16DC0000 		st.w r0,0[r22]
 5162 3660 0E8A     		br .L468
 5163              	.L467:
 5164 3662 56CD0000 		ld.w 0[r22],r10
 5165 3666 4AA530FF 		addi -208,r10,r10
 5166 366a 56DD0000 		st.w r10,0[r22]
 5167              	.L468:
 5168 366e FFAF92C9 		jal _screenControl
 5169 3672 FFAB0CFB 		jr .L469
 5170              		.size	_main, .-_main
 5171              		.global _VIP_REGS
GAS LISTING /tmp/ccjfHZuC.s 			page 119


 5172 3676 0000     		.section .data
 5173              		.align 2
 5174              		.type	_VIP_REGS, @object
 5175              		.size	_VIP_REGS, 4
 5176              	_VIP_REGS:
 5177 0000 00F80500 		.long	391168
 5178              		.global _L_FRAME0
 5179              		.section	.rodata
 5180              		.align 2
 5181              		.type	_L_FRAME0, @object
 5182              		.size	_L_FRAME0, 4
 5183              	_L_FRAME0:
 5184 0000 00000000 		.zero	4
 5185              		.global _L_FRAME1
 5186              		.align 2
 5187              		.type	_L_FRAME1, @object
 5188              		.size	_L_FRAME1, 4
 5189              	_L_FRAME1:
 5190 0004 00800000 		.long	32768
 5191              		.global _R_FRAME0
 5192              		.align 2
 5193              		.type	_R_FRAME0, @object
 5194              		.size	_R_FRAME0, 4
 5195              	_R_FRAME0:
 5196 0008 00000100 		.long	65536
 5197              		.global _R_FRAME1
 5198              		.align 2
 5199              		.type	_R_FRAME1, @object
 5200              		.size	_R_FRAME1, 4
 5201              	_R_FRAME1:
 5202 000c 00800100 		.long	98304
 5203              		.global _BGMM
 5204              		.align 2
 5205              		.type	_BGMM, @object
 5206              		.size	_BGMM, 4
 5207              	_BGMM:
 5208 0010 00000200 		.long	131072
 5209              		.global _WAM
 5210              		.align 2
 5211              		.type	_WAM, @object
 5212              		.size	_WAM, 4
 5213              	_WAM:
 5214 0014 00D80300 		.long	251904
 5215              		.global _CLMN_TBL
 5216              		.align 2
 5217              		.type	_CLMN_TBL, @object
 5218              		.size	_CLMN_TBL, 4
 5219              	_CLMN_TBL:
 5220 0018 00DC0300 		.long	252928
 5221              		.global _OAM
 5222              		.align 2
 5223              		.type	_OAM, @object
 5224              		.size	_OAM, 4
 5225              	_OAM:
 5226 001c 00E00300 		.long	253952
 5227              		.global _colTable
 5228              		.type	_colTable, @object
GAS LISTING /tmp/ccjfHZuC.s 			page 120


 5229              		.size	_colTable, 128
 5230              	_colTable:
 5231 0020 FE       		.byte	-2
 5232 0021 FE       		.byte	-2
 5233 0022 FE       		.byte	-2
 5234 0023 FE       		.byte	-2
 5235 0024 FE       		.byte	-2
 5236 0025 FE       		.byte	-2
 5237 0026 FE       		.byte	-2
 5238 0027 FE       		.byte	-2
 5239 0028 FE       		.byte	-2
 5240 0029 FE       		.byte	-2
 5241 002a FE       		.byte	-2
 5242 002b FE       		.byte	-2
 5243 002c FE       		.byte	-2
 5244 002d FE       		.byte	-2
 5245 002e FE       		.byte	-2
 5246 002f FE       		.byte	-2
 5247 0030 FE       		.byte	-2
 5248 0031 FE       		.byte	-2
 5249 0032 FE       		.byte	-2
 5250 0033 FE       		.byte	-2
 5251 0034 FE       		.byte	-2
 5252 0035 FE       		.byte	-2
 5253 0036 FE       		.byte	-2
 5254 0037 FE       		.byte	-2
 5255 0038 FE       		.byte	-2
 5256 0039 FE       		.byte	-2
 5257 003a FE       		.byte	-2
 5258 003b FE       		.byte	-2
 5259 003c FE       		.byte	-2
 5260 003d FE       		.byte	-2
 5261 003e FE       		.byte	-2
 5262 003f FE       		.byte	-2
 5263 0040 FE       		.byte	-2
 5264 0041 FE       		.byte	-2
 5265 0042 FE       		.byte	-2
 5266 0043 FE       		.byte	-2
 5267 0044 FE       		.byte	-2
 5268 0045 FE       		.byte	-2
 5269 0046 FE       		.byte	-2
 5270 0047 FE       		.byte	-2
 5271 0048 FE       		.byte	-2
 5272 0049 FE       		.byte	-2
 5273 004a FE       		.byte	-2
 5274 004b FE       		.byte	-2
 5275 004c FE       		.byte	-2
 5276 004d FE       		.byte	-2
 5277 004e FE       		.byte	-2
 5278 004f FE       		.byte	-2
 5279 0050 FE       		.byte	-2
 5280 0051 FE       		.byte	-2
 5281 0052 FE       		.byte	-2
 5282 0053 FE       		.byte	-2
 5283 0054 FE       		.byte	-2
 5284 0055 FE       		.byte	-2
 5285 0056 FE       		.byte	-2
GAS LISTING /tmp/ccjfHZuC.s 			page 121


 5286 0057 FE       		.byte	-2
 5287 0058 FE       		.byte	-2
 5288 0059 FE       		.byte	-2
 5289 005a FE       		.byte	-2
 5290 005b FE       		.byte	-2
 5291 005c FE       		.byte	-2
 5292 005d FE       		.byte	-2
 5293 005e E0       		.byte	-32
 5294 005f BC       		.byte	-68
 5295 0060 A6       		.byte	-90
 5296 0061 96       		.byte	-106
 5297 0062 8A       		.byte	-118
 5298 0063 82       		.byte	-126
 5299 0064 7A       		.byte	122
 5300 0065 74       		.byte	116
 5301 0066 6E       		.byte	110
 5302 0067 6A       		.byte	106
 5303 0068 66       		.byte	102
 5304 0069 62       		.byte	98
 5305 006a 60       		.byte	96
 5306 006b 5C       		.byte	92
 5307 006c 5A       		.byte	90
 5308 006d 58       		.byte	88
 5309 006e 56       		.byte	86
 5310 006f 54       		.byte	84
 5311 0070 52       		.byte	82
 5312 0071 50       		.byte	80
 5313 0072 50       		.byte	80
 5314 0073 4E       		.byte	78
 5315 0074 4C       		.byte	76
 5316 0075 4C       		.byte	76
 5317 0076 4A       		.byte	74
 5318 0077 4A       		.byte	74
 5319 0078 48       		.byte	72
 5320 0079 48       		.byte	72
 5321 007a 46       		.byte	70
 5322 007b 46       		.byte	70
 5323 007c 46       		.byte	70
 5324 007d 44       		.byte	68
 5325 007e 44       		.byte	68
 5326 007f 44       		.byte	68
 5327 0080 42       		.byte	66
 5328 0081 42       		.byte	66
 5329 0082 42       		.byte	66
 5330 0083 40       		.byte	64
 5331 0084 40       		.byte	64
 5332 0085 40       		.byte	64
 5333 0086 40       		.byte	64
 5334 0087 40       		.byte	64
 5335 0088 3E       		.byte	62
 5336 0089 3E       		.byte	62
 5337 008a 3E       		.byte	62
 5338 008b 3E       		.byte	62
 5339 008c 3E       		.byte	62
 5340 008d 3E       		.byte	62
 5341 008e 3E       		.byte	62
 5342 008f 3C       		.byte	60
GAS LISTING /tmp/ccjfHZuC.s 			page 122


 5343 0090 3C       		.byte	60
 5344 0091 3C       		.byte	60
 5345 0092 3C       		.byte	60
 5346 0093 3C       		.byte	60
 5347 0094 3C       		.byte	60
 5348 0095 3C       		.byte	60
 5349 0096 3C       		.byte	60
 5350 0097 3C       		.byte	60
 5351 0098 3C       		.byte	60
 5352 0099 3C       		.byte	60
 5353 009a 3C       		.byte	60
 5354 009b 3C       		.byte	60
 5355 009c 3C       		.byte	60
 5356 009d 3C       		.byte	60
 5357 009e 3C       		.byte	60
 5358 009f 3C       		.byte	60
 5359              		.global _WAVEDATA1
 5360              		.align 2
 5361              		.type	_WAVEDATA1, @object
 5362              		.size	_WAVEDATA1, 4
 5363              	_WAVEDATA1:
 5364 00a0 00000001 		.long	16777216
 5365              		.global _WAVEDATA2
 5366              		.align 2
 5367              		.type	_WAVEDATA2, @object
 5368              		.size	_WAVEDATA2, 4
 5369              	_WAVEDATA2:
 5370 00a4 80000001 		.long	16777344
 5371              		.global _WAVEDATA3
 5372              		.align 2
 5373              		.type	_WAVEDATA3, @object
 5374              		.size	_WAVEDATA3, 4
 5375              	_WAVEDATA3:
 5376 00a8 00010001 		.long	16777472
 5377              		.global _WAVEDATA4
 5378              		.align 2
 5379              		.type	_WAVEDATA4, @object
 5380              		.size	_WAVEDATA4, 4
 5381              	_WAVEDATA4:
 5382 00ac 80010001 		.long	16777600
 5383              		.global _WAVEDATA5
 5384              		.align 2
 5385              		.type	_WAVEDATA5, @object
 5386              		.size	_WAVEDATA5, 4
 5387              	_WAVEDATA5:
 5388 00b0 00020001 		.long	16777728
 5389              		.global _MODDATA
 5390              		.align 2
 5391              		.type	_MODDATA, @object
 5392              		.size	_MODDATA, 4
 5393              	_MODDATA:
 5394 00b4 80020001 		.long	16777856
 5395              		.global _SND_REGS
 5396              		.align 2
 5397              		.type	_SND_REGS, @object
 5398              		.size	_SND_REGS, 4
 5399              	_SND_REGS:
GAS LISTING /tmp/ccjfHZuC.s 			page 123


 5400 00b8 00040001 		.long	16778240
 5401              		.global _HW_REGS
 5402              		.align 2
 5403              		.type	_HW_REGS, @object
 5404              		.size	_HW_REGS, 4
 5405              	_HW_REGS:
 5406 00bc 00000002 		.long	33554432
 5407              		.global _oldkeydown
 5408              		.section .bss
 5409              		.align 1
 5410              		.type	_oldkeydown, @object
 5411              		.size	_oldkeydown, 2
 5412              	_oldkeydown:
 5413 0000 0000     		.zero	2
 5414              		.global _oldkeyup
 5415              		.align 1
 5416              		.type	_oldkeyup, @object
 5417              		.size	_oldkeyup, 2
 5418              	_oldkeyup:
 5419 0002 0000     		.zero	2
 5420              		.global _EXPANSION
 5421              		.section	.rodata
 5422              		.align 2
 5423              		.type	_EXPANSION, @object
 5424              		.size	_EXPANSION, 4
 5425              	_EXPANSION:
 5426 00c0 00000004 		.long	67108864
 5427              		.global _WORKRAM
 5428              		.align 2
 5429              		.type	_WORKRAM, @object
 5430              		.size	_WORKRAM, 4
 5431              	_WORKRAM:
 5432 00c4 00000005 		.long	83886080
 5433              		.global _SAVERAM
 5434              		.align 2
 5435              		.type	_SAVERAM, @object
 5436              		.size	_SAVERAM, 4
 5437              	_SAVERAM:
 5438 00c8 00000006 		.long	100663296
 5439              		.global _nums
 5440              		.type	_nums, @object
 5441              		.size	_nums, 16
 5442              	_nums:
 5443 00cc 30313233 		.ascii	"0123456789ABCDEF"
 5443      34353637 
 5443      38394142 
 5443      43444546 
 5444              		.global _WA
 5445              		.align 2
 5446              		.type	_WA, @object
 5447              		.size	_WA, 4
 5448              	_WA:
 5449 00dc 00D80300 		.long	251904
 5450              		.global _tcr_val
 5451              		.section .bss
 5452              		.type	_tcr_val, @object
 5453              		.size	_tcr_val, 1
GAS LISTING /tmp/ccjfHZuC.s 			page 124


 5454              	_tcr_val:
 5455 0004 00       		.zero	1
 5456              		.global _numVertices
 5457 0005 000000   		.align 2
 5458              		.type	_numVertices, @object
 5459              		.size	_numVertices, 4
 5460              	_numVertices:
 5461 0008 00000000 		.zero	4
 5462              		.global _currentFrameBuffer
 5463              		.section .data
 5464              		.align 2
 5465              		.type	_currentFrameBuffer, @object
 5466              		.size	_currentFrameBuffer, 4
 5467              	_currentFrameBuffer:
 5468 0004 00800000 		.long	32768
 5469              		.global _nextFrameBuffer
 5470              		.section .bss
 5471              		.align 2
 5472              		.type	_nextFrameBuffer, @object
 5473              		.size	_nextFrameBuffer, 4
 5474              	_nextFrameBuffer:
 5475 000c 00000000 		.zero	4
 5476              		.global _cosine
 5477              		.section	.rodata
 5478              		.align 2
 5479              		.type	_cosine, @object
 5480              		.size	_cosine, 1440
 5481              	_cosine:
 5482 00e0 08000000 		.long	8
 5483 00e4 08000000 		.long	8
 5484 00e8 08000000 		.long	8
 5485 00ec 08000000 		.long	8
 5486 00f0 08000000 		.long	8
 5487 00f4 08000000 		.long	8
 5488 00f8 08000000 		.long	8
 5489 00fc 08000000 		.long	8
 5490 0100 08000000 		.long	8
 5491 0104 08000000 		.long	8
 5492 0108 08000000 		.long	8
 5493 010c 08000000 		.long	8
 5494 0110 08000000 		.long	8
 5495 0114 08000000 		.long	8
 5496 0118 08000000 		.long	8
 5497 011c 08000000 		.long	8
 5498 0120 08000000 		.long	8
 5499 0124 08000000 		.long	8
 5500 0128 08000000 		.long	8
 5501 012c 08000000 		.long	8
 5502 0130 08000000 		.long	8
 5503 0134 07000000 		.long	7
 5504 0138 07000000 		.long	7
 5505 013c 07000000 		.long	7
 5506 0140 07000000 		.long	7
 5507 0144 07000000 		.long	7
 5508 0148 07000000 		.long	7
 5509 014c 07000000 		.long	7
 5510 0150 07000000 		.long	7
GAS LISTING /tmp/ccjfHZuC.s 			page 125


 5511 0154 07000000 		.long	7
 5512 0158 07000000 		.long	7
 5513 015c 07000000 		.long	7
 5514 0160 07000000 		.long	7
 5515 0164 07000000 		.long	7
 5516 0168 07000000 		.long	7
 5517 016c 07000000 		.long	7
 5518 0170 06000000 		.long	6
 5519 0174 06000000 		.long	6
 5520 0178 06000000 		.long	6
 5521 017c 06000000 		.long	6
 5522 0180 06000000 		.long	6
 5523 0184 06000000 		.long	6
 5524 0188 06000000 		.long	6
 5525 018c 06000000 		.long	6
 5526 0190 06000000 		.long	6
 5527 0194 06000000 		.long	6
 5528 0198 06000000 		.long	6
 5529 019c 05000000 		.long	5
 5530 01a0 05000000 		.long	5
 5531 01a4 05000000 		.long	5
 5532 01a8 05000000 		.long	5
 5533 01ac 05000000 		.long	5
 5534 01b0 05000000 		.long	5
 5535 01b4 05000000 		.long	5
 5536 01b8 05000000 		.long	5
 5537 01bc 05000000 		.long	5
 5538 01c0 04000000 		.long	4
 5539 01c4 04000000 		.long	4
 5540 01c8 04000000 		.long	4
 5541 01cc 04000000 		.long	4
 5542 01d0 04000000 		.long	4
 5543 01d4 04000000 		.long	4
 5544 01d8 04000000 		.long	4
 5545 01dc 04000000 		.long	4
 5546 01e0 04000000 		.long	4
 5547 01e4 03000000 		.long	3
 5548 01e8 03000000 		.long	3
 5549 01ec 03000000 		.long	3
 5550 01f0 03000000 		.long	3
 5551 01f4 03000000 		.long	3
 5552 01f8 03000000 		.long	3
 5553 01fc 03000000 		.long	3
 5554 0200 02000000 		.long	2
 5555 0204 02000000 		.long	2
 5556 0208 02000000 		.long	2
 5557 020c 02000000 		.long	2
 5558 0210 02000000 		.long	2
 5559 0214 02000000 		.long	2
 5560 0218 02000000 		.long	2
 5561 021c 02000000 		.long	2
 5562 0220 01000000 		.long	1
 5563 0224 01000000 		.long	1
 5564 0228 01000000 		.long	1
 5565 022c 01000000 		.long	1
 5566 0230 01000000 		.long	1
 5567 0234 01000000 		.long	1
GAS LISTING /tmp/ccjfHZuC.s 			page 126


 5568 0238 01000000 		.long	1
 5569 023c 00000000 		.long	0
 5570 0240 00000000 		.long	0
 5571 0244 00000000 		.long	0
 5572 0248 00000000 		.long	0
 5573 024c 00000000 		.long	0
 5574 0250 00000000 		.long	0
 5575 0254 00000000 		.long	0
 5576 0258 FFFFFFFF 		.long	-1
 5577 025c FFFFFFFF 		.long	-1
 5578 0260 FFFFFFFF 		.long	-1
 5579 0264 FFFFFFFF 		.long	-1
 5580 0268 FFFFFFFF 		.long	-1
 5581 026c FFFFFFFF 		.long	-1
 5582 0270 FFFFFFFF 		.long	-1
 5583 0274 FEFFFFFF 		.long	-2
 5584 0278 FEFFFFFF 		.long	-2
 5585 027c FEFFFFFF 		.long	-2
 5586 0280 FEFFFFFF 		.long	-2
 5587 0284 FEFFFFFF 		.long	-2
 5588 0288 FEFFFFFF 		.long	-2
 5589 028c FEFFFFFF 		.long	-2
 5590 0290 FEFFFFFF 		.long	-2
 5591 0294 FDFFFFFF 		.long	-3
 5592 0298 FDFFFFFF 		.long	-3
 5593 029c FDFFFFFF 		.long	-3
 5594 02a0 FDFFFFFF 		.long	-3
 5595 02a4 FDFFFFFF 		.long	-3
 5596 02a8 FDFFFFFF 		.long	-3
 5597 02ac FDFFFFFF 		.long	-3
 5598 02b0 FCFFFFFF 		.long	-4
 5599 02b4 FCFFFFFF 		.long	-4
 5600 02b8 FCFFFFFF 		.long	-4
 5601 02bc FCFFFFFF 		.long	-4
 5602 02c0 FCFFFFFF 		.long	-4
 5603 02c4 FCFFFFFF 		.long	-4
 5604 02c8 FCFFFFFF 		.long	-4
 5605 02cc FCFFFFFF 		.long	-4
 5606 02d0 FCFFFFFF 		.long	-4
 5607 02d4 FBFFFFFF 		.long	-5
 5608 02d8 FBFFFFFF 		.long	-5
 5609 02dc FBFFFFFF 		.long	-5
 5610 02e0 FBFFFFFF 		.long	-5
 5611 02e4 FBFFFFFF 		.long	-5
 5612 02e8 FBFFFFFF 		.long	-5
 5613 02ec FBFFFFFF 		.long	-5
 5614 02f0 FBFFFFFF 		.long	-5
 5615 02f4 FBFFFFFF 		.long	-5
 5616 02f8 FAFFFFFF 		.long	-6
 5617 02fc FAFFFFFF 		.long	-6
 5618 0300 FAFFFFFF 		.long	-6
 5619 0304 FAFFFFFF 		.long	-6
 5620 0308 FAFFFFFF 		.long	-6
 5621 030c FAFFFFFF 		.long	-6
 5622 0310 FAFFFFFF 		.long	-6
 5623 0314 FAFFFFFF 		.long	-6
 5624 0318 FAFFFFFF 		.long	-6
GAS LISTING /tmp/ccjfHZuC.s 			page 127


 5625 031c FAFFFFFF 		.long	-6
 5626 0320 FAFFFFFF 		.long	-6
 5627 0324 F9FFFFFF 		.long	-7
 5628 0328 F9FFFFFF 		.long	-7
 5629 032c F9FFFFFF 		.long	-7
 5630 0330 F9FFFFFF 		.long	-7
 5631 0334 F9FFFFFF 		.long	-7
 5632 0338 F9FFFFFF 		.long	-7
 5633 033c F9FFFFFF 		.long	-7
 5634 0340 F9FFFFFF 		.long	-7
 5635 0344 F9FFFFFF 		.long	-7
 5636 0348 F9FFFFFF 		.long	-7
 5637 034c F9FFFFFF 		.long	-7
 5638 0350 F9FFFFFF 		.long	-7
 5639 0354 F9FFFFFF 		.long	-7
 5640 0358 F9FFFFFF 		.long	-7
 5641 035c F9FFFFFF 		.long	-7
 5642 0360 F8FFFFFF 		.long	-8
 5643 0364 F8FFFFFF 		.long	-8
 5644 0368 F8FFFFFF 		.long	-8
 5645 036c F8FFFFFF 		.long	-8
 5646 0370 F8FFFFFF 		.long	-8
 5647 0374 F8FFFFFF 		.long	-8
 5648 0378 F8FFFFFF 		.long	-8
 5649 037c F8FFFFFF 		.long	-8
 5650 0380 F8FFFFFF 		.long	-8
 5651 0384 F8FFFFFF 		.long	-8
 5652 0388 F8FFFFFF 		.long	-8
 5653 038c F8FFFFFF 		.long	-8
 5654 0390 F8FFFFFF 		.long	-8
 5655 0394 F8FFFFFF 		.long	-8
 5656 0398 F8FFFFFF 		.long	-8
 5657 039c F8FFFFFF 		.long	-8
 5658 03a0 F8FFFFFF 		.long	-8
 5659 03a4 F8FFFFFF 		.long	-8
 5660 03a8 F8FFFFFF 		.long	-8
 5661 03ac F8FFFFFF 		.long	-8
 5662 03b0 F8FFFFFF 		.long	-8
 5663 03b4 F8FFFFFF 		.long	-8
 5664 03b8 F8FFFFFF 		.long	-8
 5665 03bc F8FFFFFF 		.long	-8
 5666 03c0 F8FFFFFF 		.long	-8
 5667 03c4 F8FFFFFF 		.long	-8
 5668 03c8 F8FFFFFF 		.long	-8
 5669 03cc F8FFFFFF 		.long	-8
 5670 03d0 F8FFFFFF 		.long	-8
 5671 03d4 F8FFFFFF 		.long	-8
 5672 03d8 F8FFFFFF 		.long	-8
 5673 03dc F8FFFFFF 		.long	-8
 5674 03e0 F8FFFFFF 		.long	-8
 5675 03e4 F8FFFFFF 		.long	-8
 5676 03e8 F8FFFFFF 		.long	-8
 5677 03ec F8FFFFFF 		.long	-8
 5678 03f0 F8FFFFFF 		.long	-8
 5679 03f4 F8FFFFFF 		.long	-8
 5680 03f8 F8FFFFFF 		.long	-8
 5681 03fc F8FFFFFF 		.long	-8
GAS LISTING /tmp/ccjfHZuC.s 			page 128


 5682 0400 F8FFFFFF 		.long	-8
 5683 0404 F9FFFFFF 		.long	-7
 5684 0408 F9FFFFFF 		.long	-7
 5685 040c F9FFFFFF 		.long	-7
 5686 0410 F9FFFFFF 		.long	-7
 5687 0414 F9FFFFFF 		.long	-7
 5688 0418 F9FFFFFF 		.long	-7
 5689 041c F9FFFFFF 		.long	-7
 5690 0420 F9FFFFFF 		.long	-7
 5691 0424 F9FFFFFF 		.long	-7
 5692 0428 F9FFFFFF 		.long	-7
 5693 042c F9FFFFFF 		.long	-7
 5694 0430 F9FFFFFF 		.long	-7
 5695 0434 F9FFFFFF 		.long	-7
 5696 0438 F9FFFFFF 		.long	-7
 5697 043c F9FFFFFF 		.long	-7
 5698 0440 FAFFFFFF 		.long	-6
 5699 0444 FAFFFFFF 		.long	-6
 5700 0448 FAFFFFFF 		.long	-6
 5701 044c FAFFFFFF 		.long	-6
 5702 0450 FAFFFFFF 		.long	-6
 5703 0454 FAFFFFFF 		.long	-6
 5704 0458 FAFFFFFF 		.long	-6
 5705 045c FAFFFFFF 		.long	-6
 5706 0460 FAFFFFFF 		.long	-6
 5707 0464 FAFFFFFF 		.long	-6
 5708 0468 FAFFFFFF 		.long	-6
 5709 046c FBFFFFFF 		.long	-5
 5710 0470 FBFFFFFF 		.long	-5
 5711 0474 FBFFFFFF 		.long	-5
 5712 0478 FBFFFFFF 		.long	-5
 5713 047c FBFFFFFF 		.long	-5
 5714 0480 FBFFFFFF 		.long	-5
 5715 0484 FBFFFFFF 		.long	-5
 5716 0488 FBFFFFFF 		.long	-5
 5717 048c FBFFFFFF 		.long	-5
 5718 0490 FCFFFFFF 		.long	-4
 5719 0494 FCFFFFFF 		.long	-4
 5720 0498 FCFFFFFF 		.long	-4
 5721 049c FCFFFFFF 		.long	-4
 5722 04a0 FCFFFFFF 		.long	-4
 5723 04a4 FCFFFFFF 		.long	-4
 5724 04a8 FCFFFFFF 		.long	-4
 5725 04ac FCFFFFFF 		.long	-4
 5726 04b0 FCFFFFFF 		.long	-4
 5727 04b4 FDFFFFFF 		.long	-3
 5728 04b8 FDFFFFFF 		.long	-3
 5729 04bc FDFFFFFF 		.long	-3
 5730 04c0 FDFFFFFF 		.long	-3
 5731 04c4 FDFFFFFF 		.long	-3
 5732 04c8 FDFFFFFF 		.long	-3
 5733 04cc FDFFFFFF 		.long	-3
 5734 04d0 FEFFFFFF 		.long	-2
 5735 04d4 FEFFFFFF 		.long	-2
 5736 04d8 FEFFFFFF 		.long	-2
 5737 04dc FEFFFFFF 		.long	-2
 5738 04e0 FEFFFFFF 		.long	-2
GAS LISTING /tmp/ccjfHZuC.s 			page 129


 5739 04e4 FEFFFFFF 		.long	-2
 5740 04e8 FEFFFFFF 		.long	-2
 5741 04ec FEFFFFFF 		.long	-2
 5742 04f0 FFFFFFFF 		.long	-1
 5743 04f4 FFFFFFFF 		.long	-1
 5744 04f8 FFFFFFFF 		.long	-1
 5745 04fc FFFFFFFF 		.long	-1
 5746 0500 FFFFFFFF 		.long	-1
 5747 0504 FFFFFFFF 		.long	-1
 5748 0508 FFFFFFFF 		.long	-1
 5749 050c 00000000 		.long	0
 5750 0510 00000000 		.long	0
 5751 0514 00000000 		.long	0
 5752 0518 00000000 		.long	0
 5753 051c 00000000 		.long	0
 5754 0520 00000000 		.long	0
 5755 0524 00000000 		.long	0
 5756 0528 01000000 		.long	1
 5757 052c 01000000 		.long	1
 5758 0530 01000000 		.long	1
 5759 0534 01000000 		.long	1
 5760 0538 01000000 		.long	1
 5761 053c 01000000 		.long	1
 5762 0540 01000000 		.long	1
 5763 0544 02000000 		.long	2
 5764 0548 02000000 		.long	2
 5765 054c 02000000 		.long	2
 5766 0550 02000000 		.long	2
 5767 0554 02000000 		.long	2
 5768 0558 02000000 		.long	2
 5769 055c 02000000 		.long	2
 5770 0560 02000000 		.long	2
 5771 0564 03000000 		.long	3
 5772 0568 03000000 		.long	3
 5773 056c 03000000 		.long	3
 5774 0570 03000000 		.long	3
 5775 0574 03000000 		.long	3
 5776 0578 03000000 		.long	3
 5777 057c 03000000 		.long	3
 5778 0580 04000000 		.long	4
 5779 0584 04000000 		.long	4
 5780 0588 04000000 		.long	4
 5781 058c 04000000 		.long	4
 5782 0590 04000000 		.long	4
 5783 0594 04000000 		.long	4
 5784 0598 04000000 		.long	4
 5785 059c 04000000 		.long	4
 5786 05a0 04000000 		.long	4
 5787 05a4 05000000 		.long	5
 5788 05a8 05000000 		.long	5
 5789 05ac 05000000 		.long	5
 5790 05b0 05000000 		.long	5
 5791 05b4 05000000 		.long	5
 5792 05b8 05000000 		.long	5
 5793 05bc 05000000 		.long	5
 5794 05c0 05000000 		.long	5
 5795 05c4 05000000 		.long	5
GAS LISTING /tmp/ccjfHZuC.s 			page 130


 5796 05c8 06000000 		.long	6
 5797 05cc 06000000 		.long	6
 5798 05d0 06000000 		.long	6
 5799 05d4 06000000 		.long	6
 5800 05d8 06000000 		.long	6
 5801 05dc 06000000 		.long	6
 5802 05e0 06000000 		.long	6
 5803 05e4 06000000 		.long	6
 5804 05e8 06000000 		.long	6
 5805 05ec 06000000 		.long	6
 5806 05f0 06000000 		.long	6
 5807 05f4 07000000 		.long	7
 5808 05f8 07000000 		.long	7
 5809 05fc 07000000 		.long	7
 5810 0600 07000000 		.long	7
 5811 0604 07000000 		.long	7
 5812 0608 07000000 		.long	7
 5813 060c 07000000 		.long	7
 5814 0610 07000000 		.long	7
 5815 0614 07000000 		.long	7
 5816 0618 07000000 		.long	7
 5817 061c 07000000 		.long	7
 5818 0620 07000000 		.long	7
 5819 0624 07000000 		.long	7
 5820 0628 07000000 		.long	7
 5821 062c 07000000 		.long	7
 5822 0630 08000000 		.long	8
 5823 0634 08000000 		.long	8
 5824 0638 08000000 		.long	8
 5825 063c 08000000 		.long	8
 5826 0640 08000000 		.long	8
 5827 0644 08000000 		.long	8
 5828 0648 08000000 		.long	8
 5829 064c 08000000 		.long	8
 5830 0650 08000000 		.long	8
 5831 0654 08000000 		.long	8
 5832 0658 08000000 		.long	8
 5833 065c 08000000 		.long	8
 5834 0660 08000000 		.long	8
 5835 0664 08000000 		.long	8
 5836 0668 08000000 		.long	8
 5837 066c 08000000 		.long	8
 5838 0670 08000000 		.long	8
 5839 0674 08000000 		.long	8
 5840 0678 08000000 		.long	8
 5841 067c 08000000 		.long	8
 5842              		.global _sine
 5843              		.align 2
 5844              		.type	_sine, @object
 5845              		.size	_sine, 1440
 5846              	_sine:
 5847 0680 00000000 		.long	0
 5848 0684 00000000 		.long	0
 5849 0688 00000000 		.long	0
 5850 068c 00000000 		.long	0
 5851 0690 01000000 		.long	1
 5852 0694 01000000 		.long	1
GAS LISTING /tmp/ccjfHZuC.s 			page 131


 5853 0698 01000000 		.long	1
 5854 069c 01000000 		.long	1
 5855 06a0 01000000 		.long	1
 5856 06a4 01000000 		.long	1
 5857 06a8 01000000 		.long	1
 5858 06ac 02000000 		.long	2
 5859 06b0 02000000 		.long	2
 5860 06b4 02000000 		.long	2
 5861 06b8 02000000 		.long	2
 5862 06bc 02000000 		.long	2
 5863 06c0 02000000 		.long	2
 5864 06c4 02000000 		.long	2
 5865 06c8 02000000 		.long	2
 5866 06cc 03000000 		.long	3
 5867 06d0 03000000 		.long	3
 5868 06d4 03000000 		.long	3
 5869 06d8 03000000 		.long	3
 5870 06dc 03000000 		.long	3
 5871 06e0 03000000 		.long	3
 5872 06e4 03000000 		.long	3
 5873 06e8 04000000 		.long	4
 5874 06ec 04000000 		.long	4
 5875 06f0 04000000 		.long	4
 5876 06f4 04000000 		.long	4
 5877 06f8 04000000 		.long	4
 5878 06fc 04000000 		.long	4
 5879 0700 04000000 		.long	4
 5880 0704 04000000 		.long	4
 5881 0708 04000000 		.long	4
 5882 070c 05000000 		.long	5
 5883 0710 05000000 		.long	5
 5884 0714 05000000 		.long	5
 5885 0718 05000000 		.long	5
 5886 071c 05000000 		.long	5
 5887 0720 05000000 		.long	5
 5888 0724 05000000 		.long	5
 5889 0728 05000000 		.long	5
 5890 072c 05000000 		.long	5
 5891 0730 06000000 		.long	6
 5892 0734 06000000 		.long	6
 5893 0738 06000000 		.long	6
 5894 073c 06000000 		.long	6
 5895 0740 06000000 		.long	6
 5896 0744 06000000 		.long	6
 5897 0748 06000000 		.long	6
 5898 074c 06000000 		.long	6
 5899 0750 06000000 		.long	6
 5900 0754 06000000 		.long	6
 5901 0758 06000000 		.long	6
 5902 075c 07000000 		.long	7
 5903 0760 07000000 		.long	7
 5904 0764 07000000 		.long	7
 5905 0768 07000000 		.long	7
 5906 076c 07000000 		.long	7
 5907 0770 07000000 		.long	7
 5908 0774 07000000 		.long	7
 5909 0778 07000000 		.long	7
GAS LISTING /tmp/ccjfHZuC.s 			page 132


 5910 077c 07000000 		.long	7
 5911 0780 07000000 		.long	7
 5912 0784 07000000 		.long	7
 5913 0788 07000000 		.long	7
 5914 078c 07000000 		.long	7
 5915 0790 07000000 		.long	7
 5916 0794 07000000 		.long	7
 5917 0798 08000000 		.long	8
 5918 079c 08000000 		.long	8
 5919 07a0 08000000 		.long	8
 5920 07a4 08000000 		.long	8
 5921 07a8 08000000 		.long	8
 5922 07ac 08000000 		.long	8
 5923 07b0 08000000 		.long	8
 5924 07b4 08000000 		.long	8
 5925 07b8 08000000 		.long	8
 5926 07bc 08000000 		.long	8
 5927 07c0 08000000 		.long	8
 5928 07c4 08000000 		.long	8
 5929 07c8 08000000 		.long	8
 5930 07cc 08000000 		.long	8
 5931 07d0 08000000 		.long	8
 5932 07d4 08000000 		.long	8
 5933 07d8 08000000 		.long	8
 5934 07dc 08000000 		.long	8
 5935 07e0 08000000 		.long	8
 5936 07e4 08000000 		.long	8
 5937 07e8 08000000 		.long	8
 5938 07ec 08000000 		.long	8
 5939 07f0 08000000 		.long	8
 5940 07f4 08000000 		.long	8
 5941 07f8 08000000 		.long	8
 5942 07fc 08000000 		.long	8
 5943 0800 08000000 		.long	8
 5944 0804 08000000 		.long	8
 5945 0808 08000000 		.long	8
 5946 080c 08000000 		.long	8
 5947 0810 08000000 		.long	8
 5948 0814 08000000 		.long	8
 5949 0818 08000000 		.long	8
 5950 081c 08000000 		.long	8
 5951 0820 08000000 		.long	8
 5952 0824 08000000 		.long	8
 5953 0828 08000000 		.long	8
 5954 082c 08000000 		.long	8
 5955 0830 08000000 		.long	8
 5956 0834 08000000 		.long	8
 5957 0838 08000000 		.long	8
 5958 083c 07000000 		.long	7
 5959 0840 07000000 		.long	7
 5960 0844 07000000 		.long	7
 5961 0848 07000000 		.long	7
 5962 084c 07000000 		.long	7
 5963 0850 07000000 		.long	7
 5964 0854 07000000 		.long	7
 5965 0858 07000000 		.long	7
 5966 085c 07000000 		.long	7
GAS LISTING /tmp/ccjfHZuC.s 			page 133


 5967 0860 07000000 		.long	7
 5968 0864 07000000 		.long	7
 5969 0868 07000000 		.long	7
 5970 086c 07000000 		.long	7
 5971 0870 07000000 		.long	7
 5972 0874 07000000 		.long	7
 5973 0878 06000000 		.long	6
 5974 087c 06000000 		.long	6
 5975 0880 06000000 		.long	6
 5976 0884 06000000 		.long	6
 5977 0888 06000000 		.long	6
 5978 088c 06000000 		.long	6
 5979 0890 06000000 		.long	6
 5980 0894 06000000 		.long	6
 5981 0898 06000000 		.long	6
 5982 089c 06000000 		.long	6
 5983 08a0 06000000 		.long	6
 5984 08a4 05000000 		.long	5
 5985 08a8 05000000 		.long	5
 5986 08ac 05000000 		.long	5
 5987 08b0 05000000 		.long	5
 5988 08b4 05000000 		.long	5
 5989 08b8 05000000 		.long	5
 5990 08bc 05000000 		.long	5
 5991 08c0 05000000 		.long	5
 5992 08c4 05000000 		.long	5
 5993 08c8 04000000 		.long	4
 5994 08cc 04000000 		.long	4
 5995 08d0 04000000 		.long	4
 5996 08d4 04000000 		.long	4
 5997 08d8 04000000 		.long	4
 5998 08dc 04000000 		.long	4
 5999 08e0 04000000 		.long	4
 6000 08e4 04000000 		.long	4
 6001 08e8 04000000 		.long	4
 6002 08ec 03000000 		.long	3
 6003 08f0 03000000 		.long	3
 6004 08f4 03000000 		.long	3
 6005 08f8 03000000 		.long	3
 6006 08fc 03000000 		.long	3
 6007 0900 03000000 		.long	3
 6008 0904 03000000 		.long	3
 6009 0908 02000000 		.long	2
 6010 090c 02000000 		.long	2
 6011 0910 02000000 		.long	2
 6012 0914 02000000 		.long	2
 6013 0918 02000000 		.long	2
 6014 091c 02000000 		.long	2
 6015 0920 02000000 		.long	2
 6016 0924 02000000 		.long	2
 6017 0928 01000000 		.long	1
 6018 092c 01000000 		.long	1
 6019 0930 01000000 		.long	1
 6020 0934 01000000 		.long	1
 6021 0938 01000000 		.long	1
 6022 093c 01000000 		.long	1
 6023 0940 01000000 		.long	1
GAS LISTING /tmp/ccjfHZuC.s 			page 134


 6024 0944 00000000 		.long	0
 6025 0948 00000000 		.long	0
 6026 094c 00000000 		.long	0
 6027 0950 00000000 		.long	0
 6028 0954 00000000 		.long	0
 6029 0958 00000000 		.long	0
 6030 095c 00000000 		.long	0
 6031 0960 FFFFFFFF 		.long	-1
 6032 0964 FFFFFFFF 		.long	-1
 6033 0968 FFFFFFFF 		.long	-1
 6034 096c FFFFFFFF 		.long	-1
 6035 0970 FFFFFFFF 		.long	-1
 6036 0974 FFFFFFFF 		.long	-1
 6037 0978 FFFFFFFF 		.long	-1
 6038 097c FEFFFFFF 		.long	-2
 6039 0980 FEFFFFFF 		.long	-2
 6040 0984 FEFFFFFF 		.long	-2
 6041 0988 FEFFFFFF 		.long	-2
 6042 098c FEFFFFFF 		.long	-2
 6043 0990 FEFFFFFF 		.long	-2
 6044 0994 FEFFFFFF 		.long	-2
 6045 0998 FEFFFFFF 		.long	-2
 6046 099c FDFFFFFF 		.long	-3
 6047 09a0 FDFFFFFF 		.long	-3
 6048 09a4 FDFFFFFF 		.long	-3
 6049 09a8 FDFFFFFF 		.long	-3
 6050 09ac FDFFFFFF 		.long	-3
 6051 09b0 FDFFFFFF 		.long	-3
 6052 09b4 FDFFFFFF 		.long	-3
 6053 09b8 FCFFFFFF 		.long	-4
 6054 09bc FCFFFFFF 		.long	-4
 6055 09c0 FCFFFFFF 		.long	-4
 6056 09c4 FCFFFFFF 		.long	-4
 6057 09c8 FCFFFFFF 		.long	-4
 6058 09cc FCFFFFFF 		.long	-4
 6059 09d0 FCFFFFFF 		.long	-4
 6060 09d4 FCFFFFFF 		.long	-4
 6061 09d8 FCFFFFFF 		.long	-4
 6062 09dc FBFFFFFF 		.long	-5
 6063 09e0 FBFFFFFF 		.long	-5
 6064 09e4 FBFFFFFF 		.long	-5
 6065 09e8 FBFFFFFF 		.long	-5
 6066 09ec FBFFFFFF 		.long	-5
 6067 09f0 FBFFFFFF 		.long	-5
 6068 09f4 FBFFFFFF 		.long	-5
 6069 09f8 FBFFFFFF 		.long	-5
 6070 09fc FBFFFFFF 		.long	-5
 6071 0a00 FAFFFFFF 		.long	-6
 6072 0a04 FAFFFFFF 		.long	-6
 6073 0a08 FAFFFFFF 		.long	-6
 6074 0a0c FAFFFFFF 		.long	-6
 6075 0a10 FAFFFFFF 		.long	-6
 6076 0a14 FAFFFFFF 		.long	-6
 6077 0a18 FAFFFFFF 		.long	-6
 6078 0a1c FAFFFFFF 		.long	-6
 6079 0a20 FAFFFFFF 		.long	-6
 6080 0a24 FAFFFFFF 		.long	-6
GAS LISTING /tmp/ccjfHZuC.s 			page 135


 6081 0a28 FAFFFFFF 		.long	-6
 6082 0a2c F9FFFFFF 		.long	-7
 6083 0a30 F9FFFFFF 		.long	-7
 6084 0a34 F9FFFFFF 		.long	-7
 6085 0a38 F9FFFFFF 		.long	-7
 6086 0a3c F9FFFFFF 		.long	-7
 6087 0a40 F9FFFFFF 		.long	-7
 6088 0a44 F9FFFFFF 		.long	-7
 6089 0a48 F9FFFFFF 		.long	-7
 6090 0a4c F9FFFFFF 		.long	-7
 6091 0a50 F9FFFFFF 		.long	-7
 6092 0a54 F9FFFFFF 		.long	-7
 6093 0a58 F9FFFFFF 		.long	-7
 6094 0a5c F9FFFFFF 		.long	-7
 6095 0a60 F9FFFFFF 		.long	-7
 6096 0a64 F9FFFFFF 		.long	-7
 6097 0a68 F8FFFFFF 		.long	-8
 6098 0a6c F8FFFFFF 		.long	-8
 6099 0a70 F8FFFFFF 		.long	-8
 6100 0a74 F8FFFFFF 		.long	-8
 6101 0a78 F8FFFFFF 		.long	-8
 6102 0a7c F8FFFFFF 		.long	-8
 6103 0a80 F8FFFFFF 		.long	-8
 6104 0a84 F8FFFFFF 		.long	-8
 6105 0a88 F8FFFFFF 		.long	-8
 6106 0a8c F8FFFFFF 		.long	-8
 6107 0a90 F8FFFFFF 		.long	-8
 6108 0a94 F8FFFFFF 		.long	-8
 6109 0a98 F8FFFFFF 		.long	-8
 6110 0a9c F8FFFFFF 		.long	-8
 6111 0aa0 F8FFFFFF 		.long	-8
 6112 0aa4 F8FFFFFF 		.long	-8
 6113 0aa8 F8FFFFFF 		.long	-8
 6114 0aac F8FFFFFF 		.long	-8
 6115 0ab0 F8FFFFFF 		.long	-8
 6116 0ab4 F8FFFFFF 		.long	-8
 6117 0ab8 F8FFFFFF 		.long	-8
 6118 0abc F8FFFFFF 		.long	-8
 6119 0ac0 F8FFFFFF 		.long	-8
 6120 0ac4 F8FFFFFF 		.long	-8
 6121 0ac8 F8FFFFFF 		.long	-8
 6122 0acc F8FFFFFF 		.long	-8
 6123 0ad0 F8FFFFFF 		.long	-8
 6124 0ad4 F8FFFFFF 		.long	-8
 6125 0ad8 F8FFFFFF 		.long	-8
 6126 0adc F8FFFFFF 		.long	-8
 6127 0ae0 F8FFFFFF 		.long	-8
 6128 0ae4 F8FFFFFF 		.long	-8
 6129 0ae8 F8FFFFFF 		.long	-8
 6130 0aec F8FFFFFF 		.long	-8
 6131 0af0 F8FFFFFF 		.long	-8
 6132 0af4 F8FFFFFF 		.long	-8
 6133 0af8 F8FFFFFF 		.long	-8
 6134 0afc F8FFFFFF 		.long	-8
 6135 0b00 F8FFFFFF 		.long	-8
 6136 0b04 F8FFFFFF 		.long	-8
 6137 0b08 F8FFFFFF 		.long	-8
GAS LISTING /tmp/ccjfHZuC.s 			page 136


 6138 0b0c F9FFFFFF 		.long	-7
 6139 0b10 F9FFFFFF 		.long	-7
 6140 0b14 F9FFFFFF 		.long	-7
 6141 0b18 F9FFFFFF 		.long	-7
 6142 0b1c F9FFFFFF 		.long	-7
 6143 0b20 F9FFFFFF 		.long	-7
 6144 0b24 F9FFFFFF 		.long	-7
 6145 0b28 F9FFFFFF 		.long	-7
 6146 0b2c F9FFFFFF 		.long	-7
 6147 0b30 F9FFFFFF 		.long	-7
 6148 0b34 F9FFFFFF 		.long	-7
 6149 0b38 F9FFFFFF 		.long	-7
 6150 0b3c F9FFFFFF 		.long	-7
 6151 0b40 F9FFFFFF 		.long	-7
 6152 0b44 F9FFFFFF 		.long	-7
 6153 0b48 FAFFFFFF 		.long	-6
 6154 0b4c FAFFFFFF 		.long	-6
 6155 0b50 FAFFFFFF 		.long	-6
 6156 0b54 FAFFFFFF 		.long	-6
 6157 0b58 FAFFFFFF 		.long	-6
 6158 0b5c FAFFFFFF 		.long	-6
 6159 0b60 FAFFFFFF 		.long	-6
 6160 0b64 FAFFFFFF 		.long	-6
 6161 0b68 FAFFFFFF 		.long	-6
 6162 0b6c FAFFFFFF 		.long	-6
 6163 0b70 FAFFFFFF 		.long	-6
 6164 0b74 FBFFFFFF 		.long	-5
 6165 0b78 FBFFFFFF 		.long	-5
 6166 0b7c FBFFFFFF 		.long	-5
 6167 0b80 FBFFFFFF 		.long	-5
 6168 0b84 FBFFFFFF 		.long	-5
 6169 0b88 FBFFFFFF 		.long	-5
 6170 0b8c FBFFFFFF 		.long	-5
 6171 0b90 FBFFFFFF 		.long	-5
 6172 0b94 FBFFFFFF 		.long	-5
 6173 0b98 FCFFFFFF 		.long	-4
 6174 0b9c FCFFFFFF 		.long	-4
 6175 0ba0 FCFFFFFF 		.long	-4
 6176 0ba4 FCFFFFFF 		.long	-4
 6177 0ba8 FCFFFFFF 		.long	-4
 6178 0bac FCFFFFFF 		.long	-4
 6179 0bb0 FCFFFFFF 		.long	-4
 6180 0bb4 FCFFFFFF 		.long	-4
 6181 0bb8 FCFFFFFF 		.long	-4
 6182 0bbc FDFFFFFF 		.long	-3
 6183 0bc0 FDFFFFFF 		.long	-3
 6184 0bc4 FDFFFFFF 		.long	-3
 6185 0bc8 FDFFFFFF 		.long	-3
 6186 0bcc FDFFFFFF 		.long	-3
 6187 0bd0 FDFFFFFF 		.long	-3
 6188 0bd4 FDFFFFFF 		.long	-3
 6189 0bd8 FEFFFFFF 		.long	-2
 6190 0bdc FEFFFFFF 		.long	-2
 6191 0be0 FEFFFFFF 		.long	-2
 6192 0be4 FEFFFFFF 		.long	-2
 6193 0be8 FEFFFFFF 		.long	-2
 6194 0bec FEFFFFFF 		.long	-2
GAS LISTING /tmp/ccjfHZuC.s 			page 137


 6195 0bf0 FEFFFFFF 		.long	-2
 6196 0bf4 FEFFFFFF 		.long	-2
 6197 0bf8 FFFFFFFF 		.long	-1
 6198 0bfc FFFFFFFF 		.long	-1
 6199 0c00 FFFFFFFF 		.long	-1
 6200 0c04 FFFFFFFF 		.long	-1
 6201 0c08 FFFFFFFF 		.long	-1
 6202 0c0c FFFFFFFF 		.long	-1
 6203 0c10 FFFFFFFF 		.long	-1
 6204 0c14 00000000 		.long	0
 6205 0c18 00000000 		.long	0
 6206 0c1c 00000000 		.long	0
 6207              		.global _PVB_FONT
 6208              		.type	_PVB_FONT, @object
 6209              		.size	_PVB_FONT, 8192
 6210              	_PVB_FONT:
 6211 0c20 00       		.byte	0
 6212 0c21 00       		.byte	0
 6213 0c22 00       		.byte	0
 6214 0c23 00       		.byte	0
 6215 0c24 00       		.byte	0
 6216 0c25 00       		.byte	0
 6217 0c26 00       		.byte	0
 6218 0c27 00       		.byte	0
 6219 0c28 00       		.byte	0
 6220 0c29 00       		.byte	0
 6221 0c2a 00       		.byte	0
 6222 0c2b 00       		.byte	0
 6223 0c2c 00       		.byte	0
 6224 0c2d 00       		.byte	0
 6225 0c2e 00       		.byte	0
 6226 0c2f 00       		.byte	0
 6227 0c30 FC       		.byte	-4
 6228 0c31 3F       		.byte	63
 6229 0c32 03       		.byte	3
 6230 0c33 C0       		.byte	-64
 6231 0c34 33       		.byte	51
 6232 0c35 CC       		.byte	-52
 6233 0c36 03       		.byte	3
 6234 0c37 C0       		.byte	-64
 6235 0c38 F3       		.byte	-13
 6236 0c39 CF       		.byte	-49
 6237 0c3a C3       		.byte	-61
 6238 0c3b C3       		.byte	-61
 6239 0c3c 03       		.byte	3
 6240 0c3d C0       		.byte	-64
 6241 0c3e FC       		.byte	-4
 6242 0c3f 3F       		.byte	63
 6243 0c40 FC       		.byte	-4
 6244 0c41 3F       		.byte	63
 6245 0c42 FF       		.byte	-1
 6246 0c43 FF       		.byte	-1
 6247 0c44 CF       		.byte	-49
 6248 0c45 F3       		.byte	-13
 6249 0c46 FF       		.byte	-1
 6250 0c47 FF       		.byte	-1
 6251 0c48 0F       		.byte	15
GAS LISTING /tmp/ccjfHZuC.s 			page 138


 6252 0c49 F0       		.byte	-16
 6253 0c4a 3F       		.byte	63
 6254 0c4b FC       		.byte	-4
 6255 0c4c FF       		.byte	-1
 6256 0c4d FF       		.byte	-1
 6257 0c4e FC       		.byte	-4
 6258 0c4f 3F       		.byte	63
 6259 0c50 3C       		.byte	60
 6260 0c51 0F       		.byte	15
 6261 0c52 FF       		.byte	-1
 6262 0c53 3F       		.byte	63
 6263 0c54 FF       		.byte	-1
 6264 0c55 3F       		.byte	63
 6265 0c56 FF       		.byte	-1
 6266 0c57 3F       		.byte	63
 6267 0c58 FC       		.byte	-4
 6268 0c59 0F       		.byte	15
 6269 0c5a F0       		.byte	-16
 6270 0c5b 03       		.byte	3
 6271 0c5c C0       		.byte	-64
 6272 0c5d 00       		.byte	0
 6273 0c5e 00       		.byte	0
 6274 0c5f 00       		.byte	0
 6275 0c60 C0       		.byte	-64
 6276 0c61 00       		.byte	0
 6277 0c62 F0       		.byte	-16
 6278 0c63 03       		.byte	3
 6279 0c64 FC       		.byte	-4
 6280 0c65 0F       		.byte	15
 6281 0c66 FF       		.byte	-1
 6282 0c67 3F       		.byte	63
 6283 0c68 FC       		.byte	-4
 6284 0c69 0F       		.byte	15
 6285 0c6a F0       		.byte	-16
 6286 0c6b 03       		.byte	3
 6287 0c6c C0       		.byte	-64
 6288 0c6d 00       		.byte	0
 6289 0c6e 00       		.byte	0
 6290 0c6f 00       		.byte	0
 6291 0c70 F0       		.byte	-16
 6292 0c71 03       		.byte	3
 6293 0c72 FC       		.byte	-4
 6294 0c73 0F       		.byte	15
 6295 0c74 F0       		.byte	-16
 6296 0c75 03       		.byte	3
 6297 0c76 FF       		.byte	-1
 6298 0c77 3F       		.byte	63
 6299 0c78 FF       		.byte	-1
 6300 0c79 3F       		.byte	63
 6301 0c7a CF       		.byte	-49
 6302 0c7b 3C       		.byte	60
 6303 0c7c C0       		.byte	-64
 6304 0c7d 00       		.byte	0
 6305 0c7e F0       		.byte	-16
 6306 0c7f 03       		.byte	3
 6307 0c80 C0       		.byte	-64
 6308 0c81 00       		.byte	0
GAS LISTING /tmp/ccjfHZuC.s 			page 139


 6309 0c82 C0       		.byte	-64
 6310 0c83 00       		.byte	0
 6311 0c84 F0       		.byte	-16
 6312 0c85 03       		.byte	3
 6313 0c86 FC       		.byte	-4
 6314 0c87 0F       		.byte	15
 6315 0c88 FF       		.byte	-1
 6316 0c89 3F       		.byte	63
 6317 0c8a FC       		.byte	-4
 6318 0c8b 0F       		.byte	15
 6319 0c8c C0       		.byte	-64
 6320 0c8d 00       		.byte	0
 6321 0c8e F0       		.byte	-16
 6322 0c8f 03       		.byte	3
 6323 0c90 00       		.byte	0
 6324 0c91 00       		.byte	0
 6325 0c92 00       		.byte	0
 6326 0c93 00       		.byte	0
 6327 0c94 C0       		.byte	-64
 6328 0c95 03       		.byte	3
 6329 0c96 F0       		.byte	-16
 6330 0c97 0F       		.byte	15
 6331 0c98 F0       		.byte	-16
 6332 0c99 0F       		.byte	15
 6333 0c9a C0       		.byte	-64
 6334 0c9b 03       		.byte	3
 6335 0c9c 00       		.byte	0
 6336 0c9d 00       		.byte	0
 6337 0c9e 00       		.byte	0
 6338 0c9f 00       		.byte	0
 6339 0ca0 FF       		.byte	-1
 6340 0ca1 FF       		.byte	-1
 6341 0ca2 FF       		.byte	-1
 6342 0ca3 FF       		.byte	-1
 6343 0ca4 3F       		.byte	63
 6344 0ca5 FC       		.byte	-4
 6345 0ca6 0F       		.byte	15
 6346 0ca7 F0       		.byte	-16
 6347 0ca8 0F       		.byte	15
 6348 0ca9 F0       		.byte	-16
 6349 0caa 3F       		.byte	63
 6350 0cab FC       		.byte	-4
 6351 0cac FF       		.byte	-1
 6352 0cad FF       		.byte	-1
 6353 0cae FF       		.byte	-1
 6354 0caf FF       		.byte	-1
 6355 0cb0 00       		.byte	0
 6356 0cb1 00       		.byte	0
 6357 0cb2 F0       		.byte	-16
 6358 0cb3 0F       		.byte	15
 6359 0cb4 3C       		.byte	60
 6360 0cb5 3C       		.byte	60
 6361 0cb6 0C       		.byte	12
 6362 0cb7 30       		.byte	48
 6363 0cb8 0C       		.byte	12
 6364 0cb9 30       		.byte	48
 6365 0cba 3C       		.byte	60
GAS LISTING /tmp/ccjfHZuC.s 			page 140


 6366 0cbb 3C       		.byte	60
 6367 0cbc F0       		.byte	-16
 6368 0cbd 0F       		.byte	15
 6369 0cbe 00       		.byte	0
 6370 0cbf 00       		.byte	0
 6371 0cc0 FF       		.byte	-1
 6372 0cc1 FF       		.byte	-1
 6373 0cc2 0F       		.byte	15
 6374 0cc3 F0       		.byte	-16
 6375 0cc4 C3       		.byte	-61
 6376 0cc5 C3       		.byte	-61
 6377 0cc6 F3       		.byte	-13
 6378 0cc7 CF       		.byte	-49
 6379 0cc8 F3       		.byte	-13
 6380 0cc9 CF       		.byte	-49
 6381 0cca C3       		.byte	-61
 6382 0ccb C3       		.byte	-61
 6383 0ccc 0F       		.byte	15
 6384 0ccd F0       		.byte	-16
 6385 0cce FF       		.byte	-1
 6386 0ccf FF       		.byte	-1
 6387 0cd0 00       		.byte	0
 6388 0cd1 FF       		.byte	-1
 6389 0cd2 00       		.byte	0
 6390 0cd3 FC       		.byte	-4
 6391 0cd4 00       		.byte	0
 6392 0cd5 FF       		.byte	-1
 6393 0cd6 FC       		.byte	-4
 6394 0cd7 CF       		.byte	-49
 6395 0cd8 0F       		.byte	15
 6396 0cd9 0F       		.byte	15
 6397 0cda 0F       		.byte	15
 6398 0cdb 0F       		.byte	15
 6399 0cdc 0F       		.byte	15
 6400 0cdd 0F       		.byte	15
 6401 0cde FC       		.byte	-4
 6402 0cdf 03       		.byte	3
 6403 0ce0 F0       		.byte	-16
 6404 0ce1 0F       		.byte	15
 6405 0ce2 3C       		.byte	60
 6406 0ce3 3C       		.byte	60
 6407 0ce4 3C       		.byte	60
 6408 0ce5 3C       		.byte	60
 6409 0ce6 3C       		.byte	60
 6410 0ce7 3C       		.byte	60
 6411 0ce8 F0       		.byte	-16
 6412 0ce9 0F       		.byte	15
 6413 0cea C0       		.byte	-64
 6414 0ceb 03       		.byte	3
 6415 0cec FC       		.byte	-4
 6416 0ced 3F       		.byte	63
 6417 0cee C0       		.byte	-64
 6418 0cef 03       		.byte	3
 6419 0cf0 F0       		.byte	-16
 6420 0cf1 FF       		.byte	-1
 6421 0cf2 F0       		.byte	-16
 6422 0cf3 F0       		.byte	-16
GAS LISTING /tmp/ccjfHZuC.s 			page 141


 6423 0cf4 F0       		.byte	-16
 6424 0cf5 FF       		.byte	-1
 6425 0cf6 F0       		.byte	-16
 6426 0cf7 00       		.byte	0
 6427 0cf8 F0       		.byte	-16
 6428 0cf9 00       		.byte	0
 6429 0cfa FC       		.byte	-4
 6430 0cfb 00       		.byte	0
 6431 0cfc FF       		.byte	-1
 6432 0cfd 00       		.byte	0
 6433 0cfe 3F       		.byte	63
 6434 0cff 00       		.byte	0
 6435 0d00 FC       		.byte	-4
 6436 0d01 FF       		.byte	-1
 6437 0d02 3C       		.byte	60
 6438 0d03 F0       		.byte	-16
 6439 0d04 FC       		.byte	-4
 6440 0d05 FF       		.byte	-1
 6441 0d06 3C       		.byte	60
 6442 0d07 F0       		.byte	-16
 6443 0d08 3C       		.byte	60
 6444 0d09 F0       		.byte	-16
 6445 0d0a 3C       		.byte	60
 6446 0d0b FC       		.byte	-4
 6447 0d0c 3F       		.byte	63
 6448 0d0d 3C       		.byte	60
 6449 0d0e 0F       		.byte	15
 6450 0d0f 00       		.byte	0
 6451 0d10 C3       		.byte	-61
 6452 0d11 C3       		.byte	-61
 6453 0d12 CC       		.byte	-52
 6454 0d13 33       		.byte	51
 6455 0d14 F0       		.byte	-16
 6456 0d15 0F       		.byte	15
 6457 0d16 3F       		.byte	63
 6458 0d17 FC       		.byte	-4
 6459 0d18 3F       		.byte	63
 6460 0d19 FC       		.byte	-4
 6461 0d1a F0       		.byte	-16
 6462 0d1b 0F       		.byte	15
 6463 0d1c CC       		.byte	-52
 6464 0d1d 33       		.byte	51
 6465 0d1e C3       		.byte	-61
 6466 0d1f C3       		.byte	-61
 6467 0d20 03       		.byte	3
 6468 0d21 00       		.byte	0
 6469 0d22 3F       		.byte	63
 6470 0d23 00       		.byte	0
 6471 0d24 FF       		.byte	-1
 6472 0d25 03       		.byte	3
 6473 0d26 FF       		.byte	-1
 6474 0d27 3F       		.byte	63
 6475 0d28 FF       		.byte	-1
 6476 0d29 03       		.byte	3
 6477 0d2a 3F       		.byte	63
 6478 0d2b 00       		.byte	0
 6479 0d2c 03       		.byte	3
GAS LISTING /tmp/ccjfHZuC.s 			page 142


 6480 0d2d 00       		.byte	0
 6481 0d2e 00       		.byte	0
 6482 0d2f 00       		.byte	0
 6483 0d30 00       		.byte	0
 6484 0d31 30       		.byte	48
 6485 0d32 00       		.byte	0
 6486 0d33 3F       		.byte	63
 6487 0d34 F0       		.byte	-16
 6488 0d35 3F       		.byte	63
 6489 0d36 FF       		.byte	-1
 6490 0d37 3F       		.byte	63
 6491 0d38 F0       		.byte	-16
 6492 0d39 3F       		.byte	63
 6493 0d3a 00       		.byte	0
 6494 0d3b 3F       		.byte	63
 6495 0d3c 00       		.byte	0
 6496 0d3d 30       		.byte	48
 6497 0d3e 00       		.byte	0
 6498 0d3f 00       		.byte	0
 6499 0d40 C0       		.byte	-64
 6500 0d41 03       		.byte	3
 6501 0d42 F0       		.byte	-16
 6502 0d43 0F       		.byte	15
 6503 0d44 FC       		.byte	-4
 6504 0d45 3F       		.byte	63
 6505 0d46 C0       		.byte	-64
 6506 0d47 03       		.byte	3
 6507 0d48 C0       		.byte	-64
 6508 0d49 03       		.byte	3
 6509 0d4a FC       		.byte	-4
 6510 0d4b 3F       		.byte	63
 6511 0d4c F0       		.byte	-16
 6512 0d4d 0F       		.byte	15
 6513 0d4e C0       		.byte	-64
 6514 0d4f 03       		.byte	3
 6515 0d50 3C       		.byte	60
 6516 0d51 3C       		.byte	60
 6517 0d52 3C       		.byte	60
 6518 0d53 3C       		.byte	60
 6519 0d54 3C       		.byte	60
 6520 0d55 3C       		.byte	60
 6521 0d56 3C       		.byte	60
 6522 0d57 3C       		.byte	60
 6523 0d58 3C       		.byte	60
 6524 0d59 3C       		.byte	60
 6525 0d5a 00       		.byte	0
 6526 0d5b 00       		.byte	0
 6527 0d5c 3C       		.byte	60
 6528 0d5d 3C       		.byte	60
 6529 0d5e 00       		.byte	0
 6530 0d5f 00       		.byte	0
 6531 0d60 FC       		.byte	-4
 6532 0d61 FF       		.byte	-1
 6533 0d62 CF       		.byte	-49
 6534 0d63 F3       		.byte	-13
 6535 0d64 CF       		.byte	-49
 6536 0d65 F3       		.byte	-13
GAS LISTING /tmp/ccjfHZuC.s 			page 143


 6537 0d66 FC       		.byte	-4
 6538 0d67 F3       		.byte	-13
 6539 0d68 C0       		.byte	-64
 6540 0d69 F3       		.byte	-13
 6541 0d6a C0       		.byte	-64
 6542 0d6b F3       		.byte	-13
 6543 0d6c C0       		.byte	-64
 6544 0d6d F3       		.byte	-13
 6545 0d6e 00       		.byte	0
 6546 0d6f 00       		.byte	0
 6547 0d70 FC       		.byte	-4
 6548 0d71 3F       		.byte	63
 6549 0d72 0F       		.byte	15
 6550 0d73 F0       		.byte	-16
 6551 0d74 FC       		.byte	-4
 6552 0d75 03       		.byte	3
 6553 0d76 0F       		.byte	15
 6554 0d77 0F       		.byte	15
 6555 0d78 0F       		.byte	15
 6556 0d79 0F       		.byte	15
 6557 0d7a FC       		.byte	-4
 6558 0d7b 03       		.byte	3
 6559 0d7c 03       		.byte	3
 6560 0d7d 0F       		.byte	15
 6561 0d7e FF       		.byte	-1
 6562 0d7f 03       		.byte	3
 6563 0d80 00       		.byte	0
 6564 0d81 00       		.byte	0
 6565 0d82 00       		.byte	0
 6566 0d83 00       		.byte	0
 6567 0d84 00       		.byte	0
 6568 0d85 00       		.byte	0
 6569 0d86 00       		.byte	0
 6570 0d87 00       		.byte	0
 6571 0d88 FC       		.byte	-4
 6572 0d89 3F       		.byte	63
 6573 0d8a FC       		.byte	-4
 6574 0d8b 3F       		.byte	63
 6575 0d8c FC       		.byte	-4
 6576 0d8d 3F       		.byte	63
 6577 0d8e 00       		.byte	0
 6578 0d8f 00       		.byte	0
 6579 0d90 C0       		.byte	-64
 6580 0d91 03       		.byte	3
 6581 0d92 F0       		.byte	-16
 6582 0d93 0F       		.byte	15
 6583 0d94 FC       		.byte	-4
 6584 0d95 3F       		.byte	63
 6585 0d96 C0       		.byte	-64
 6586 0d97 03       		.byte	3
 6587 0d98 FC       		.byte	-4
 6588 0d99 3F       		.byte	63
 6589 0d9a F0       		.byte	-16
 6590 0d9b 0F       		.byte	15
 6591 0d9c C0       		.byte	-64
 6592 0d9d 03       		.byte	3
 6593 0d9e FF       		.byte	-1
GAS LISTING /tmp/ccjfHZuC.s 			page 144


 6594 0d9f FF       		.byte	-1
 6595 0da0 C0       		.byte	-64
 6596 0da1 03       		.byte	3
 6597 0da2 F0       		.byte	-16
 6598 0da3 0F       		.byte	15
 6599 0da4 FC       		.byte	-4
 6600 0da5 3F       		.byte	63
 6601 0da6 C0       		.byte	-64
 6602 0da7 03       		.byte	3
 6603 0da8 C0       		.byte	-64
 6604 0da9 03       		.byte	3
 6605 0daa C0       		.byte	-64
 6606 0dab 03       		.byte	3
 6607 0dac C0       		.byte	-64
 6608 0dad 03       		.byte	3
 6609 0dae 00       		.byte	0
 6610 0daf 00       		.byte	0
 6611 0db0 C0       		.byte	-64
 6612 0db1 03       		.byte	3
 6613 0db2 C0       		.byte	-64
 6614 0db3 03       		.byte	3
 6615 0db4 C0       		.byte	-64
 6616 0db5 03       		.byte	3
 6617 0db6 C0       		.byte	-64
 6618 0db7 03       		.byte	3
 6619 0db8 FC       		.byte	-4
 6620 0db9 3F       		.byte	63
 6621 0dba F0       		.byte	-16
 6622 0dbb 0F       		.byte	15
 6623 0dbc C0       		.byte	-64
 6624 0dbd 03       		.byte	3
 6625 0dbe 00       		.byte	0
 6626 0dbf 00       		.byte	0
 6627 0dc0 00       		.byte	0
 6628 0dc1 00       		.byte	0
 6629 0dc2 C0       		.byte	-64
 6630 0dc3 03       		.byte	3
 6631 0dc4 00       		.byte	0
 6632 0dc5 0F       		.byte	15
 6633 0dc6 FF       		.byte	-1
 6634 0dc7 3F       		.byte	63
 6635 0dc8 00       		.byte	0
 6636 0dc9 0F       		.byte	15
 6637 0dca C0       		.byte	-64
 6638 0dcb 03       		.byte	3
 6639 0dcc 00       		.byte	0
 6640 0dcd 00       		.byte	0
 6641 0dce 00       		.byte	0
 6642 0dcf 00       		.byte	0
 6643 0dd0 00       		.byte	0
 6644 0dd1 00       		.byte	0
 6645 0dd2 F0       		.byte	-16
 6646 0dd3 00       		.byte	0
 6647 0dd4 3C       		.byte	60
 6648 0dd5 00       		.byte	0
 6649 0dd6 FF       		.byte	-1
 6650 0dd7 3F       		.byte	63
GAS LISTING /tmp/ccjfHZuC.s 			page 145


 6651 0dd8 3C       		.byte	60
 6652 0dd9 00       		.byte	0
 6653 0dda F0       		.byte	-16
 6654 0ddb 00       		.byte	0
 6655 0ddc 00       		.byte	0
 6656 0ddd 00       		.byte	0
 6657 0dde 00       		.byte	0
 6658 0ddf 00       		.byte	0
 6659 0de0 00       		.byte	0
 6660 0de1 00       		.byte	0
 6661 0de2 00       		.byte	0
 6662 0de3 00       		.byte	0
 6663 0de4 0F       		.byte	15
 6664 0de5 00       		.byte	0
 6665 0de6 0F       		.byte	15
 6666 0de7 00       		.byte	0
 6667 0de8 0F       		.byte	15
 6668 0de9 00       		.byte	0
 6669 0dea FF       		.byte	-1
 6670 0deb 3F       		.byte	63
 6671 0dec 00       		.byte	0
 6672 0ded 00       		.byte	0
 6673 0dee 00       		.byte	0
 6674 0def 00       		.byte	0
 6675 0df0 00       		.byte	0
 6676 0df1 00       		.byte	0
 6677 0df2 30       		.byte	48
 6678 0df3 0C       		.byte	12
 6679 0df4 3C       		.byte	60
 6680 0df5 3C       		.byte	60
 6681 0df6 FF       		.byte	-1
 6682 0df7 FF       		.byte	-1
 6683 0df8 3C       		.byte	60
 6684 0df9 3C       		.byte	60
 6685 0dfa 30       		.byte	48
 6686 0dfb 0C       		.byte	12
 6687 0dfc 00       		.byte	0
 6688 0dfd 00       		.byte	0
 6689 0dfe 00       		.byte	0
 6690 0dff 00       		.byte	0
 6691 0e00 00       		.byte	0
 6692 0e01 00       		.byte	0
 6693 0e02 C0       		.byte	-64
 6694 0e03 03       		.byte	3
 6695 0e04 F0       		.byte	-16
 6696 0e05 0F       		.byte	15
 6697 0e06 FC       		.byte	-4
 6698 0e07 3F       		.byte	63
 6699 0e08 FF       		.byte	-1
 6700 0e09 FF       		.byte	-1
 6701 0e0a FF       		.byte	-1
 6702 0e0b FF       		.byte	-1
 6703 0e0c 00       		.byte	0
 6704 0e0d 00       		.byte	0
 6705 0e0e 00       		.byte	0
 6706 0e0f 00       		.byte	0
 6707 0e10 00       		.byte	0
GAS LISTING /tmp/ccjfHZuC.s 			page 146


 6708 0e11 00       		.byte	0
 6709 0e12 FF       		.byte	-1
 6710 0e13 FF       		.byte	-1
 6711 0e14 FF       		.byte	-1
 6712 0e15 FF       		.byte	-1
 6713 0e16 FC       		.byte	-4
 6714 0e17 3F       		.byte	63
 6715 0e18 F0       		.byte	-16
 6716 0e19 0F       		.byte	15
 6717 0e1a C0       		.byte	-64
 6718 0e1b 03       		.byte	3
 6719 0e1c 00       		.byte	0
 6720 0e1d 00       		.byte	0
 6721 0e1e 00       		.byte	0
 6722 0e1f 00       		.byte	0
 6723 0e20 00       		.byte	0
 6724 0e21 00       		.byte	0
 6725 0e22 00       		.byte	0
 6726 0e23 00       		.byte	0
 6727 0e24 00       		.byte	0
 6728 0e25 00       		.byte	0
 6729 0e26 00       		.byte	0
 6730 0e27 00       		.byte	0
 6731 0e28 00       		.byte	0
 6732 0e29 00       		.byte	0
 6733 0e2a 00       		.byte	0
 6734 0e2b 00       		.byte	0
 6735 0e2c 00       		.byte	0
 6736 0e2d 00       		.byte	0
 6737 0e2e 00       		.byte	0
 6738 0e2f 00       		.byte	0
 6739 0e30 F0       		.byte	-16
 6740 0e31 00       		.byte	0
 6741 0e32 FC       		.byte	-4
 6742 0e33 03       		.byte	3
 6743 0e34 FC       		.byte	-4
 6744 0e35 03       		.byte	3
 6745 0e36 F0       		.byte	-16
 6746 0e37 00       		.byte	0
 6747 0e38 F0       		.byte	-16
 6748 0e39 00       		.byte	0
 6749 0e3a 00       		.byte	0
 6750 0e3b 00       		.byte	0
 6751 0e3c F0       		.byte	-16
 6752 0e3d 00       		.byte	0
 6753 0e3e 00       		.byte	0
 6754 0e3f 00       		.byte	0
 6755 0e40 3C       		.byte	60
 6756 0e41 0F       		.byte	15
 6757 0e42 3C       		.byte	60
 6758 0e43 0F       		.byte	15
 6759 0e44 3C       		.byte	60
 6760 0e45 0F       		.byte	15
 6761 0e46 00       		.byte	0
 6762 0e47 00       		.byte	0
 6763 0e48 00       		.byte	0
 6764 0e49 00       		.byte	0
GAS LISTING /tmp/ccjfHZuC.s 			page 147


 6765 0e4a 00       		.byte	0
 6766 0e4b 00       		.byte	0
 6767 0e4c 00       		.byte	0
 6768 0e4d 00       		.byte	0
 6769 0e4e 00       		.byte	0
 6770 0e4f 00       		.byte	0
 6771 0e50 3C       		.byte	60
 6772 0e51 0F       		.byte	15
 6773 0e52 3C       		.byte	60
 6774 0e53 0F       		.byte	15
 6775 0e54 FF       		.byte	-1
 6776 0e55 3F       		.byte	63
 6777 0e56 3C       		.byte	60
 6778 0e57 0F       		.byte	15
 6779 0e58 FF       		.byte	-1
 6780 0e59 3F       		.byte	63
 6781 0e5a 3C       		.byte	60
 6782 0e5b 0F       		.byte	15
 6783 0e5c 3C       		.byte	60
 6784 0e5d 0F       		.byte	15
 6785 0e5e 00       		.byte	0
 6786 0e5f 00       		.byte	0
 6787 0e60 F0       		.byte	-16
 6788 0e61 00       		.byte	0
 6789 0e62 FC       		.byte	-4
 6790 0e63 0F       		.byte	15
 6791 0e64 0F       		.byte	15
 6792 0e65 00       		.byte	0
 6793 0e66 FC       		.byte	-4
 6794 0e67 03       		.byte	3
 6795 0e68 00       		.byte	0
 6796 0e69 0F       		.byte	15
 6797 0e6a FF       		.byte	-1
 6798 0e6b 03       		.byte	3
 6799 0e6c F0       		.byte	-16
 6800 0e6d 00       		.byte	0
 6801 0e6e 00       		.byte	0
 6802 0e6f 00       		.byte	0
 6803 0e70 00       		.byte	0
 6804 0e71 00       		.byte	0
 6805 0e72 0F       		.byte	15
 6806 0e73 3C       		.byte	60
 6807 0e74 0F       		.byte	15
 6808 0e75 0F       		.byte	15
 6809 0e76 C0       		.byte	-64
 6810 0e77 03       		.byte	3
 6811 0e78 F0       		.byte	-16
 6812 0e79 00       		.byte	0
 6813 0e7a 3C       		.byte	60
 6814 0e7b 3C       		.byte	60
 6815 0e7c 0F       		.byte	15
 6816 0e7d 3C       		.byte	60
 6817 0e7e 00       		.byte	0
 6818 0e7f 00       		.byte	0
 6819 0e80 F0       		.byte	-16
 6820 0e81 03       		.byte	3
 6821 0e82 3C       		.byte	60
GAS LISTING /tmp/ccjfHZuC.s 			page 148


 6822 0e83 0F       		.byte	15
 6823 0e84 F0       		.byte	-16
 6824 0e85 03       		.byte	3
 6825 0e86 FC       		.byte	-4
 6826 0e87 3C       		.byte	60
 6827 0e88 CF       		.byte	-49
 6828 0e89 0F       		.byte	15
 6829 0e8a 0F       		.byte	15
 6830 0e8b 0F       		.byte	15
 6831 0e8c FC       		.byte	-4
 6832 0e8d 3C       		.byte	60
 6833 0e8e 00       		.byte	0
 6834 0e8f 00       		.byte	0
 6835 0e90 3C       		.byte	60
 6836 0e91 00       		.byte	0
 6837 0e92 3C       		.byte	60
 6838 0e93 00       		.byte	0
 6839 0e94 0F       		.byte	15
 6840 0e95 00       		.byte	0
 6841 0e96 00       		.byte	0
 6842 0e97 00       		.byte	0
 6843 0e98 00       		.byte	0
 6844 0e99 00       		.byte	0
 6845 0e9a 00       		.byte	0
 6846 0e9b 00       		.byte	0
 6847 0e9c 00       		.byte	0
 6848 0e9d 00       		.byte	0
 6849 0e9e 00       		.byte	0
 6850 0e9f 00       		.byte	0
 6851 0ea0 C0       		.byte	-64
 6852 0ea1 03       		.byte	3
 6853 0ea2 F0       		.byte	-16
 6854 0ea3 00       		.byte	0
 6855 0ea4 3C       		.byte	60
 6856 0ea5 00       		.byte	0
 6857 0ea6 3C       		.byte	60
 6858 0ea7 00       		.byte	0
 6859 0ea8 3C       		.byte	60
 6860 0ea9 00       		.byte	0
 6861 0eaa F0       		.byte	-16
 6862 0eab 00       		.byte	0
 6863 0eac C0       		.byte	-64
 6864 0ead 03       		.byte	3
 6865 0eae 00       		.byte	0
 6866 0eaf 00       		.byte	0
 6867 0eb0 3C       		.byte	60
 6868 0eb1 00       		.byte	0
 6869 0eb2 F0       		.byte	-16
 6870 0eb3 00       		.byte	0
 6871 0eb4 C0       		.byte	-64
 6872 0eb5 03       		.byte	3
 6873 0eb6 C0       		.byte	-64
 6874 0eb7 03       		.byte	3
 6875 0eb8 C0       		.byte	-64
 6876 0eb9 03       		.byte	3
 6877 0eba F0       		.byte	-16
 6878 0ebb 00       		.byte	0
GAS LISTING /tmp/ccjfHZuC.s 			page 149


 6879 0ebc 3C       		.byte	60
 6880 0ebd 00       		.byte	0
 6881 0ebe 00       		.byte	0
 6882 0ebf 00       		.byte	0
 6883 0ec0 00       		.byte	0
 6884 0ec1 00       		.byte	0
 6885 0ec2 3C       		.byte	60
 6886 0ec3 3C       		.byte	60
 6887 0ec4 F0       		.byte	-16
 6888 0ec5 0F       		.byte	15
 6889 0ec6 FF       		.byte	-1
 6890 0ec7 FF       		.byte	-1
 6891 0ec8 F0       		.byte	-16
 6892 0ec9 0F       		.byte	15
 6893 0eca 3C       		.byte	60
 6894 0ecb 3C       		.byte	60
 6895 0ecc 00       		.byte	0
 6896 0ecd 00       		.byte	0
 6897 0ece 00       		.byte	0
 6898 0ecf 00       		.byte	0
 6899 0ed0 00       		.byte	0
 6900 0ed1 00       		.byte	0
 6901 0ed2 F0       		.byte	-16
 6902 0ed3 00       		.byte	0
 6903 0ed4 F0       		.byte	-16
 6904 0ed5 00       		.byte	0
 6905 0ed6 FF       		.byte	-1
 6906 0ed7 0F       		.byte	15
 6907 0ed8 F0       		.byte	-16
 6908 0ed9 00       		.byte	0
 6909 0eda F0       		.byte	-16
 6910 0edb 00       		.byte	0
 6911 0edc 00       		.byte	0
 6912 0edd 00       		.byte	0
 6913 0ede 00       		.byte	0
 6914 0edf 00       		.byte	0
 6915 0ee0 00       		.byte	0
 6916 0ee1 00       		.byte	0
 6917 0ee2 00       		.byte	0
 6918 0ee3 00       		.byte	0
 6919 0ee4 00       		.byte	0
 6920 0ee5 00       		.byte	0
 6921 0ee6 00       		.byte	0
 6922 0ee7 00       		.byte	0
 6923 0ee8 00       		.byte	0
 6924 0ee9 00       		.byte	0
 6925 0eea FC       		.byte	-4
 6926 0eeb 00       		.byte	0
 6927 0eec F0       		.byte	-16
 6928 0eed 00       		.byte	0
 6929 0eee 3C       		.byte	60
 6930 0eef 00       		.byte	0
 6931 0ef0 00       		.byte	0
 6932 0ef1 00       		.byte	0
 6933 0ef2 00       		.byte	0
 6934 0ef3 00       		.byte	0
 6935 0ef4 00       		.byte	0
GAS LISTING /tmp/ccjfHZuC.s 			page 150


 6936 0ef5 00       		.byte	0
 6937 0ef6 FF       		.byte	-1
 6938 0ef7 0F       		.byte	15
 6939 0ef8 00       		.byte	0
 6940 0ef9 00       		.byte	0
 6941 0efa 00       		.byte	0
 6942 0efb 00       		.byte	0
 6943 0efc 00       		.byte	0
 6944 0efd 00       		.byte	0
 6945 0efe 00       		.byte	0
 6946 0eff 00       		.byte	0
 6947 0f00 00       		.byte	0
 6948 0f01 00       		.byte	0
 6949 0f02 00       		.byte	0
 6950 0f03 00       		.byte	0
 6951 0f04 00       		.byte	0
 6952 0f05 00       		.byte	0
 6953 0f06 00       		.byte	0
 6954 0f07 00       		.byte	0
 6955 0f08 00       		.byte	0
 6956 0f09 00       		.byte	0
 6957 0f0a F0       		.byte	-16
 6958 0f0b 00       		.byte	0
 6959 0f0c F0       		.byte	-16
 6960 0f0d 00       		.byte	0
 6961 0f0e 00       		.byte	0
 6962 0f0f 00       		.byte	0
 6963 0f10 00       		.byte	0
 6964 0f11 3C       		.byte	60
 6965 0f12 00       		.byte	0
 6966 0f13 0F       		.byte	15
 6967 0f14 C0       		.byte	-64
 6968 0f15 03       		.byte	3
 6969 0f16 F0       		.byte	-16
 6970 0f17 00       		.byte	0
 6971 0f18 3C       		.byte	60
 6972 0f19 00       		.byte	0
 6973 0f1a 0F       		.byte	15
 6974 0f1b 00       		.byte	0
 6975 0f1c 03       		.byte	3
 6976 0f1d 00       		.byte	0
 6977 0f1e 00       		.byte	0
 6978 0f1f 00       		.byte	0
 6979 0f20 FC       		.byte	-4
 6980 0f21 03       		.byte	3
 6981 0f22 0F       		.byte	15
 6982 0f23 0F       		.byte	15
 6983 0f24 CF       		.byte	-49
 6984 0f25 0F       		.byte	15
 6985 0f26 FF       		.byte	-1
 6986 0f27 0F       		.byte	15
 6987 0f28 3F       		.byte	63
 6988 0f29 0F       		.byte	15
 6989 0f2a 0F       		.byte	15
 6990 0f2b 0F       		.byte	15
 6991 0f2c FC       		.byte	-4
 6992 0f2d 03       		.byte	3
GAS LISTING /tmp/ccjfHZuC.s 			page 151


 6993 0f2e 00       		.byte	0
 6994 0f2f 00       		.byte	0
 6995 0f30 F0       		.byte	-16
 6996 0f31 00       		.byte	0
 6997 0f32 FF       		.byte	-1
 6998 0f33 00       		.byte	0
 6999 0f34 F0       		.byte	-16
 7000 0f35 00       		.byte	0
 7001 0f36 F0       		.byte	-16
 7002 0f37 00       		.byte	0
 7003 0f38 F0       		.byte	-16
 7004 0f39 00       		.byte	0
 7005 0f3a F0       		.byte	-16
 7006 0f3b 00       		.byte	0
 7007 0f3c FF       		.byte	-1
 7008 0f3d 0F       		.byte	15
 7009 0f3e 00       		.byte	0
 7010 0f3f 00       		.byte	0
 7011 0f40 FC       		.byte	-4
 7012 0f41 03       		.byte	3
 7013 0f42 0F       		.byte	15
 7014 0f43 0F       		.byte	15
 7015 0f44 00       		.byte	0
 7016 0f45 0F       		.byte	15
 7017 0f46 F0       		.byte	-16
 7018 0f47 03       		.byte	3
 7019 0f48 3C       		.byte	60
 7020 0f49 00       		.byte	0
 7021 0f4a 0F       		.byte	15
 7022 0f4b 0F       		.byte	15
 7023 0f4c FF       		.byte	-1
 7024 0f4d 0F       		.byte	15
 7025 0f4e 00       		.byte	0
 7026 0f4f 00       		.byte	0
 7027 0f50 FC       		.byte	-4
 7028 0f51 03       		.byte	3
 7029 0f52 0F       		.byte	15
 7030 0f53 0F       		.byte	15
 7031 0f54 00       		.byte	0
 7032 0f55 0F       		.byte	15
 7033 0f56 F0       		.byte	-16
 7034 0f57 03       		.byte	3
 7035 0f58 00       		.byte	0
 7036 0f59 0F       		.byte	15
 7037 0f5a 0F       		.byte	15
 7038 0f5b 0F       		.byte	15
 7039 0f5c FC       		.byte	-4
 7040 0f5d 03       		.byte	3
 7041 0f5e 00       		.byte	0
 7042 0f5f 00       		.byte	0
 7043 0f60 C0       		.byte	-64
 7044 0f61 0F       		.byte	15
 7045 0f62 F0       		.byte	-16
 7046 0f63 0F       		.byte	15
 7047 0f64 3C       		.byte	60
 7048 0f65 0F       		.byte	15
 7049 0f66 0F       		.byte	15
GAS LISTING /tmp/ccjfHZuC.s 			page 152


 7050 0f67 0F       		.byte	15
 7051 0f68 FF       		.byte	-1
 7052 0f69 3F       		.byte	63
 7053 0f6a 00       		.byte	0
 7054 0f6b 0F       		.byte	15
 7055 0f6c 00       		.byte	0
 7056 0f6d 0F       		.byte	15
 7057 0f6e 00       		.byte	0
 7058 0f6f 00       		.byte	0
 7059 0f70 FF       		.byte	-1
 7060 0f71 0F       		.byte	15
 7061 0f72 0F       		.byte	15
 7062 0f73 00       		.byte	0
 7063 0f74 FF       		.byte	-1
 7064 0f75 03       		.byte	3
 7065 0f76 00       		.byte	0
 7066 0f77 0F       		.byte	15
 7067 0f78 00       		.byte	0
 7068 0f79 0F       		.byte	15
 7069 0f7a 0F       		.byte	15
 7070 0f7b 0F       		.byte	15
 7071 0f7c FC       		.byte	-4
 7072 0f7d 03       		.byte	3
 7073 0f7e 00       		.byte	0
 7074 0f7f 00       		.byte	0
 7075 0f80 F0       		.byte	-16
 7076 0f81 03       		.byte	3
 7077 0f82 3C       		.byte	60
 7078 0f83 00       		.byte	0
 7079 0f84 0F       		.byte	15
 7080 0f85 00       		.byte	0
 7081 0f86 FF       		.byte	-1
 7082 0f87 03       		.byte	3
 7083 0f88 0F       		.byte	15
 7084 0f89 0F       		.byte	15
 7085 0f8a 0F       		.byte	15
 7086 0f8b 0F       		.byte	15
 7087 0f8c FC       		.byte	-4
 7088 0f8d 03       		.byte	3
 7089 0f8e 00       		.byte	0
 7090 0f8f 00       		.byte	0
 7091 0f90 FF       		.byte	-1
 7092 0f91 0F       		.byte	15
 7093 0f92 0F       		.byte	15
 7094 0f93 0F       		.byte	15
 7095 0f94 00       		.byte	0
 7096 0f95 0F       		.byte	15
 7097 0f96 C0       		.byte	-64
 7098 0f97 03       		.byte	3
 7099 0f98 F0       		.byte	-16
 7100 0f99 00       		.byte	0
 7101 0f9a 3C       		.byte	60
 7102 0f9b 00       		.byte	0
 7103 0f9c 3C       		.byte	60
 7104 0f9d 00       		.byte	0
 7105 0f9e 00       		.byte	0
 7106 0f9f 00       		.byte	0
GAS LISTING /tmp/ccjfHZuC.s 			page 153


 7107 0fa0 FC       		.byte	-4
 7108 0fa1 03       		.byte	3
 7109 0fa2 0F       		.byte	15
 7110 0fa3 0F       		.byte	15
 7111 0fa4 0F       		.byte	15
 7112 0fa5 0F       		.byte	15
 7113 0fa6 FC       		.byte	-4
 7114 0fa7 03       		.byte	3
 7115 0fa8 0F       		.byte	15
 7116 0fa9 0F       		.byte	15
 7117 0faa 0F       		.byte	15
 7118 0fab 0F       		.byte	15
 7119 0fac FC       		.byte	-4
 7120 0fad 03       		.byte	3
 7121 0fae 00       		.byte	0
 7122 0faf 00       		.byte	0
 7123 0fb0 FC       		.byte	-4
 7124 0fb1 03       		.byte	3
 7125 0fb2 0F       		.byte	15
 7126 0fb3 0F       		.byte	15
 7127 0fb4 0F       		.byte	15
 7128 0fb5 0F       		.byte	15
 7129 0fb6 FC       		.byte	-4
 7130 0fb7 0F       		.byte	15
 7131 0fb8 00       		.byte	0
 7132 0fb9 0F       		.byte	15
 7133 0fba C0       		.byte	-64
 7134 0fbb 03       		.byte	3
 7135 0fbc FC       		.byte	-4
 7136 0fbd 00       		.byte	0
 7137 0fbe 00       		.byte	0
 7138 0fbf 00       		.byte	0
 7139 0fc0 00       		.byte	0
 7140 0fc1 00       		.byte	0
 7141 0fc2 00       		.byte	0
 7142 0fc3 00       		.byte	0
 7143 0fc4 F0       		.byte	-16
 7144 0fc5 00       		.byte	0
 7145 0fc6 F0       		.byte	-16
 7146 0fc7 00       		.byte	0
 7147 0fc8 00       		.byte	0
 7148 0fc9 00       		.byte	0
 7149 0fca F0       		.byte	-16
 7150 0fcb 00       		.byte	0
 7151 0fcc F0       		.byte	-16
 7152 0fcd 00       		.byte	0
 7153 0fce 00       		.byte	0
 7154 0fcf 00       		.byte	0
 7155 0fd0 00       		.byte	0
 7156 0fd1 00       		.byte	0
 7157 0fd2 00       		.byte	0
 7158 0fd3 00       		.byte	0
 7159 0fd4 F0       		.byte	-16
 7160 0fd5 00       		.byte	0
 7161 0fd6 F0       		.byte	-16
 7162 0fd7 00       		.byte	0
 7163 0fd8 00       		.byte	0
GAS LISTING /tmp/ccjfHZuC.s 			page 154


 7164 0fd9 00       		.byte	0
 7165 0fda FC       		.byte	-4
 7166 0fdb 00       		.byte	0
 7167 0fdc F0       		.byte	-16
 7168 0fdd 00       		.byte	0
 7169 0fde 3C       		.byte	60
 7170 0fdf 00       		.byte	0
 7171 0fe0 C0       		.byte	-64
 7172 0fe1 03       		.byte	3
 7173 0fe2 F0       		.byte	-16
 7174 0fe3 00       		.byte	0
 7175 0fe4 3C       		.byte	60
 7176 0fe5 00       		.byte	0
 7177 0fe6 0F       		.byte	15
 7178 0fe7 00       		.byte	0
 7179 0fe8 3C       		.byte	60
 7180 0fe9 00       		.byte	0
 7181 0fea F0       		.byte	-16
 7182 0feb 00       		.byte	0
 7183 0fec C0       		.byte	-64
 7184 0fed 03       		.byte	3
 7185 0fee 00       		.byte	0
 7186 0fef 00       		.byte	0
 7187 0ff0 00       		.byte	0
 7188 0ff1 00       		.byte	0
 7189 0ff2 00       		.byte	0
 7190 0ff3 00       		.byte	0
 7191 0ff4 FF       		.byte	-1
 7192 0ff5 0F       		.byte	15
 7193 0ff6 00       		.byte	0
 7194 0ff7 00       		.byte	0
 7195 0ff8 FF       		.byte	-1
 7196 0ff9 0F       		.byte	15
 7197 0ffa 00       		.byte	0
 7198 0ffb 00       		.byte	0
 7199 0ffc 00       		.byte	0
 7200 0ffd 00       		.byte	0
 7201 0ffe 00       		.byte	0
 7202 0fff 00       		.byte	0
 7203 1000 3C       		.byte	60
 7204 1001 00       		.byte	0
 7205 1002 F0       		.byte	-16
 7206 1003 00       		.byte	0
 7207 1004 C0       		.byte	-64
 7208 1005 03       		.byte	3
 7209 1006 00       		.byte	0
 7210 1007 0F       		.byte	15
 7211 1008 C0       		.byte	-64
 7212 1009 03       		.byte	3
 7213 100a F0       		.byte	-16
 7214 100b 00       		.byte	0
 7215 100c 3C       		.byte	60
 7216 100d 00       		.byte	0
 7217 100e 00       		.byte	0
 7218 100f 00       		.byte	0
 7219 1010 FC       		.byte	-4
 7220 1011 03       		.byte	3
GAS LISTING /tmp/ccjfHZuC.s 			page 155


 7221 1012 0F       		.byte	15
 7222 1013 0F       		.byte	15
 7223 1014 00       		.byte	0
 7224 1015 0F       		.byte	15
 7225 1016 C0       		.byte	-64
 7226 1017 03       		.byte	3
 7227 1018 F0       		.byte	-16
 7228 1019 00       		.byte	0
 7229 101a 00       		.byte	0
 7230 101b 00       		.byte	0
 7231 101c F0       		.byte	-16
 7232 101d 00       		.byte	0
 7233 101e 00       		.byte	0
 7234 101f 00       		.byte	0
 7235 1020 FC       		.byte	-4
 7236 1021 0F       		.byte	15
 7237 1022 0F       		.byte	15
 7238 1023 3C       		.byte	60
 7239 1024 CF       		.byte	-49
 7240 1025 3F       		.byte	63
 7241 1026 CF       		.byte	-49
 7242 1027 3F       		.byte	63
 7243 1028 CF       		.byte	-49
 7244 1029 3F       		.byte	63
 7245 102a 0F       		.byte	15
 7246 102b 00       		.byte	0
 7247 102c FC       		.byte	-4
 7248 102d 03       		.byte	3
 7249 102e 00       		.byte	0
 7250 102f 00       		.byte	0
 7251 1030 F0       		.byte	-16
 7252 1031 00       		.byte	0
 7253 1032 FC       		.byte	-4
 7254 1033 03       		.byte	3
 7255 1034 0F       		.byte	15
 7256 1035 0F       		.byte	15
 7257 1036 0F       		.byte	15
 7258 1037 0F       		.byte	15
 7259 1038 FF       		.byte	-1
 7260 1039 0F       		.byte	15
 7261 103a 0F       		.byte	15
 7262 103b 0F       		.byte	15
 7263 103c 0F       		.byte	15
 7264 103d 0F       		.byte	15
 7265 103e 00       		.byte	0
 7266 103f 00       		.byte	0
 7267 1040 FF       		.byte	-1
 7268 1041 0F       		.byte	15
 7269 1042 3C       		.byte	60
 7270 1043 3C       		.byte	60
 7271 1044 3C       		.byte	60
 7272 1045 3C       		.byte	60
 7273 1046 FC       		.byte	-4
 7274 1047 0F       		.byte	15
 7275 1048 3C       		.byte	60
 7276 1049 3C       		.byte	60
 7277 104a 3C       		.byte	60
GAS LISTING /tmp/ccjfHZuC.s 			page 156


 7278 104b 3C       		.byte	60
 7279 104c FF       		.byte	-1
 7280 104d 0F       		.byte	15
 7281 104e 00       		.byte	0
 7282 104f 00       		.byte	0
 7283 1050 F0       		.byte	-16
 7284 1051 0F       		.byte	15
 7285 1052 3C       		.byte	60
 7286 1053 3C       		.byte	60
 7287 1054 0F       		.byte	15
 7288 1055 00       		.byte	0
 7289 1056 0F       		.byte	15
 7290 1057 00       		.byte	0
 7291 1058 0F       		.byte	15
 7292 1059 00       		.byte	0
 7293 105a 3C       		.byte	60
 7294 105b 3C       		.byte	60
 7295 105c F0       		.byte	-16
 7296 105d 0F       		.byte	15
 7297 105e 00       		.byte	0
 7298 105f 00       		.byte	0
 7299 1060 FF       		.byte	-1
 7300 1061 0F       		.byte	15
 7301 1062 3C       		.byte	60
 7302 1063 0F       		.byte	15
 7303 1064 3C       		.byte	60
 7304 1065 3C       		.byte	60
 7305 1066 3C       		.byte	60
 7306 1067 3C       		.byte	60
 7307 1068 3C       		.byte	60
 7308 1069 3C       		.byte	60
 7309 106a 3C       		.byte	60
 7310 106b 0F       		.byte	15
 7311 106c FF       		.byte	-1
 7312 106d 0F       		.byte	15
 7313 106e 00       		.byte	0
 7314 106f 00       		.byte	0
 7315 1070 FF       		.byte	-1
 7316 1071 3F       		.byte	63
 7317 1072 3C       		.byte	60
 7318 1073 30       		.byte	48
 7319 1074 3C       		.byte	60
 7320 1075 03       		.byte	3
 7321 1076 FC       		.byte	-4
 7322 1077 03       		.byte	3
 7323 1078 3C       		.byte	60
 7324 1079 03       		.byte	3
 7325 107a 3C       		.byte	60
 7326 107b 30       		.byte	48
 7327 107c FF       		.byte	-1
 7328 107d 3F       		.byte	63
 7329 107e 00       		.byte	0
 7330 107f 00       		.byte	0
 7331 1080 FF       		.byte	-1
 7332 1081 3F       		.byte	63
 7333 1082 3C       		.byte	60
 7334 1083 30       		.byte	48
GAS LISTING /tmp/ccjfHZuC.s 			page 157


 7335 1084 3C       		.byte	60
 7336 1085 03       		.byte	3
 7337 1086 FC       		.byte	-4
 7338 1087 03       		.byte	3
 7339 1088 3C       		.byte	60
 7340 1089 03       		.byte	3
 7341 108a 3C       		.byte	60
 7342 108b 00       		.byte	0
 7343 108c FF       		.byte	-1
 7344 108d 00       		.byte	0
 7345 108e 00       		.byte	0
 7346 108f 00       		.byte	0
 7347 1090 F0       		.byte	-16
 7348 1091 0F       		.byte	15
 7349 1092 3C       		.byte	60
 7350 1093 3C       		.byte	60
 7351 1094 0F       		.byte	15
 7352 1095 00       		.byte	0
 7353 1096 0F       		.byte	15
 7354 1097 00       		.byte	0
 7355 1098 0F       		.byte	15
 7356 1099 3F       		.byte	63
 7357 109a 3C       		.byte	60
 7358 109b 3C       		.byte	60
 7359 109c F0       		.byte	-16
 7360 109d 3F       		.byte	63
 7361 109e 00       		.byte	0
 7362 109f 00       		.byte	0
 7363 10a0 0F       		.byte	15
 7364 10a1 0F       		.byte	15
 7365 10a2 0F       		.byte	15
 7366 10a3 0F       		.byte	15
 7367 10a4 0F       		.byte	15
 7368 10a5 0F       		.byte	15
 7369 10a6 FF       		.byte	-1
 7370 10a7 0F       		.byte	15
 7371 10a8 0F       		.byte	15
 7372 10a9 0F       		.byte	15
 7373 10aa 0F       		.byte	15
 7374 10ab 0F       		.byte	15
 7375 10ac 0F       		.byte	15
 7376 10ad 0F       		.byte	15
 7377 10ae 00       		.byte	0
 7378 10af 00       		.byte	0
 7379 10b0 FC       		.byte	-4
 7380 10b1 03       		.byte	3
 7381 10b2 F0       		.byte	-16
 7382 10b3 00       		.byte	0
 7383 10b4 F0       		.byte	-16
 7384 10b5 00       		.byte	0
 7385 10b6 F0       		.byte	-16
 7386 10b7 00       		.byte	0
 7387 10b8 F0       		.byte	-16
 7388 10b9 00       		.byte	0
 7389 10ba F0       		.byte	-16
 7390 10bb 00       		.byte	0
 7391 10bc FC       		.byte	-4
GAS LISTING /tmp/ccjfHZuC.s 			page 158


 7392 10bd 03       		.byte	3
 7393 10be 00       		.byte	0
 7394 10bf 00       		.byte	0
 7395 10c0 C0       		.byte	-64
 7396 10c1 3F       		.byte	63
 7397 10c2 00       		.byte	0
 7398 10c3 0F       		.byte	15
 7399 10c4 00       		.byte	0
 7400 10c5 0F       		.byte	15
 7401 10c6 00       		.byte	0
 7402 10c7 0F       		.byte	15
 7403 10c8 0F       		.byte	15
 7404 10c9 0F       		.byte	15
 7405 10ca 0F       		.byte	15
 7406 10cb 0F       		.byte	15
 7407 10cc FC       		.byte	-4
 7408 10cd 03       		.byte	3
 7409 10ce 00       		.byte	0
 7410 10cf 00       		.byte	0
 7411 10d0 3F       		.byte	63
 7412 10d1 3C       		.byte	60
 7413 10d2 3C       		.byte	60
 7414 10d3 3C       		.byte	60
 7415 10d4 3C       		.byte	60
 7416 10d5 0F       		.byte	15
 7417 10d6 FC       		.byte	-4
 7418 10d7 03       		.byte	3
 7419 10d8 3C       		.byte	60
 7420 10d9 0F       		.byte	15
 7421 10da 3C       		.byte	60
 7422 10db 3C       		.byte	60
 7423 10dc 3F       		.byte	63
 7424 10dd 3C       		.byte	60
 7425 10de 00       		.byte	0
 7426 10df 00       		.byte	0
 7427 10e0 FF       		.byte	-1
 7428 10e1 00       		.byte	0
 7429 10e2 3C       		.byte	60
 7430 10e3 00       		.byte	0
 7431 10e4 3C       		.byte	60
 7432 10e5 00       		.byte	0
 7433 10e6 3C       		.byte	60
 7434 10e7 00       		.byte	0
 7435 10e8 3C       		.byte	60
 7436 10e9 30       		.byte	48
 7437 10ea 3C       		.byte	60
 7438 10eb 3C       		.byte	60
 7439 10ec FF       		.byte	-1
 7440 10ed 3F       		.byte	63
 7441 10ee 00       		.byte	0
 7442 10ef 00       		.byte	0
 7443 10f0 0F       		.byte	15
 7444 10f1 3C       		.byte	60
 7445 10f2 3F       		.byte	63
 7446 10f3 3F       		.byte	63
 7447 10f4 FF       		.byte	-1
 7448 10f5 3F       		.byte	63
GAS LISTING /tmp/ccjfHZuC.s 			page 159


 7449 10f6 CF       		.byte	-49
 7450 10f7 3C       		.byte	60
 7451 10f8 0F       		.byte	15
 7452 10f9 3C       		.byte	60
 7453 10fa 0F       		.byte	15
 7454 10fb 3C       		.byte	60
 7455 10fc 0F       		.byte	15
 7456 10fd 3C       		.byte	60
 7457 10fe 00       		.byte	0
 7458 10ff 00       		.byte	0
 7459 1100 0F       		.byte	15
 7460 1101 3C       		.byte	60
 7461 1102 3F       		.byte	63
 7462 1103 3C       		.byte	60
 7463 1104 FF       		.byte	-1
 7464 1105 3C       		.byte	60
 7465 1106 CF       		.byte	-49
 7466 1107 3F       		.byte	63
 7467 1108 0F       		.byte	15
 7468 1109 3F       		.byte	63
 7469 110a 0F       		.byte	15
 7470 110b 3C       		.byte	60
 7471 110c 0F       		.byte	15
 7472 110d 3C       		.byte	60
 7473 110e 00       		.byte	0
 7474 110f 00       		.byte	0
 7475 1110 F0       		.byte	-16
 7476 1111 03       		.byte	3
 7477 1112 3C       		.byte	60
 7478 1113 0F       		.byte	15
 7479 1114 0F       		.byte	15
 7480 1115 3C       		.byte	60
 7481 1116 0F       		.byte	15
 7482 1117 3C       		.byte	60
 7483 1118 0F       		.byte	15
 7484 1119 3C       		.byte	60
 7485 111a 3C       		.byte	60
 7486 111b 0F       		.byte	15
 7487 111c F0       		.byte	-16
 7488 111d 03       		.byte	3
 7489 111e 00       		.byte	0
 7490 111f 00       		.byte	0
 7491 1120 FF       		.byte	-1
 7492 1121 0F       		.byte	15
 7493 1122 3C       		.byte	60
 7494 1123 3C       		.byte	60
 7495 1124 3C       		.byte	60
 7496 1125 3C       		.byte	60
 7497 1126 FC       		.byte	-4
 7498 1127 0F       		.byte	15
 7499 1128 3C       		.byte	60
 7500 1129 00       		.byte	0
 7501 112a 3C       		.byte	60
 7502 112b 00       		.byte	0
 7503 112c FF       		.byte	-1
 7504 112d 00       		.byte	0
 7505 112e 00       		.byte	0
GAS LISTING /tmp/ccjfHZuC.s 			page 160


 7506 112f 00       		.byte	0
 7507 1130 FC       		.byte	-4
 7508 1131 03       		.byte	3
 7509 1132 0F       		.byte	15
 7510 1133 0F       		.byte	15
 7511 1134 0F       		.byte	15
 7512 1135 0F       		.byte	15
 7513 1136 0F       		.byte	15
 7514 1137 0F       		.byte	15
 7515 1138 CF       		.byte	-49
 7516 1139 0F       		.byte	15
 7517 113a FC       		.byte	-4
 7518 113b 03       		.byte	3
 7519 113c C0       		.byte	-64
 7520 113d 0F       		.byte	15
 7521 113e 00       		.byte	0
 7522 113f 00       		.byte	0
 7523 1140 FF       		.byte	-1
 7524 1141 0F       		.byte	15
 7525 1142 3C       		.byte	60
 7526 1143 3C       		.byte	60
 7527 1144 3C       		.byte	60
 7528 1145 3C       		.byte	60
 7529 1146 FC       		.byte	-4
 7530 1147 0F       		.byte	15
 7531 1148 FC       		.byte	-4
 7532 1149 03       		.byte	3
 7533 114a 3C       		.byte	60
 7534 114b 0F       		.byte	15
 7535 114c 3F       		.byte	63
 7536 114d 3C       		.byte	60
 7537 114e 00       		.byte	0
 7538 114f 00       		.byte	0
 7539 1150 FC       		.byte	-4
 7540 1151 03       		.byte	3
 7541 1152 0F       		.byte	15
 7542 1153 0F       		.byte	15
 7543 1154 3F       		.byte	63
 7544 1155 00       		.byte	0
 7545 1156 F0       		.byte	-16
 7546 1157 03       		.byte	3
 7547 1158 C0       		.byte	-64
 7548 1159 0F       		.byte	15
 7549 115a 0F       		.byte	15
 7550 115b 0F       		.byte	15
 7551 115c FC       		.byte	-4
 7552 115d 03       		.byte	3
 7553 115e 00       		.byte	0
 7554 115f 00       		.byte	0
 7555 1160 FF       		.byte	-1
 7556 1161 0F       		.byte	15
 7557 1162 F3       		.byte	-13
 7558 1163 0C       		.byte	12
 7559 1164 F0       		.byte	-16
 7560 1165 00       		.byte	0
 7561 1166 F0       		.byte	-16
 7562 1167 00       		.byte	0
GAS LISTING /tmp/ccjfHZuC.s 			page 161


 7563 1168 F0       		.byte	-16
 7564 1169 00       		.byte	0
 7565 116a F0       		.byte	-16
 7566 116b 00       		.byte	0
 7567 116c FC       		.byte	-4
 7568 116d 03       		.byte	3
 7569 116e 00       		.byte	0
 7570 116f 00       		.byte	0
 7571 1170 0F       		.byte	15
 7572 1171 0F       		.byte	15
 7573 1172 0F       		.byte	15
 7574 1173 0F       		.byte	15
 7575 1174 0F       		.byte	15
 7576 1175 0F       		.byte	15
 7577 1176 0F       		.byte	15
 7578 1177 0F       		.byte	15
 7579 1178 0F       		.byte	15
 7580 1179 0F       		.byte	15
 7581 117a 0F       		.byte	15
 7582 117b 0F       		.byte	15
 7583 117c FF       		.byte	-1
 7584 117d 0F       		.byte	15
 7585 117e 00       		.byte	0
 7586 117f 00       		.byte	0
 7587 1180 0F       		.byte	15
 7588 1181 0F       		.byte	15
 7589 1182 0F       		.byte	15
 7590 1183 0F       		.byte	15
 7591 1184 0F       		.byte	15
 7592 1185 0F       		.byte	15
 7593 1186 0F       		.byte	15
 7594 1187 0F       		.byte	15
 7595 1188 0F       		.byte	15
 7596 1189 0F       		.byte	15
 7597 118a FC       		.byte	-4
 7598 118b 03       		.byte	3
 7599 118c F0       		.byte	-16
 7600 118d 00       		.byte	0
 7601 118e 00       		.byte	0
 7602 118f 00       		.byte	0
 7603 1190 0F       		.byte	15
 7604 1191 3C       		.byte	60
 7605 1192 0F       		.byte	15
 7606 1193 3C       		.byte	60
 7607 1194 0F       		.byte	15
 7608 1195 3C       		.byte	60
 7609 1196 CF       		.byte	-49
 7610 1197 3C       		.byte	60
 7611 1198 FF       		.byte	-1
 7612 1199 3F       		.byte	63
 7613 119a 3F       		.byte	63
 7614 119b 3F       		.byte	63
 7615 119c 0F       		.byte	15
 7616 119d 3C       		.byte	60
 7617 119e 00       		.byte	0
 7618 119f 00       		.byte	0
 7619 11a0 0F       		.byte	15
GAS LISTING /tmp/ccjfHZuC.s 			page 162


 7620 11a1 3C       		.byte	60
 7621 11a2 0F       		.byte	15
 7622 11a3 3C       		.byte	60
 7623 11a4 3C       		.byte	60
 7624 11a5 0F       		.byte	15
 7625 11a6 F0       		.byte	-16
 7626 11a7 03       		.byte	3
 7627 11a8 3C       		.byte	60
 7628 11a9 0F       		.byte	15
 7629 11aa 0F       		.byte	15
 7630 11ab 3C       		.byte	60
 7631 11ac 0F       		.byte	15
 7632 11ad 3C       		.byte	60
 7633 11ae 00       		.byte	0
 7634 11af 00       		.byte	0
 7635 11b0 0F       		.byte	15
 7636 11b1 0F       		.byte	15
 7637 11b2 0F       		.byte	15
 7638 11b3 0F       		.byte	15
 7639 11b4 0F       		.byte	15
 7640 11b5 0F       		.byte	15
 7641 11b6 FC       		.byte	-4
 7642 11b7 03       		.byte	3
 7643 11b8 F0       		.byte	-16
 7644 11b9 00       		.byte	0
 7645 11ba F0       		.byte	-16
 7646 11bb 00       		.byte	0
 7647 11bc FC       		.byte	-4
 7648 11bd 03       		.byte	3
 7649 11be 00       		.byte	0
 7650 11bf 00       		.byte	0
 7651 11c0 FF       		.byte	-1
 7652 11c1 3F       		.byte	63
 7653 11c2 0F       		.byte	15
 7654 11c3 0F       		.byte	15
 7655 11c4 C3       		.byte	-61
 7656 11c5 03       		.byte	3
 7657 11c6 F0       		.byte	-16
 7658 11c7 00       		.byte	0
 7659 11c8 3C       		.byte	60
 7660 11c9 30       		.byte	48
 7661 11ca 0F       		.byte	15
 7662 11cb 3C       		.byte	60
 7663 11cc FF       		.byte	-1
 7664 11cd 3F       		.byte	63
 7665 11ce 00       		.byte	0
 7666 11cf 00       		.byte	0
 7667 11d0 FC       		.byte	-4
 7668 11d1 03       		.byte	3
 7669 11d2 3C       		.byte	60
 7670 11d3 00       		.byte	0
 7671 11d4 3C       		.byte	60
 7672 11d5 00       		.byte	0
 7673 11d6 3C       		.byte	60
 7674 11d7 00       		.byte	0
 7675 11d8 3C       		.byte	60
 7676 11d9 00       		.byte	0
GAS LISTING /tmp/ccjfHZuC.s 			page 163


 7677 11da 3C       		.byte	60
 7678 11db 00       		.byte	0
 7679 11dc FC       		.byte	-4
 7680 11dd 03       		.byte	3
 7681 11de 00       		.byte	0
 7682 11df 00       		.byte	0
 7683 11e0 0F       		.byte	15
 7684 11e1 00       		.byte	0
 7685 11e2 3C       		.byte	60
 7686 11e3 00       		.byte	0
 7687 11e4 F0       		.byte	-16
 7688 11e5 00       		.byte	0
 7689 11e6 C0       		.byte	-64
 7690 11e7 03       		.byte	3
 7691 11e8 00       		.byte	0
 7692 11e9 0F       		.byte	15
 7693 11ea 00       		.byte	0
 7694 11eb 3C       		.byte	60
 7695 11ec 00       		.byte	0
 7696 11ed 30       		.byte	48
 7697 11ee 00       		.byte	0
 7698 11ef 00       		.byte	0
 7699 11f0 FC       		.byte	-4
 7700 11f1 03       		.byte	3
 7701 11f2 C0       		.byte	-64
 7702 11f3 03       		.byte	3
 7703 11f4 C0       		.byte	-64
 7704 11f5 03       		.byte	3
 7705 11f6 C0       		.byte	-64
 7706 11f7 03       		.byte	3
 7707 11f8 C0       		.byte	-64
 7708 11f9 03       		.byte	3
 7709 11fa C0       		.byte	-64
 7710 11fb 03       		.byte	3
 7711 11fc FC       		.byte	-4
 7712 11fd 03       		.byte	3
 7713 11fe 00       		.byte	0
 7714 11ff 00       		.byte	0
 7715 1200 C0       		.byte	-64
 7716 1201 00       		.byte	0
 7717 1202 F0       		.byte	-16
 7718 1203 03       		.byte	3
 7719 1204 3C       		.byte	60
 7720 1205 0F       		.byte	15
 7721 1206 0F       		.byte	15
 7722 1207 3C       		.byte	60
 7723 1208 00       		.byte	0
 7724 1209 00       		.byte	0
 7725 120a 00       		.byte	0
 7726 120b 00       		.byte	0
 7727 120c 00       		.byte	0
 7728 120d 00       		.byte	0
 7729 120e 00       		.byte	0
 7730 120f 00       		.byte	0
 7731 1210 00       		.byte	0
 7732 1211 00       		.byte	0
 7733 1212 00       		.byte	0
GAS LISTING /tmp/ccjfHZuC.s 			page 164


 7734 1213 00       		.byte	0
 7735 1214 00       		.byte	0
 7736 1215 00       		.byte	0
 7737 1216 00       		.byte	0
 7738 1217 00       		.byte	0
 7739 1218 00       		.byte	0
 7740 1219 00       		.byte	0
 7741 121a 00       		.byte	0
 7742 121b 00       		.byte	0
 7743 121c 00       		.byte	0
 7744 121d 00       		.byte	0
 7745 121e FF       		.byte	-1
 7746 121f FF       		.byte	-1
 7747 1220 F0       		.byte	-16
 7748 1221 00       		.byte	0
 7749 1222 F0       		.byte	-16
 7750 1223 00       		.byte	0
 7751 1224 C0       		.byte	-64
 7752 1225 03       		.byte	3
 7753 1226 00       		.byte	0
 7754 1227 00       		.byte	0
 7755 1228 00       		.byte	0
 7756 1229 00       		.byte	0
 7757 122a 00       		.byte	0
 7758 122b 00       		.byte	0
 7759 122c 00       		.byte	0
 7760 122d 00       		.byte	0
 7761 122e 00       		.byte	0
 7762 122f 00       		.byte	0
 7763 1230 00       		.byte	0
 7764 1231 00       		.byte	0
 7765 1232 00       		.byte	0
 7766 1233 00       		.byte	0
 7767 1234 FC       		.byte	-4
 7768 1235 03       		.byte	3
 7769 1236 00       		.byte	0
 7770 1237 0F       		.byte	15
 7771 1238 FC       		.byte	-4
 7772 1239 0F       		.byte	15
 7773 123a 0F       		.byte	15
 7774 123b 0F       		.byte	15
 7775 123c FC       		.byte	-4
 7776 123d 3C       		.byte	60
 7777 123e 00       		.byte	0
 7778 123f 00       		.byte	0
 7779 1240 3F       		.byte	63
 7780 1241 00       		.byte	0
 7781 1242 3C       		.byte	60
 7782 1243 00       		.byte	0
 7783 1244 FC       		.byte	-4
 7784 1245 0F       		.byte	15
 7785 1246 3C       		.byte	60
 7786 1247 3C       		.byte	60
 7787 1248 3C       		.byte	60
 7788 1249 3C       		.byte	60
 7789 124a 3C       		.byte	60
 7790 124b 3C       		.byte	60
GAS LISTING /tmp/ccjfHZuC.s 			page 165


 7791 124c F3       		.byte	-13
 7792 124d 0F       		.byte	15
 7793 124e 00       		.byte	0
 7794 124f 00       		.byte	0
 7795 1250 00       		.byte	0
 7796 1251 00       		.byte	0
 7797 1252 00       		.byte	0
 7798 1253 00       		.byte	0
 7799 1254 FC       		.byte	-4
 7800 1255 03       		.byte	3
 7801 1256 0F       		.byte	15
 7802 1257 0F       		.byte	15
 7803 1258 0F       		.byte	15
 7804 1259 00       		.byte	0
 7805 125a 0F       		.byte	15
 7806 125b 0F       		.byte	15
 7807 125c FC       		.byte	-4
 7808 125d 03       		.byte	3
 7809 125e 00       		.byte	0
 7810 125f 00       		.byte	0
 7811 1260 C0       		.byte	-64
 7812 1261 0F       		.byte	15
 7813 1262 00       		.byte	0
 7814 1263 0F       		.byte	15
 7815 1264 00       		.byte	0
 7816 1265 0F       		.byte	15
 7817 1266 FC       		.byte	-4
 7818 1267 0F       		.byte	15
 7819 1268 0F       		.byte	15
 7820 1269 0F       		.byte	15
 7821 126a 0F       		.byte	15
 7822 126b 0F       		.byte	15
 7823 126c FC       		.byte	-4
 7824 126d 3C       		.byte	60
 7825 126e 00       		.byte	0
 7826 126f 00       		.byte	0
 7827 1270 00       		.byte	0
 7828 1271 00       		.byte	0
 7829 1272 00       		.byte	0
 7830 1273 00       		.byte	0
 7831 1274 FC       		.byte	-4
 7832 1275 03       		.byte	3
 7833 1276 0F       		.byte	15
 7834 1277 0F       		.byte	15
 7835 1278 FF       		.byte	-1
 7836 1279 0F       		.byte	15
 7837 127a 0F       		.byte	15
 7838 127b 00       		.byte	0
 7839 127c FC       		.byte	-4
 7840 127d 03       		.byte	3
 7841 127e 00       		.byte	0
 7842 127f 00       		.byte	0
 7843 1280 F0       		.byte	-16
 7844 1281 03       		.byte	3
 7845 1282 3C       		.byte	60
 7846 1283 0F       		.byte	15
 7847 1284 3C       		.byte	60
GAS LISTING /tmp/ccjfHZuC.s 			page 166


 7848 1285 00       		.byte	0
 7849 1286 FF       		.byte	-1
 7850 1287 00       		.byte	0
 7851 1288 3C       		.byte	60
 7852 1289 00       		.byte	0
 7853 128a 3C       		.byte	60
 7854 128b 00       		.byte	0
 7855 128c FF       		.byte	-1
 7856 128d 00       		.byte	0
 7857 128e 00       		.byte	0
 7858 128f 00       		.byte	0
 7859 1290 00       		.byte	0
 7860 1291 00       		.byte	0
 7861 1292 00       		.byte	0
 7862 1293 00       		.byte	0
 7863 1294 FC       		.byte	-4
 7864 1295 3C       		.byte	60
 7865 1296 0F       		.byte	15
 7866 1297 0F       		.byte	15
 7867 1298 0F       		.byte	15
 7868 1299 0F       		.byte	15
 7869 129a FC       		.byte	-4
 7870 129b 0F       		.byte	15
 7871 129c 00       		.byte	0
 7872 129d 0F       		.byte	15
 7873 129e FF       		.byte	-1
 7874 129f 03       		.byte	3
 7875 12a0 3F       		.byte	63
 7876 12a1 00       		.byte	0
 7877 12a2 3C       		.byte	60
 7878 12a3 00       		.byte	0
 7879 12a4 3C       		.byte	60
 7880 12a5 0F       		.byte	15
 7881 12a6 FC       		.byte	-4
 7882 12a7 3C       		.byte	60
 7883 12a8 3C       		.byte	60
 7884 12a9 3C       		.byte	60
 7885 12aa 3C       		.byte	60
 7886 12ab 3C       		.byte	60
 7887 12ac 3F       		.byte	63
 7888 12ad 3C       		.byte	60
 7889 12ae 00       		.byte	0
 7890 12af 00       		.byte	0
 7891 12b0 F0       		.byte	-16
 7892 12b1 00       		.byte	0
 7893 12b2 00       		.byte	0
 7894 12b3 00       		.byte	0
 7895 12b4 FC       		.byte	-4
 7896 12b5 00       		.byte	0
 7897 12b6 F0       		.byte	-16
 7898 12b7 00       		.byte	0
 7899 12b8 F0       		.byte	-16
 7900 12b9 00       		.byte	0
 7901 12ba F0       		.byte	-16
 7902 12bb 00       		.byte	0
 7903 12bc FC       		.byte	-4
 7904 12bd 03       		.byte	3
GAS LISTING /tmp/ccjfHZuC.s 			page 167


 7905 12be 00       		.byte	0
 7906 12bf 00       		.byte	0
 7907 12c0 C0       		.byte	-64
 7908 12c1 03       		.byte	3
 7909 12c2 00       		.byte	0
 7910 12c3 00       		.byte	0
 7911 12c4 FC       		.byte	-4
 7912 12c5 03       		.byte	3
 7913 12c6 C0       		.byte	-64
 7914 12c7 03       		.byte	3
 7915 12c8 C0       		.byte	-64
 7916 12c9 03       		.byte	3
 7917 12ca C0       		.byte	-64
 7918 12cb 03       		.byte	3
 7919 12cc CF       		.byte	-49
 7920 12cd 03       		.byte	3
 7921 12ce FC       		.byte	-4
 7922 12cf 00       		.byte	0
 7923 12d0 3F       		.byte	63
 7924 12d1 00       		.byte	0
 7925 12d2 3C       		.byte	60
 7926 12d3 00       		.byte	0
 7927 12d4 3C       		.byte	60
 7928 12d5 3C       		.byte	60
 7929 12d6 3C       		.byte	60
 7930 12d7 0F       		.byte	15
 7931 12d8 FC       		.byte	-4
 7932 12d9 03       		.byte	3
 7933 12da 3C       		.byte	60
 7934 12db 0F       		.byte	15
 7935 12dc 3F       		.byte	63
 7936 12dd 3C       		.byte	60
 7937 12de 00       		.byte	0
 7938 12df 00       		.byte	0
 7939 12e0 FC       		.byte	-4
 7940 12e1 00       		.byte	0
 7941 12e2 F0       		.byte	-16
 7942 12e3 00       		.byte	0
 7943 12e4 F0       		.byte	-16
 7944 12e5 00       		.byte	0
 7945 12e6 F0       		.byte	-16
 7946 12e7 00       		.byte	0
 7947 12e8 F0       		.byte	-16
 7948 12e9 00       		.byte	0
 7949 12ea F0       		.byte	-16
 7950 12eb 00       		.byte	0
 7951 12ec FC       		.byte	-4
 7952 12ed 03       		.byte	3
 7953 12ee 00       		.byte	0
 7954 12ef 00       		.byte	0
 7955 12f0 00       		.byte	0
 7956 12f1 00       		.byte	0
 7957 12f2 00       		.byte	0
 7958 12f3 00       		.byte	0
 7959 12f4 3F       		.byte	63
 7960 12f5 0F       		.byte	15
 7961 12f6 FF       		.byte	-1
GAS LISTING /tmp/ccjfHZuC.s 			page 168


 7962 12f7 3F       		.byte	63
 7963 12f8 CF       		.byte	-49
 7964 12f9 3C       		.byte	60
 7965 12fa 0F       		.byte	15
 7966 12fb 3C       		.byte	60
 7967 12fc 0F       		.byte	15
 7968 12fd 3C       		.byte	60
 7969 12fe 00       		.byte	0
 7970 12ff 00       		.byte	0
 7971 1300 00       		.byte	0
 7972 1301 00       		.byte	0
 7973 1302 00       		.byte	0
 7974 1303 00       		.byte	0
 7975 1304 FF       		.byte	-1
 7976 1305 03       		.byte	3
 7977 1306 0F       		.byte	15
 7978 1307 0F       		.byte	15
 7979 1308 0F       		.byte	15
 7980 1309 0F       		.byte	15
 7981 130a 0F       		.byte	15
 7982 130b 0F       		.byte	15
 7983 130c 0F       		.byte	15
 7984 130d 0F       		.byte	15
 7985 130e 00       		.byte	0
 7986 130f 00       		.byte	0
 7987 1310 00       		.byte	0
 7988 1311 00       		.byte	0
 7989 1312 00       		.byte	0
 7990 1313 00       		.byte	0
 7991 1314 FC       		.byte	-4
 7992 1315 03       		.byte	3
 7993 1316 0F       		.byte	15
 7994 1317 0F       		.byte	15
 7995 1318 0F       		.byte	15
 7996 1319 0F       		.byte	15
 7997 131a 0F       		.byte	15
 7998 131b 0F       		.byte	15
 7999 131c FC       		.byte	-4
 8000 131d 03       		.byte	3
 8001 131e 00       		.byte	0
 8002 131f 00       		.byte	0
 8003 1320 00       		.byte	0
 8004 1321 00       		.byte	0
 8005 1322 00       		.byte	0
 8006 1323 00       		.byte	0
 8007 1324 CF       		.byte	-49
 8008 1325 0F       		.byte	15
 8009 1326 3C       		.byte	60
 8010 1327 3C       		.byte	60
 8011 1328 3C       		.byte	60
 8012 1329 3C       		.byte	60
 8013 132a FC       		.byte	-4
 8014 132b 0F       		.byte	15
 8015 132c 3C       		.byte	60
 8016 132d 00       		.byte	0
 8017 132e FF       		.byte	-1
 8018 132f 00       		.byte	0
GAS LISTING /tmp/ccjfHZuC.s 			page 169


 8019 1330 00       		.byte	0
 8020 1331 00       		.byte	0
 8021 1332 00       		.byte	0
 8022 1333 00       		.byte	0
 8023 1334 FC       		.byte	-4
 8024 1335 3C       		.byte	60
 8025 1336 0F       		.byte	15
 8026 1337 0F       		.byte	15
 8027 1338 0F       		.byte	15
 8028 1339 0F       		.byte	15
 8029 133a FC       		.byte	-4
 8030 133b 0F       		.byte	15
 8031 133c 00       		.byte	0
 8032 133d 0F       		.byte	15
 8033 133e C0       		.byte	-64
 8034 133f 3F       		.byte	63
 8035 1340 00       		.byte	0
 8036 1341 00       		.byte	0
 8037 1342 00       		.byte	0
 8038 1343 00       		.byte	0
 8039 1344 CF       		.byte	-49
 8040 1345 03       		.byte	3
 8041 1346 3C       		.byte	60
 8042 1347 0F       		.byte	15
 8043 1348 3C       		.byte	60
 8044 1349 0F       		.byte	15
 8045 134a 3C       		.byte	60
 8046 134b 00       		.byte	0
 8047 134c FF       		.byte	-1
 8048 134d 00       		.byte	0
 8049 134e 00       		.byte	0
 8050 134f 00       		.byte	0
 8051 1350 00       		.byte	0
 8052 1351 00       		.byte	0
 8053 1352 00       		.byte	0
 8054 1353 00       		.byte	0
 8055 1354 FC       		.byte	-4
 8056 1355 0F       		.byte	15
 8057 1356 0F       		.byte	15
 8058 1357 00       		.byte	0
 8059 1358 FC       		.byte	-4
 8060 1359 03       		.byte	3
 8061 135a 00       		.byte	0
 8062 135b 0F       		.byte	15
 8063 135c FF       		.byte	-1
 8064 135d 03       		.byte	3
 8065 135e 00       		.byte	0
 8066 135f 00       		.byte	0
 8067 1360 C0       		.byte	-64
 8068 1361 00       		.byte	0
 8069 1362 F0       		.byte	-16
 8070 1363 00       		.byte	0
 8071 1364 FC       		.byte	-4
 8072 1365 0F       		.byte	15
 8073 1366 F0       		.byte	-16
 8074 1367 00       		.byte	0
 8075 1368 F0       		.byte	-16
GAS LISTING /tmp/ccjfHZuC.s 			page 170


 8076 1369 00       		.byte	0
 8077 136a F0       		.byte	-16
 8078 136b 0C       		.byte	12
 8079 136c C0       		.byte	-64
 8080 136d 03       		.byte	3
 8081 136e 00       		.byte	0
 8082 136f 00       		.byte	0
 8083 1370 00       		.byte	0
 8084 1371 00       		.byte	0
 8085 1372 00       		.byte	0
 8086 1373 00       		.byte	0
 8087 1374 0F       		.byte	15
 8088 1375 0F       		.byte	15
 8089 1376 0F       		.byte	15
 8090 1377 0F       		.byte	15
 8091 1378 0F       		.byte	15
 8092 1379 0F       		.byte	15
 8093 137a 0F       		.byte	15
 8094 137b 0F       		.byte	15
 8095 137c FC       		.byte	-4
 8096 137d 3C       		.byte	60
 8097 137e 00       		.byte	0
 8098 137f 00       		.byte	0
 8099 1380 00       		.byte	0
 8100 1381 00       		.byte	0
 8101 1382 00       		.byte	0
 8102 1383 00       		.byte	0
 8103 1384 0F       		.byte	15
 8104 1385 0F       		.byte	15
 8105 1386 0F       		.byte	15
 8106 1387 0F       		.byte	15
 8107 1388 0F       		.byte	15
 8108 1389 0F       		.byte	15
 8109 138a FC       		.byte	-4
 8110 138b 03       		.byte	3
 8111 138c F0       		.byte	-16
 8112 138d 00       		.byte	0
 8113 138e 00       		.byte	0
 8114 138f 00       		.byte	0
 8115 1390 00       		.byte	0
 8116 1391 00       		.byte	0
 8117 1392 00       		.byte	0
 8118 1393 00       		.byte	0
 8119 1394 0F       		.byte	15
 8120 1395 3C       		.byte	60
 8121 1396 0F       		.byte	15
 8122 1397 3C       		.byte	60
 8123 1398 CF       		.byte	-49
 8124 1399 3C       		.byte	60
 8125 139a FF       		.byte	-1
 8126 139b 3F       		.byte	63
 8127 139c 3C       		.byte	60
 8128 139d 0F       		.byte	15
 8129 139e 00       		.byte	0
 8130 139f 00       		.byte	0
 8131 13a0 00       		.byte	0
 8132 13a1 00       		.byte	0
GAS LISTING /tmp/ccjfHZuC.s 			page 171


 8133 13a2 00       		.byte	0
 8134 13a3 00       		.byte	0
 8135 13a4 0F       		.byte	15
 8136 13a5 3C       		.byte	60
 8137 13a6 3C       		.byte	60
 8138 13a7 0F       		.byte	15
 8139 13a8 F0       		.byte	-16
 8140 13a9 03       		.byte	3
 8141 13aa 3C       		.byte	60
 8142 13ab 0F       		.byte	15
 8143 13ac 0F       		.byte	15
 8144 13ad 3C       		.byte	60
 8145 13ae 00       		.byte	0
 8146 13af 00       		.byte	0
 8147 13b0 00       		.byte	0
 8148 13b1 00       		.byte	0
 8149 13b2 00       		.byte	0
 8150 13b3 00       		.byte	0
 8151 13b4 0F       		.byte	15
 8152 13b5 0F       		.byte	15
 8153 13b6 0F       		.byte	15
 8154 13b7 0F       		.byte	15
 8155 13b8 0F       		.byte	15
 8156 13b9 0F       		.byte	15
 8157 13ba FC       		.byte	-4
 8158 13bb 0F       		.byte	15
 8159 13bc 00       		.byte	0
 8160 13bd 0F       		.byte	15
 8161 13be FF       		.byte	-1
 8162 13bf 03       		.byte	3
 8163 13c0 00       		.byte	0
 8164 13c1 00       		.byte	0
 8165 13c2 00       		.byte	0
 8166 13c3 00       		.byte	0
 8167 13c4 FF       		.byte	-1
 8168 13c5 0F       		.byte	15
 8169 13c6 C3       		.byte	-61
 8170 13c7 03       		.byte	3
 8171 13c8 F0       		.byte	-16
 8172 13c9 00       		.byte	0
 8173 13ca 3C       		.byte	60
 8174 13cb 0C       		.byte	12
 8175 13cc FF       		.byte	-1
 8176 13cd 0F       		.byte	15
 8177 13ce 00       		.byte	0
 8178 13cf 00       		.byte	0
 8179 13d0 C0       		.byte	-64
 8180 13d1 0F       		.byte	15
 8181 13d2 F0       		.byte	-16
 8182 13d3 00       		.byte	0
 8183 13d4 F0       		.byte	-16
 8184 13d5 00       		.byte	0
 8185 13d6 3F       		.byte	63
 8186 13d7 00       		.byte	0
 8187 13d8 F0       		.byte	-16
 8188 13d9 00       		.byte	0
 8189 13da F0       		.byte	-16
GAS LISTING /tmp/ccjfHZuC.s 			page 172


 8190 13db 00       		.byte	0
 8191 13dc C0       		.byte	-64
 8192 13dd 0F       		.byte	15
 8193 13de 00       		.byte	0
 8194 13df 00       		.byte	0
 8195 13e0 C0       		.byte	-64
 8196 13e1 03       		.byte	3
 8197 13e2 C0       		.byte	-64
 8198 13e3 03       		.byte	3
 8199 13e4 C0       		.byte	-64
 8200 13e5 03       		.byte	3
 8201 13e6 C0       		.byte	-64
 8202 13e7 03       		.byte	3
 8203 13e8 C0       		.byte	-64
 8204 13e9 03       		.byte	3
 8205 13ea C0       		.byte	-64
 8206 13eb 03       		.byte	3
 8207 13ec C0       		.byte	-64
 8208 13ed 03       		.byte	3
 8209 13ee 00       		.byte	0
 8210 13ef 00       		.byte	0
 8211 13f0 3F       		.byte	63
 8212 13f1 00       		.byte	0
 8213 13f2 F0       		.byte	-16
 8214 13f3 00       		.byte	0
 8215 13f4 F0       		.byte	-16
 8216 13f5 00       		.byte	0
 8217 13f6 C0       		.byte	-64
 8218 13f7 0F       		.byte	15
 8219 13f8 F0       		.byte	-16
 8220 13f9 00       		.byte	0
 8221 13fa F0       		.byte	-16
 8222 13fb 00       		.byte	0
 8223 13fc 3F       		.byte	63
 8224 13fd 00       		.byte	0
 8225 13fe 00       		.byte	0
 8226 13ff 00       		.byte	0
 8227 1400 FC       		.byte	-4
 8228 1401 3C       		.byte	60
 8229 1402 CF       		.byte	-49
 8230 1403 0F       		.byte	15
 8231 1404 00       		.byte	0
 8232 1405 00       		.byte	0
 8233 1406 00       		.byte	0
 8234 1407 00       		.byte	0
 8235 1408 00       		.byte	0
 8236 1409 00       		.byte	0
 8237 140a 00       		.byte	0
 8238 140b 00       		.byte	0
 8239 140c 00       		.byte	0
 8240 140d 00       		.byte	0
 8241 140e 00       		.byte	0
 8242 140f 00       		.byte	0
 8243 1410 C0       		.byte	-64
 8244 1411 00       		.byte	0
 8245 1412 30       		.byte	48
 8246 1413 03       		.byte	3
GAS LISTING /tmp/ccjfHZuC.s 			page 173


 8247 1414 0C       		.byte	12
 8248 1415 0C       		.byte	12
 8249 1416 03       		.byte	3
 8250 1417 30       		.byte	48
 8251 1418 03       		.byte	3
 8252 1419 30       		.byte	48
 8253 141a 03       		.byte	3
 8254 141b 30       		.byte	48
 8255 141c FF       		.byte	-1
 8256 141d 3F       		.byte	63
 8257 141e 00       		.byte	0
 8258 141f 00       		.byte	0
 8259 1420 F0       		.byte	-16
 8260 1421 0F       		.byte	15
 8261 1422 3C       		.byte	60
 8262 1423 00       		.byte	0
 8263 1424 0F       		.byte	15
 8264 1425 00       		.byte	0
 8265 1426 FF       		.byte	-1
 8266 1427 03       		.byte	3
 8267 1428 0F       		.byte	15
 8268 1429 00       		.byte	0
 8269 142a 3C       		.byte	60
 8270 142b 00       		.byte	0
 8271 142c F0       		.byte	-16
 8272 142d 0F       		.byte	15
 8273 142e 00       		.byte	0
 8274 142f 00       		.byte	0
 8275 1430 00       		.byte	0
 8276 1431 00       		.byte	0
 8277 1432 00       		.byte	0
 8278 1433 00       		.byte	0
 8279 1434 00       		.byte	0
 8280 1435 00       		.byte	0
 8281 1436 00       		.byte	0
 8282 1437 00       		.byte	0
 8283 1438 00       		.byte	0
 8284 1439 00       		.byte	0
 8285 143a 00       		.byte	0
 8286 143b 00       		.byte	0
 8287 143c 00       		.byte	0
 8288 143d 00       		.byte	0
 8289 143e 00       		.byte	0
 8290 143f 00       		.byte	0
 8291 1440 00       		.byte	0
 8292 1441 00       		.byte	0
 8293 1442 00       		.byte	0
 8294 1443 00       		.byte	0
 8295 1444 00       		.byte	0
 8296 1445 00       		.byte	0
 8297 1446 00       		.byte	0
 8298 1447 00       		.byte	0
 8299 1448 00       		.byte	0
 8300 1449 00       		.byte	0
 8301 144a FC       		.byte	-4
 8302 144b 00       		.byte	0
 8303 144c F0       		.byte	-16
GAS LISTING /tmp/ccjfHZuC.s 			page 174


 8304 144d 00       		.byte	0
 8305 144e 3C       		.byte	60
 8306 144f 00       		.byte	0
 8307 1450 00       		.byte	0
 8308 1451 3F       		.byte	63
 8309 1452 C0       		.byte	-64
 8310 1453 F3       		.byte	-13
 8311 1454 C0       		.byte	-64
 8312 1455 03       		.byte	3
 8313 1456 FC       		.byte	-4
 8314 1457 3F       		.byte	63
 8315 1458 C0       		.byte	-64
 8316 1459 03       		.byte	3
 8317 145a C0       		.byte	-64
 8318 145b 03       		.byte	3
 8319 145c CF       		.byte	-49
 8320 145d 03       		.byte	3
 8321 145e FC       		.byte	-4
 8322 145f 00       		.byte	0
 8323 1460 00       		.byte	0
 8324 1461 00       		.byte	0
 8325 1462 00       		.byte	0
 8326 1463 00       		.byte	0
 8327 1464 00       		.byte	0
 8328 1465 00       		.byte	0
 8329 1466 00       		.byte	0
 8330 1467 00       		.byte	0
 8331 1468 00       		.byte	0
 8332 1469 00       		.byte	0
 8333 146a FC       		.byte	-4
 8334 146b FC       		.byte	-4
 8335 146c F0       		.byte	-16
 8336 146d F0       		.byte	-16
 8337 146e 3C       		.byte	60
 8338 146f 3C       		.byte	60
 8339 1470 00       		.byte	0
 8340 1471 00       		.byte	0
 8341 1472 00       		.byte	0
 8342 1473 00       		.byte	0
 8343 1474 00       		.byte	0
 8344 1475 00       		.byte	0
 8345 1476 00       		.byte	0
 8346 1477 00       		.byte	0
 8347 1478 00       		.byte	0
 8348 1479 00       		.byte	0
 8349 147a CF       		.byte	-49
 8350 147b F3       		.byte	-13
 8351 147c CF       		.byte	-49
 8352 147d F3       		.byte	-13
 8353 147e 00       		.byte	0
 8354 147f 00       		.byte	0
 8355 1480 00       		.byte	0
 8356 1481 00       		.byte	0
 8357 1482 C0       		.byte	-64
 8358 1483 03       		.byte	3
 8359 1484 F0       		.byte	-16
 8360 1485 0F       		.byte	15
GAS LISTING /tmp/ccjfHZuC.s 			page 175


 8361 1486 C0       		.byte	-64
 8362 1487 03       		.byte	3
 8363 1488 C0       		.byte	-64
 8364 1489 03       		.byte	3
 8365 148a C0       		.byte	-64
 8366 148b 03       		.byte	3
 8367 148c C0       		.byte	-64
 8368 148d 03       		.byte	3
 8369 148e 00       		.byte	0
 8370 148f 00       		.byte	0
 8371 1490 00       		.byte	0
 8372 1491 00       		.byte	0
 8373 1492 C0       		.byte	-64
 8374 1493 03       		.byte	3
 8375 1494 F0       		.byte	-16
 8376 1495 0F       		.byte	15
 8377 1496 C0       		.byte	-64
 8378 1497 03       		.byte	3
 8379 1498 C0       		.byte	-64
 8380 1499 03       		.byte	3
 8381 149a F0       		.byte	-16
 8382 149b 0F       		.byte	15
 8383 149c C0       		.byte	-64
 8384 149d 03       		.byte	3
 8385 149e 00       		.byte	0
 8386 149f 00       		.byte	0
 8387 14a0 F0       		.byte	-16
 8388 14a1 0F       		.byte	15
 8389 14a2 3C       		.byte	60
 8390 14a3 3C       		.byte	60
 8391 14a4 00       		.byte	0
 8392 14a5 00       		.byte	0
 8393 14a6 00       		.byte	0
 8394 14a7 00       		.byte	0
 8395 14a8 00       		.byte	0
 8396 14a9 00       		.byte	0
 8397 14aa 00       		.byte	0
 8398 14ab 00       		.byte	0
 8399 14ac 00       		.byte	0
 8400 14ad 00       		.byte	0
 8401 14ae 00       		.byte	0
 8402 14af 00       		.byte	0
 8403 14b0 00       		.byte	0
 8404 14b1 00       		.byte	0
 8405 14b2 CF       		.byte	-49
 8406 14b3 00       		.byte	0
 8407 14b4 CF       		.byte	-49
 8408 14b5 00       		.byte	0
 8409 14b6 30       		.byte	48
 8410 14b7 00       		.byte	0
 8411 14b8 30       		.byte	48
 8412 14b9 00       		.byte	0
 8413 14ba CC       		.byte	-52
 8414 14bb F3       		.byte	-13
 8415 14bc CC       		.byte	-52
 8416 14bd F3       		.byte	-13
 8417 14be 00       		.byte	0
GAS LISTING /tmp/ccjfHZuC.s 			page 176


 8418 14bf 00       		.byte	0
 8419 14c0 00       		.byte	0
 8420 14c1 00       		.byte	0
 8421 14c2 00       		.byte	0
 8422 14c3 00       		.byte	0
 8423 14c4 00       		.byte	0
 8424 14c5 00       		.byte	0
 8425 14c6 00       		.byte	0
 8426 14c7 00       		.byte	0
 8427 14c8 00       		.byte	0
 8428 14c9 00       		.byte	0
 8429 14ca 00       		.byte	0
 8430 14cb 00       		.byte	0
 8431 14cc 00       		.byte	0
 8432 14cd 00       		.byte	0
 8433 14ce 00       		.byte	0
 8434 14cf 00       		.byte	0
 8435 14d0 00       		.byte	0
 8436 14d1 00       		.byte	0
 8437 14d2 00       		.byte	0
 8438 14d3 0F       		.byte	15
 8439 14d4 C0       		.byte	-64
 8440 14d5 03       		.byte	3
 8441 14d6 F0       		.byte	-16
 8442 14d7 00       		.byte	0
 8443 14d8 C0       		.byte	-64
 8444 14d9 03       		.byte	3
 8445 14da 00       		.byte	0
 8446 14db 0F       		.byte	15
 8447 14dc 00       		.byte	0
 8448 14dd 00       		.byte	0
 8449 14de 00       		.byte	0
 8450 14df 00       		.byte	0
 8451 14e0 FC       		.byte	-4
 8452 14e1 FF       		.byte	-1
 8453 14e2 CF       		.byte	-49
 8454 14e3 C3       		.byte	-61
 8455 14e4 CF       		.byte	-49
 8456 14e5 33       		.byte	51
 8457 14e6 CF       		.byte	-49
 8458 14e7 3F       		.byte	63
 8459 14e8 CF       		.byte	-49
 8460 14e9 33       		.byte	51
 8461 14ea CF       		.byte	-49
 8462 14eb C3       		.byte	-61
 8463 14ec FC       		.byte	-4
 8464 14ed FF       		.byte	-1
 8465 14ee 00       		.byte	0
 8466 14ef 00       		.byte	0
 8467 14f0 00       		.byte	0
 8468 14f1 00       		.byte	0
 8469 14f2 00       		.byte	0
 8470 14f3 00       		.byte	0
 8471 14f4 00       		.byte	0
 8472 14f5 00       		.byte	0
 8473 14f6 00       		.byte	0
 8474 14f7 00       		.byte	0
GAS LISTING /tmp/ccjfHZuC.s 			page 177


 8475 14f8 00       		.byte	0
 8476 14f9 00       		.byte	0
 8477 14fa 00       		.byte	0
 8478 14fb 00       		.byte	0
 8479 14fc 00       		.byte	0
 8480 14fd 00       		.byte	0
 8481 14fe 00       		.byte	0
 8482 14ff 00       		.byte	0
 8483 1500 0C       		.byte	12
 8484 1501 03       		.byte	3
 8485 1502 F0       		.byte	-16
 8486 1503 00       		.byte	0
 8487 1504 FF       		.byte	-1
 8488 1505 0F       		.byte	15
 8489 1506 C3       		.byte	-61
 8490 1507 03       		.byte	3
 8491 1508 F0       		.byte	-16
 8492 1509 00       		.byte	0
 8493 150a 3C       		.byte	60
 8494 150b 0C       		.byte	12
 8495 150c FF       		.byte	-1
 8496 150d 0F       		.byte	15
 8497 150e 00       		.byte	0
 8498 150f 00       		.byte	0
 8499 1510 00       		.byte	0
 8500 1511 00       		.byte	0
 8501 1512 00       		.byte	0
 8502 1513 00       		.byte	0
 8503 1514 00       		.byte	0
 8504 1515 00       		.byte	0
 8505 1516 00       		.byte	0
 8506 1517 00       		.byte	0
 8507 1518 00       		.byte	0
 8508 1519 00       		.byte	0
 8509 151a 00       		.byte	0
 8510 151b 00       		.byte	0
 8511 151c 00       		.byte	0
 8512 151d 00       		.byte	0
 8513 151e 00       		.byte	0
 8514 151f 00       		.byte	0
 8515 1520 00       		.byte	0
 8516 1521 00       		.byte	0
 8517 1522 00       		.byte	0
 8518 1523 00       		.byte	0
 8519 1524 00       		.byte	0
 8520 1525 00       		.byte	0
 8521 1526 00       		.byte	0
 8522 1527 00       		.byte	0
 8523 1528 00       		.byte	0
 8524 1529 00       		.byte	0
 8525 152a 00       		.byte	0
 8526 152b 00       		.byte	0
 8527 152c 00       		.byte	0
 8528 152d 00       		.byte	0
 8529 152e 00       		.byte	0
 8530 152f 00       		.byte	0
 8531 1530 00       		.byte	0
GAS LISTING /tmp/ccjfHZuC.s 			page 178


 8532 1531 3C       		.byte	60
 8533 1532 00       		.byte	0
 8534 1533 0F       		.byte	15
 8535 1534 00       		.byte	0
 8536 1535 3F       		.byte	63
 8537 1536 00       		.byte	0
 8538 1537 00       		.byte	0
 8539 1538 00       		.byte	0
 8540 1539 00       		.byte	0
 8541 153a 00       		.byte	0
 8542 153b 00       		.byte	0
 8543 153c 00       		.byte	0
 8544 153d 00       		.byte	0
 8545 153e 00       		.byte	0
 8546 153f 00       		.byte	0
 8547 1540 3C       		.byte	60
 8548 1541 00       		.byte	0
 8549 1542 F0       		.byte	-16
 8550 1543 00       		.byte	0
 8551 1544 FC       		.byte	-4
 8552 1545 00       		.byte	0
 8553 1546 00       		.byte	0
 8554 1547 00       		.byte	0
 8555 1548 00       		.byte	0
 8556 1549 00       		.byte	0
 8557 154a 00       		.byte	0
 8558 154b 00       		.byte	0
 8559 154c 00       		.byte	0
 8560 154d 00       		.byte	0
 8561 154e 00       		.byte	0
 8562 154f 00       		.byte	0
 8563 1550 3C       		.byte	60
 8564 1551 3C       		.byte	60
 8565 1552 0F       		.byte	15
 8566 1553 0F       		.byte	15
 8567 1554 3F       		.byte	63
 8568 1555 3F       		.byte	63
 8569 1556 00       		.byte	0
 8570 1557 00       		.byte	0
 8571 1558 00       		.byte	0
 8572 1559 00       		.byte	0
 8573 155a 00       		.byte	0
 8574 155b 00       		.byte	0
 8575 155c 00       		.byte	0
 8576 155d 00       		.byte	0
 8577 155e 00       		.byte	0
 8578 155f 00       		.byte	0
 8579 1560 3C       		.byte	60
 8580 1561 3C       		.byte	60
 8581 1562 F0       		.byte	-16
 8582 1563 F0       		.byte	-16
 8583 1564 FC       		.byte	-4
 8584 1565 FC       		.byte	-4
 8585 1566 00       		.byte	0
 8586 1567 00       		.byte	0
 8587 1568 00       		.byte	0
 8588 1569 00       		.byte	0
GAS LISTING /tmp/ccjfHZuC.s 			page 179


 8589 156a 00       		.byte	0
 8590 156b 00       		.byte	0
 8591 156c 00       		.byte	0
 8592 156d 00       		.byte	0
 8593 156e 00       		.byte	0
 8594 156f 00       		.byte	0
 8595 1570 00       		.byte	0
 8596 1571 00       		.byte	0
 8597 1572 00       		.byte	0
 8598 1573 00       		.byte	0
 8599 1574 C0       		.byte	-64
 8600 1575 03       		.byte	3
 8601 1576 F0       		.byte	-16
 8602 1577 0F       		.byte	15
 8603 1578 F0       		.byte	-16
 8604 1579 0F       		.byte	15
 8605 157a C0       		.byte	-64
 8606 157b 03       		.byte	3
 8607 157c 00       		.byte	0
 8608 157d 00       		.byte	0
 8609 157e 00       		.byte	0
 8610 157f 00       		.byte	0
 8611 1580 00       		.byte	0
 8612 1581 00       		.byte	0
 8613 1582 00       		.byte	0
 8614 1583 00       		.byte	0
 8615 1584 00       		.byte	0
 8616 1585 00       		.byte	0
 8617 1586 FC       		.byte	-4
 8618 1587 0F       		.byte	15
 8619 1588 00       		.byte	0
 8620 1589 00       		.byte	0
 8621 158a 00       		.byte	0
 8622 158b 00       		.byte	0
 8623 158c 00       		.byte	0
 8624 158d 00       		.byte	0
 8625 158e 00       		.byte	0
 8626 158f 00       		.byte	0
 8627 1590 00       		.byte	0
 8628 1591 00       		.byte	0
 8629 1592 00       		.byte	0
 8630 1593 00       		.byte	0
 8631 1594 00       		.byte	0
 8632 1595 00       		.byte	0
 8633 1596 FF       		.byte	-1
 8634 1597 3F       		.byte	63
 8635 1598 00       		.byte	0
 8636 1599 00       		.byte	0
 8637 159a 00       		.byte	0
 8638 159b 00       		.byte	0
 8639 159c 00       		.byte	0
 8640 159d 00       		.byte	0
 8641 159e 00       		.byte	0
 8642 159f 00       		.byte	0
 8643 15a0 3C       		.byte	60
 8644 15a1 0C       		.byte	12
 8645 15a2 C3       		.byte	-61
GAS LISTING /tmp/ccjfHZuC.s 			page 180


 8646 15a3 03       		.byte	3
 8647 15a4 00       		.byte	0
 8648 15a5 00       		.byte	0
 8649 15a6 00       		.byte	0
 8650 15a7 00       		.byte	0
 8651 15a8 00       		.byte	0
 8652 15a9 00       		.byte	0
 8653 15aa 00       		.byte	0
 8654 15ab 00       		.byte	0
 8655 15ac 00       		.byte	0
 8656 15ad 00       		.byte	0
 8657 15ae 00       		.byte	0
 8658 15af 00       		.byte	0
 8659 15b0 00       		.byte	0
 8660 15b1 00       		.byte	0
 8661 15b2 FF       		.byte	-1
 8662 15b3 0C       		.byte	12
 8663 15b4 CC       		.byte	-52
 8664 15b5 0F       		.byte	15
 8665 15b6 CC       		.byte	-52
 8666 15b7 0C       		.byte	12
 8667 15b8 00       		.byte	0
 8668 15b9 00       		.byte	0
 8669 15ba 00       		.byte	0
 8670 15bb 00       		.byte	0
 8671 15bc 00       		.byte	0
 8672 15bd 00       		.byte	0
 8673 15be 00       		.byte	0
 8674 15bf 00       		.byte	0
 8675 15c0 0C       		.byte	12
 8676 15c1 03       		.byte	3
 8677 15c2 F0       		.byte	-16
 8678 15c3 00       		.byte	0
 8679 15c4 FC       		.byte	-4
 8680 15c5 0F       		.byte	15
 8681 15c6 0F       		.byte	15
 8682 15c7 00       		.byte	0
 8683 15c8 FC       		.byte	-4
 8684 15c9 03       		.byte	3
 8685 15ca 00       		.byte	0
 8686 15cb 0F       		.byte	15
 8687 15cc FF       		.byte	-1
 8688 15cd 03       		.byte	3
 8689 15ce 00       		.byte	0
 8690 15cf 00       		.byte	0
 8691 15d0 00       		.byte	0
 8692 15d1 00       		.byte	0
 8693 15d2 F0       		.byte	-16
 8694 15d3 00       		.byte	0
 8695 15d4 C0       		.byte	-64
 8696 15d5 03       		.byte	3
 8697 15d6 00       		.byte	0
 8698 15d7 0F       		.byte	15
 8699 15d8 C0       		.byte	-64
 8700 15d9 03       		.byte	3
 8701 15da F0       		.byte	-16
 8702 15db 00       		.byte	0
GAS LISTING /tmp/ccjfHZuC.s 			page 181


 8703 15dc 00       		.byte	0
 8704 15dd 00       		.byte	0
 8705 15de 00       		.byte	0
 8706 15df 00       		.byte	0
 8707 15e0 00       		.byte	0
 8708 15e1 00       		.byte	0
 8709 15e2 00       		.byte	0
 8710 15e3 00       		.byte	0
 8711 15e4 3C       		.byte	60
 8712 15e5 3C       		.byte	60
 8713 15e6 CF       		.byte	-49
 8714 15e7 F3       		.byte	-13
 8715 15e8 CF       		.byte	-49
 8716 15e9 FF       		.byte	-1
 8717 15ea CF       		.byte	-49
 8718 15eb 03       		.byte	3
 8719 15ec 3C       		.byte	60
 8720 15ed 3C       		.byte	60
 8721 15ee 00       		.byte	0
 8722 15ef 00       		.byte	0
 8723 15f0 00       		.byte	0
 8724 15f1 00       		.byte	0
 8725 15f2 00       		.byte	0
 8726 15f3 00       		.byte	0
 8727 15f4 00       		.byte	0
 8728 15f5 00       		.byte	0
 8729 15f6 00       		.byte	0
 8730 15f7 00       		.byte	0
 8731 15f8 00       		.byte	0
 8732 15f9 00       		.byte	0
 8733 15fa 00       		.byte	0
 8734 15fb 00       		.byte	0
 8735 15fc 00       		.byte	0
 8736 15fd 00       		.byte	0
 8737 15fe 00       		.byte	0
 8738 15ff 00       		.byte	0
 8739 1600 0C       		.byte	12
 8740 1601 03       		.byte	3
 8741 1602 F0       		.byte	-16
 8742 1603 00       		.byte	0
 8743 1604 FF       		.byte	-1
 8744 1605 0F       		.byte	15
 8745 1606 C3       		.byte	-61
 8746 1607 03       		.byte	3
 8747 1608 F0       		.byte	-16
 8748 1609 00       		.byte	0
 8749 160a 3C       		.byte	60
 8750 160b 0C       		.byte	12
 8751 160c FF       		.byte	-1
 8752 160d 0F       		.byte	15
 8753 160e 00       		.byte	0
 8754 160f 00       		.byte	0
 8755 1610 0F       		.byte	15
 8756 1611 0F       		.byte	15
 8757 1612 00       		.byte	0
 8758 1613 00       		.byte	0
 8759 1614 0F       		.byte	15
GAS LISTING /tmp/ccjfHZuC.s 			page 182


 8760 1615 0F       		.byte	15
 8761 1616 FC       		.byte	-4
 8762 1617 03       		.byte	3
 8763 1618 F0       		.byte	-16
 8764 1619 00       		.byte	0
 8765 161a F0       		.byte	-16
 8766 161b 00       		.byte	0
 8767 161c FC       		.byte	-4
 8768 161d 03       		.byte	3
 8769 161e 00       		.byte	0
 8770 161f 00       		.byte	0
 8771 1620 00       		.byte	0
 8772 1621 00       		.byte	0
 8773 1622 00       		.byte	0
 8774 1623 00       		.byte	0
 8775 1624 00       		.byte	0
 8776 1625 00       		.byte	0
 8777 1626 00       		.byte	0
 8778 1627 00       		.byte	0
 8779 1628 00       		.byte	0
 8780 1629 00       		.byte	0
 8781 162a 00       		.byte	0
 8782 162b 00       		.byte	0
 8783 162c 00       		.byte	0
 8784 162d 00       		.byte	0
 8785 162e 00       		.byte	0
 8786 162f 00       		.byte	0
 8787 1630 00       		.byte	0
 8788 1631 00       		.byte	0
 8789 1632 C0       		.byte	-64
 8790 1633 03       		.byte	3
 8791 1634 00       		.byte	0
 8792 1635 00       		.byte	0
 8793 1636 C0       		.byte	-64
 8794 1637 03       		.byte	3
 8795 1638 C0       		.byte	-64
 8796 1639 03       		.byte	3
 8797 163a F0       		.byte	-16
 8798 163b 0F       		.byte	15
 8799 163c F0       		.byte	-16
 8800 163d 0F       		.byte	15
 8801 163e C0       		.byte	-64
 8802 163f 03       		.byte	3
 8803 1640 C0       		.byte	-64
 8804 1641 03       		.byte	3
 8805 1642 C0       		.byte	-64
 8806 1643 03       		.byte	3
 8807 1644 FC       		.byte	-4
 8808 1645 3F       		.byte	63
 8809 1646 0F       		.byte	15
 8810 1647 00       		.byte	0
 8811 1648 0F       		.byte	15
 8812 1649 00       		.byte	0
 8813 164a FC       		.byte	-4
 8814 164b 3F       		.byte	63
 8815 164c C0       		.byte	-64
 8816 164d 03       		.byte	3
GAS LISTING /tmp/ccjfHZuC.s 			page 183


 8817 164e C0       		.byte	-64
 8818 164f 03       		.byte	3
 8819 1650 F0       		.byte	-16
 8820 1651 03       		.byte	3
 8821 1652 3C       		.byte	60
 8822 1653 0F       		.byte	15
 8823 1654 3C       		.byte	60
 8824 1655 0C       		.byte	12
 8825 1656 FF       		.byte	-1
 8826 1657 00       		.byte	0
 8827 1658 3C       		.byte	60
 8828 1659 00       		.byte	0
 8829 165a 3F       		.byte	63
 8830 165b 3C       		.byte	60
 8831 165c FF       		.byte	-1
 8832 165d 0F       		.byte	15
 8833 165e 00       		.byte	0
 8834 165f 00       		.byte	0
 8835 1660 00       		.byte	0
 8836 1661 00       		.byte	0
 8837 1662 00       		.byte	0
 8838 1663 00       		.byte	0
 8839 1664 00       		.byte	0
 8840 1665 00       		.byte	0
 8841 1666 00       		.byte	0
 8842 1667 00       		.byte	0
 8843 1668 00       		.byte	0
 8844 1669 00       		.byte	0
 8845 166a 00       		.byte	0
 8846 166b 00       		.byte	0
 8847 166c 00       		.byte	0
 8848 166d 00       		.byte	0
 8849 166e 00       		.byte	0
 8850 166f 00       		.byte	0
 8851 1670 0F       		.byte	15
 8852 1671 0F       		.byte	15
 8853 1672 0F       		.byte	15
 8854 1673 0F       		.byte	15
 8855 1674 FC       		.byte	-4
 8856 1675 03       		.byte	3
 8857 1676 FF       		.byte	-1
 8858 1677 0F       		.byte	15
 8859 1678 F0       		.byte	-16
 8860 1679 00       		.byte	0
 8861 167a FF       		.byte	-1
 8862 167b 0F       		.byte	15
 8863 167c F0       		.byte	-16
 8864 167d 00       		.byte	0
 8865 167e 00       		.byte	0
 8866 167f 00       		.byte	0
 8867 1680 C0       		.byte	-64
 8868 1681 03       		.byte	3
 8869 1682 C0       		.byte	-64
 8870 1683 03       		.byte	3
 8871 1684 C0       		.byte	-64
 8872 1685 03       		.byte	3
 8873 1686 00       		.byte	0
GAS LISTING /tmp/ccjfHZuC.s 			page 184


 8874 1687 00       		.byte	0
 8875 1688 C0       		.byte	-64
 8876 1689 03       		.byte	3
 8877 168a C0       		.byte	-64
 8878 168b 03       		.byte	3
 8879 168c C0       		.byte	-64
 8880 168d 03       		.byte	3
 8881 168e 00       		.byte	0
 8882 168f 00       		.byte	0
 8883 1690 F0       		.byte	-16
 8884 1691 03       		.byte	3
 8885 1692 0C       		.byte	12
 8886 1693 00       		.byte	0
 8887 1694 F0       		.byte	-16
 8888 1695 03       		.byte	3
 8889 1696 0C       		.byte	12
 8890 1697 0C       		.byte	12
 8891 1698 F0       		.byte	-16
 8892 1699 03       		.byte	3
 8893 169a 00       		.byte	0
 8894 169b 0C       		.byte	12
 8895 169c F0       		.byte	-16
 8896 169d 03       		.byte	3
 8897 169e 00       		.byte	0
 8898 169f 00       		.byte	0
 8899 16a0 0F       		.byte	15
 8900 16a1 0F       		.byte	15
 8901 16a2 00       		.byte	0
 8902 16a3 00       		.byte	0
 8903 16a4 00       		.byte	0
 8904 16a5 00       		.byte	0
 8905 16a6 00       		.byte	0
 8906 16a7 00       		.byte	0
 8907 16a8 00       		.byte	0
 8908 16a9 00       		.byte	0
 8909 16aa 00       		.byte	0
 8910 16ab 00       		.byte	0
 8911 16ac 00       		.byte	0
 8912 16ad 00       		.byte	0
 8913 16ae 00       		.byte	0
 8914 16af 00       		.byte	0
 8915 16b0 F0       		.byte	-16
 8916 16b1 03       		.byte	3
 8917 16b2 0C       		.byte	12
 8918 16b3 0C       		.byte	12
 8919 16b4 F3       		.byte	-13
 8920 16b5 33       		.byte	51
 8921 16b6 33       		.byte	51
 8922 16b7 30       		.byte	48
 8923 16b8 F3       		.byte	-13
 8924 16b9 33       		.byte	51
 8925 16ba 0C       		.byte	12
 8926 16bb 0C       		.byte	12
 8927 16bc F0       		.byte	-16
 8928 16bd 03       		.byte	3
 8929 16be 00       		.byte	0
 8930 16bf 00       		.byte	0
GAS LISTING /tmp/ccjfHZuC.s 			page 185


 8931 16c0 00       		.byte	0
 8932 16c1 00       		.byte	0
 8933 16c2 FC       		.byte	-4
 8934 16c3 03       		.byte	3
 8935 16c4 00       		.byte	0
 8936 16c5 0F       		.byte	15
 8937 16c6 FC       		.byte	-4
 8938 16c7 0F       		.byte	15
 8939 16c8 0F       		.byte	15
 8940 16c9 0F       		.byte	15
 8941 16ca FC       		.byte	-4
 8942 16cb 0C       		.byte	12
 8943 16cc 00       		.byte	0
 8944 16cd 00       		.byte	0
 8945 16ce 00       		.byte	0
 8946 16cf 00       		.byte	0
 8947 16d0 00       		.byte	0
 8948 16d1 00       		.byte	0
 8949 16d2 F0       		.byte	-16
 8950 16d3 F0       		.byte	-16
 8951 16d4 3C       		.byte	60
 8952 16d5 3C       		.byte	60
 8953 16d6 0F       		.byte	15
 8954 16d7 0F       		.byte	15
 8955 16d8 3C       		.byte	60
 8956 16d9 3C       		.byte	60
 8957 16da F0       		.byte	-16
 8958 16db F0       		.byte	-16
 8959 16dc 00       		.byte	0
 8960 16dd 00       		.byte	0
 8961 16de 00       		.byte	0
 8962 16df 00       		.byte	0
 8963 16e0 00       		.byte	0
 8964 16e1 00       		.byte	0
 8965 16e2 00       		.byte	0
 8966 16e3 00       		.byte	0
 8967 16e4 00       		.byte	0
 8968 16e5 00       		.byte	0
 8969 16e6 FF       		.byte	-1
 8970 16e7 0F       		.byte	15
 8971 16e8 00       		.byte	0
 8972 16e9 0F       		.byte	15
 8973 16ea 00       		.byte	0
 8974 16eb 0F       		.byte	15
 8975 16ec 00       		.byte	0
 8976 16ed 00       		.byte	0
 8977 16ee 00       		.byte	0
 8978 16ef 00       		.byte	0
 8979 16f0 00       		.byte	0
 8980 16f1 00       		.byte	0
 8981 16f2 00       		.byte	0
 8982 16f3 00       		.byte	0
 8983 16f4 00       		.byte	0
 8984 16f5 00       		.byte	0
 8985 16f6 00       		.byte	0
 8986 16f7 00       		.byte	0
 8987 16f8 00       		.byte	0
GAS LISTING /tmp/ccjfHZuC.s 			page 186


 8988 16f9 00       		.byte	0
 8989 16fa 00       		.byte	0
 8990 16fb 00       		.byte	0
 8991 16fc 00       		.byte	0
 8992 16fd 00       		.byte	0
 8993 16fe 00       		.byte	0
 8994 16ff 00       		.byte	0
 8995 1700 F0       		.byte	-16
 8996 1701 03       		.byte	3
 8997 1702 0C       		.byte	12
 8998 1703 0C       		.byte	12
 8999 1704 F3       		.byte	-13
 9000 1705 30       		.byte	48
 9001 1706 F3       		.byte	-13
 9002 1707 30       		.byte	48
 9003 1708 33       		.byte	51
 9004 1709 33       		.byte	51
 9005 170a 0C       		.byte	12
 9006 170b 0C       		.byte	12
 9007 170c F0       		.byte	-16
 9008 170d 03       		.byte	3
 9009 170e 00       		.byte	0
 9010 170f 00       		.byte	0
 9011 1710 FF       		.byte	-1
 9012 1711 FF       		.byte	-1
 9013 1712 00       		.byte	0
 9014 1713 00       		.byte	0
 9015 1714 00       		.byte	0
 9016 1715 00       		.byte	0
 9017 1716 00       		.byte	0
 9018 1717 00       		.byte	0
 9019 1718 00       		.byte	0
 9020 1719 00       		.byte	0
 9021 171a 00       		.byte	0
 9022 171b 00       		.byte	0
 9023 171c 00       		.byte	0
 9024 171d 00       		.byte	0
 9025 171e 00       		.byte	0
 9026 171f 00       		.byte	0
 9027 1720 F0       		.byte	-16
 9028 1721 03       		.byte	3
 9029 1722 3C       		.byte	60
 9030 1723 0F       		.byte	15
 9031 1724 3C       		.byte	60
 9032 1725 0F       		.byte	15
 9033 1726 F0       		.byte	-16
 9034 1727 03       		.byte	3
 9035 1728 00       		.byte	0
 9036 1729 00       		.byte	0
 9037 172a 00       		.byte	0
 9038 172b 00       		.byte	0
 9039 172c 00       		.byte	0
 9040 172d 00       		.byte	0
 9041 172e 00       		.byte	0
 9042 172f 00       		.byte	0
 9043 1730 F0       		.byte	-16
 9044 1731 00       		.byte	0
GAS LISTING /tmp/ccjfHZuC.s 			page 187


 9045 1732 F0       		.byte	-16
 9046 1733 00       		.byte	0
 9047 1734 FF       		.byte	-1
 9048 1735 0F       		.byte	15
 9049 1736 F0       		.byte	-16
 9050 1737 00       		.byte	0
 9051 1738 F0       		.byte	-16
 9052 1739 00       		.byte	0
 9053 173a 00       		.byte	0
 9054 173b 00       		.byte	0
 9055 173c FF       		.byte	-1
 9056 173d 0F       		.byte	15
 9057 173e 00       		.byte	0
 9058 173f 00       		.byte	0
 9059 1740 FC       		.byte	-4
 9060 1741 03       		.byte	3
 9061 1742 00       		.byte	0
 9062 1743 0F       		.byte	15
 9063 1744 F0       		.byte	-16
 9064 1745 03       		.byte	3
 9065 1746 3C       		.byte	60
 9066 1747 00       		.byte	0
 9067 1748 FC       		.byte	-4
 9068 1749 0F       		.byte	15
 9069 174a 00       		.byte	0
 9070 174b 00       		.byte	0
 9071 174c 00       		.byte	0
 9072 174d 00       		.byte	0
 9073 174e 00       		.byte	0
 9074 174f 00       		.byte	0
 9075 1750 FC       		.byte	-4
 9076 1751 03       		.byte	3
 9077 1752 00       		.byte	0
 9078 1753 0F       		.byte	15
 9079 1754 F0       		.byte	-16
 9080 1755 03       		.byte	3
 9081 1756 00       		.byte	0
 9082 1757 0F       		.byte	15
 9083 1758 FC       		.byte	-4
 9084 1759 03       		.byte	3
 9085 175a 00       		.byte	0
 9086 175b 00       		.byte	0
 9087 175c 00       		.byte	0
 9088 175d 00       		.byte	0
 9089 175e 00       		.byte	0
 9090 175f 00       		.byte	0
 9091 1760 00       		.byte	0
 9092 1761 00       		.byte	0
 9093 1762 00       		.byte	0
 9094 1763 00       		.byte	0
 9095 1764 00       		.byte	0
 9096 1765 00       		.byte	0
 9097 1766 00       		.byte	0
 9098 1767 00       		.byte	0
 9099 1768 00       		.byte	0
 9100 1769 00       		.byte	0
 9101 176a 00       		.byte	0
GAS LISTING /tmp/ccjfHZuC.s 			page 188


 9102 176b 00       		.byte	0
 9103 176c 00       		.byte	0
 9104 176d 00       		.byte	0
 9105 176e 00       		.byte	0
 9106 176f 00       		.byte	0
 9107 1770 00       		.byte	0
 9108 1771 00       		.byte	0
 9109 1772 3C       		.byte	60
 9110 1773 3C       		.byte	60
 9111 1774 3C       		.byte	60
 9112 1775 3C       		.byte	60
 9113 1776 3C       		.byte	60
 9114 1777 3C       		.byte	60
 9115 1778 3C       		.byte	60
 9116 1779 3C       		.byte	60
 9117 177a FC       		.byte	-4
 9118 177b 0F       		.byte	15
 9119 177c 3C       		.byte	60
 9120 177d 00       		.byte	0
 9121 177e 0F       		.byte	15
 9122 177f 00       		.byte	0
 9123 1780 F0       		.byte	-16
 9124 1781 0F       		.byte	15
 9125 1782 FC       		.byte	-4
 9126 1783 0C       		.byte	12
 9127 1784 FC       		.byte	-4
 9128 1785 0C       		.byte	12
 9129 1786 F0       		.byte	-16
 9130 1787 0C       		.byte	12
 9131 1788 C0       		.byte	-64
 9132 1789 0C       		.byte	12
 9133 178a C0       		.byte	-64
 9134 178b 0C       		.byte	12
 9135 178c C0       		.byte	-64
 9136 178d 0C       		.byte	12
 9137 178e 00       		.byte	0
 9138 178f 00       		.byte	0
 9139 1790 00       		.byte	0
 9140 1791 00       		.byte	0
 9141 1792 00       		.byte	0
 9142 1793 00       		.byte	0
 9143 1794 00       		.byte	0
 9144 1795 00       		.byte	0
 9145 1796 C0       		.byte	-64
 9146 1797 03       		.byte	3
 9147 1798 C0       		.byte	-64
 9148 1799 03       		.byte	3
 9149 179a 00       		.byte	0
 9150 179b 00       		.byte	0
 9151 179c 00       		.byte	0
 9152 179d 00       		.byte	0
 9153 179e 00       		.byte	0
 9154 179f 00       		.byte	0
 9155 17a0 00       		.byte	0
 9156 17a1 00       		.byte	0
 9157 17a2 00       		.byte	0
 9158 17a3 00       		.byte	0
GAS LISTING /tmp/ccjfHZuC.s 			page 189


 9159 17a4 00       		.byte	0
 9160 17a5 00       		.byte	0
 9161 17a6 00       		.byte	0
 9162 17a7 00       		.byte	0
 9163 17a8 00       		.byte	0
 9164 17a9 00       		.byte	0
 9165 17aa 00       		.byte	0
 9166 17ab 0C       		.byte	12
 9167 17ac C0       		.byte	-64
 9168 17ad 03       		.byte	3
 9169 17ae 00       		.byte	0
 9170 17af 00       		.byte	0
 9171 17b0 F0       		.byte	-16
 9172 17b1 00       		.byte	0
 9173 17b2 FC       		.byte	-4
 9174 17b3 00       		.byte	0
 9175 17b4 F0       		.byte	-16
 9176 17b5 00       		.byte	0
 9177 17b6 F0       		.byte	-16
 9178 17b7 00       		.byte	0
 9179 17b8 FC       		.byte	-4
 9180 17b9 03       		.byte	3
 9181 17ba 00       		.byte	0
 9182 17bb 00       		.byte	0
 9183 17bc 00       		.byte	0
 9184 17bd 00       		.byte	0
 9185 17be 00       		.byte	0
 9186 17bf 00       		.byte	0
 9187 17c0 F0       		.byte	-16
 9188 17c1 03       		.byte	3
 9189 17c2 3C       		.byte	60
 9190 17c3 0F       		.byte	15
 9191 17c4 3C       		.byte	60
 9192 17c5 0F       		.byte	15
 9193 17c6 3C       		.byte	60
 9194 17c7 0F       		.byte	15
 9195 17c8 F0       		.byte	-16
 9196 17c9 03       		.byte	3
 9197 17ca 00       		.byte	0
 9198 17cb 00       		.byte	0
 9199 17cc 00       		.byte	0
 9200 17cd 00       		.byte	0
 9201 17ce 00       		.byte	0
 9202 17cf 00       		.byte	0
 9203 17d0 00       		.byte	0
 9204 17d1 00       		.byte	0
 9205 17d2 0F       		.byte	15
 9206 17d3 0F       		.byte	15
 9207 17d4 3C       		.byte	60
 9208 17d5 3C       		.byte	60
 9209 17d6 F0       		.byte	-16
 9210 17d7 F0       		.byte	-16
 9211 17d8 3C       		.byte	60
 9212 17d9 3C       		.byte	60
 9213 17da 0F       		.byte	15
 9214 17db 0F       		.byte	15
 9215 17dc 00       		.byte	0
GAS LISTING /tmp/ccjfHZuC.s 			page 190


 9216 17dd 00       		.byte	0
 9217 17de 00       		.byte	0
 9218 17df 00       		.byte	0
 9219 17e0 0F       		.byte	15
 9220 17e1 3C       		.byte	60
 9221 17e2 0F       		.byte	15
 9222 17e3 0F       		.byte	15
 9223 17e4 CF       		.byte	-49
 9224 17e5 03       		.byte	3
 9225 17e6 FF       		.byte	-1
 9226 17e7 F0       		.byte	-16
 9227 17e8 3C       		.byte	60
 9228 17e9 FC       		.byte	-4
 9229 17ea 0F       		.byte	15
 9230 17eb FF       		.byte	-1
 9231 17ec C3       		.byte	-61
 9232 17ed FF       		.byte	-1
 9233 17ee 00       		.byte	0
 9234 17ef F0       		.byte	-16
 9235 17f0 0F       		.byte	15
 9236 17f1 3C       		.byte	60
 9237 17f2 0F       		.byte	15
 9238 17f3 0F       		.byte	15
 9239 17f4 CF       		.byte	-49
 9240 17f5 03       		.byte	3
 9241 17f6 F0       		.byte	-16
 9242 17f7 3F       		.byte	63
 9243 17f8 3C       		.byte	60
 9244 17f9 F0       		.byte	-16
 9245 17fa 0F       		.byte	15
 9246 17fb 3F       		.byte	63
 9247 17fc C3       		.byte	-61
 9248 17fd 03       		.byte	3
 9249 17fe C0       		.byte	-64
 9250 17ff FF       		.byte	-1
 9251 1800 3F       		.byte	63
 9252 1801 3C       		.byte	60
 9253 1802 3C       		.byte	60
 9254 1803 0F       		.byte	15
 9255 1804 FF       		.byte	-1
 9256 1805 03       		.byte	3
 9257 1806 F0       		.byte	-16
 9258 1807 F0       		.byte	-16
 9259 1808 3C       		.byte	60
 9260 1809 FC       		.byte	-4
 9261 180a 0F       		.byte	15
 9262 180b FF       		.byte	-1
 9263 180c C3       		.byte	-61
 9264 180d FF       		.byte	-1
 9265 180e 00       		.byte	0
 9266 180f F0       		.byte	-16
 9267 1810 F0       		.byte	-16
 9268 1811 00       		.byte	0
 9269 1812 00       		.byte	0
 9270 1813 00       		.byte	0
 9271 1814 F0       		.byte	-16
 9272 1815 00       		.byte	0
GAS LISTING /tmp/ccjfHZuC.s 			page 191


 9273 1816 3C       		.byte	60
 9274 1817 00       		.byte	0
 9275 1818 0F       		.byte	15
 9276 1819 00       		.byte	0
 9277 181a 0F       		.byte	15
 9278 181b 0F       		.byte	15
 9279 181c FC       		.byte	-4
 9280 181d 03       		.byte	3
 9281 181e 00       		.byte	0
 9282 181f 00       		.byte	0
 9283 1820 3F       		.byte	63
 9284 1821 00       		.byte	0
 9285 1822 F0       		.byte	-16
 9286 1823 00       		.byte	0
 9287 1824 FC       		.byte	-4
 9288 1825 03       		.byte	3
 9289 1826 0F       		.byte	15
 9290 1827 0F       		.byte	15
 9291 1828 0F       		.byte	15
 9292 1829 0F       		.byte	15
 9293 182a FF       		.byte	-1
 9294 182b 0F       		.byte	15
 9295 182c 0F       		.byte	15
 9296 182d 0F       		.byte	15
 9297 182e 00       		.byte	0
 9298 182f 00       		.byte	0
 9299 1830 C0       		.byte	-64
 9300 1831 0F       		.byte	15
 9301 1832 F0       		.byte	-16
 9302 1833 00       		.byte	0
 9303 1834 FC       		.byte	-4
 9304 1835 03       		.byte	3
 9305 1836 0F       		.byte	15
 9306 1837 0F       		.byte	15
 9307 1838 0F       		.byte	15
 9308 1839 0F       		.byte	15
 9309 183a FF       		.byte	-1
 9310 183b 0F       		.byte	15
 9311 183c 0F       		.byte	15
 9312 183d 0F       		.byte	15
 9313 183e 00       		.byte	0
 9314 183f 00       		.byte	0
 9315 1840 FC       		.byte	-4
 9316 1841 03       		.byte	3
 9317 1842 0F       		.byte	15
 9318 1843 0F       		.byte	15
 9319 1844 00       		.byte	0
 9320 1845 00       		.byte	0
 9321 1846 FC       		.byte	-4
 9322 1847 03       		.byte	3
 9323 1848 0F       		.byte	15
 9324 1849 0F       		.byte	15
 9325 184a FF       		.byte	-1
 9326 184b 0F       		.byte	15
 9327 184c 0F       		.byte	15
 9328 184d 0F       		.byte	15
 9329 184e 00       		.byte	0
GAS LISTING /tmp/ccjfHZuC.s 			page 192


 9330 184f 00       		.byte	0
 9331 1850 3C       		.byte	60
 9332 1851 0C       		.byte	12
 9333 1852 C3       		.byte	-61
 9334 1853 03       		.byte	3
 9335 1854 FC       		.byte	-4
 9336 1855 03       		.byte	3
 9337 1856 0F       		.byte	15
 9338 1857 0F       		.byte	15
 9339 1858 0F       		.byte	15
 9340 1859 0F       		.byte	15
 9341 185a FF       		.byte	-1
 9342 185b 0F       		.byte	15
 9343 185c 0F       		.byte	15
 9344 185d 0F       		.byte	15
 9345 185e 00       		.byte	0
 9346 185f 00       		.byte	0
 9347 1860 0F       		.byte	15
 9348 1861 0F       		.byte	15
 9349 1862 F0       		.byte	-16
 9350 1863 00       		.byte	0
 9351 1864 FC       		.byte	-4
 9352 1865 03       		.byte	3
 9353 1866 0F       		.byte	15
 9354 1867 0F       		.byte	15
 9355 1868 0F       		.byte	15
 9356 1869 0F       		.byte	15
 9357 186a FF       		.byte	-1
 9358 186b 0F       		.byte	15
 9359 186c 0F       		.byte	15
 9360 186d 0F       		.byte	15
 9361 186e 00       		.byte	0
 9362 186f 00       		.byte	0
 9363 1870 F0       		.byte	-16
 9364 1871 00       		.byte	0
 9365 1872 F0       		.byte	-16
 9366 1873 00       		.byte	0
 9367 1874 00       		.byte	0
 9368 1875 00       		.byte	0
 9369 1876 FC       		.byte	-4
 9370 1877 03       		.byte	3
 9371 1878 0F       		.byte	15
 9372 1879 0F       		.byte	15
 9373 187a FF       		.byte	-1
 9374 187b 0F       		.byte	15
 9375 187c 0F       		.byte	15
 9376 187d 0F       		.byte	15
 9377 187e 00       		.byte	0
 9378 187f 00       		.byte	0
 9379 1880 F0       		.byte	-16
 9380 1881 FF       		.byte	-1
 9381 1882 F0       		.byte	-16
 9382 1883 0F       		.byte	15
 9383 1884 FC       		.byte	-4
 9384 1885 0F       		.byte	15
 9385 1886 3C       		.byte	60
 9386 1887 FF       		.byte	-1
GAS LISTING /tmp/ccjfHZuC.s 			page 193


 9387 1888 FF       		.byte	-1
 9388 1889 0F       		.byte	15
 9389 188a 0F       		.byte	15
 9390 188b 0F       		.byte	15
 9391 188c 0F       		.byte	15
 9392 188d FF       		.byte	-1
 9393 188e 00       		.byte	0
 9394 188f 00       		.byte	0
 9395 1890 FC       		.byte	-4
 9396 1891 03       		.byte	3
 9397 1892 0F       		.byte	15
 9398 1893 0F       		.byte	15
 9399 1894 0F       		.byte	15
 9400 1895 00       		.byte	0
 9401 1896 0F       		.byte	15
 9402 1897 00       		.byte	0
 9403 1898 0F       		.byte	15
 9404 1899 0F       		.byte	15
 9405 189a FC       		.byte	-4
 9406 189b 03       		.byte	3
 9407 189c 00       		.byte	0
 9408 189d 0F       		.byte	15
 9409 189e FC       		.byte	-4
 9410 189f 03       		.byte	3
 9411 18a0 3F       		.byte	63
 9412 18a1 00       		.byte	0
 9413 18a2 00       		.byte	0
 9414 18a3 00       		.byte	0
 9415 18a4 FF       		.byte	-1
 9416 18a5 0F       		.byte	15
 9417 18a6 3C       		.byte	60
 9418 18a7 00       		.byte	0
 9419 18a8 FC       		.byte	-4
 9420 18a9 03       		.byte	3
 9421 18aa 3C       		.byte	60
 9422 18ab 00       		.byte	0
 9423 18ac FF       		.byte	-1
 9424 18ad 0F       		.byte	15
 9425 18ae 00       		.byte	0
 9426 18af 00       		.byte	0
 9427 18b0 C0       		.byte	-64
 9428 18b1 0F       		.byte	15
 9429 18b2 00       		.byte	0
 9430 18b3 00       		.byte	0
 9431 18b4 FF       		.byte	-1
 9432 18b5 0F       		.byte	15
 9433 18b6 3C       		.byte	60
 9434 18b7 00       		.byte	0
 9435 18b8 FC       		.byte	-4
 9436 18b9 03       		.byte	3
 9437 18ba 3C       		.byte	60
 9438 18bb 00       		.byte	0
 9439 18bc FF       		.byte	-1
 9440 18bd 0F       		.byte	15
 9441 18be 00       		.byte	0
 9442 18bf 00       		.byte	0
 9443 18c0 FC       		.byte	-4
GAS LISTING /tmp/ccjfHZuC.s 			page 194


 9444 18c1 03       		.byte	3
 9445 18c2 0F       		.byte	15
 9446 18c3 0F       		.byte	15
 9447 18c4 FF       		.byte	-1
 9448 18c5 0F       		.byte	15
 9449 18c6 3C       		.byte	60
 9450 18c7 00       		.byte	0
 9451 18c8 FC       		.byte	-4
 9452 18c9 03       		.byte	3
 9453 18ca 3C       		.byte	60
 9454 18cb 00       		.byte	0
 9455 18cc FF       		.byte	-1
 9456 18cd 0F       		.byte	15
 9457 18ce 00       		.byte	0
 9458 18cf 00       		.byte	0
 9459 18d0 0F       		.byte	15
 9460 18d1 0F       		.byte	15
 9461 18d2 00       		.byte	0
 9462 18d3 00       		.byte	0
 9463 18d4 FF       		.byte	-1
 9464 18d5 0F       		.byte	15
 9465 18d6 3C       		.byte	60
 9466 18d7 00       		.byte	0
 9467 18d8 FC       		.byte	-4
 9468 18d9 03       		.byte	3
 9469 18da 3C       		.byte	60
 9470 18db 00       		.byte	0
 9471 18dc FF       		.byte	-1
 9472 18dd 0F       		.byte	15
 9473 18de 00       		.byte	0
 9474 18df 00       		.byte	0
 9475 18e0 3F       		.byte	63
 9476 18e1 00       		.byte	0
 9477 18e2 00       		.byte	0
 9478 18e3 00       		.byte	0
 9479 18e4 FC       		.byte	-4
 9480 18e5 03       		.byte	3
 9481 18e6 F0       		.byte	-16
 9482 18e7 00       		.byte	0
 9483 18e8 F0       		.byte	-16
 9484 18e9 00       		.byte	0
 9485 18ea F0       		.byte	-16
 9486 18eb 00       		.byte	0
 9487 18ec FC       		.byte	-4
 9488 18ed 03       		.byte	3
 9489 18ee 00       		.byte	0
 9490 18ef 00       		.byte	0
 9491 18f0 F0       		.byte	-16
 9492 18f1 03       		.byte	3
 9493 18f2 00       		.byte	0
 9494 18f3 00       		.byte	0
 9495 18f4 FC       		.byte	-4
 9496 18f5 03       		.byte	3
 9497 18f6 F0       		.byte	-16
 9498 18f7 00       		.byte	0
 9499 18f8 F0       		.byte	-16
 9500 18f9 00       		.byte	0
GAS LISTING /tmp/ccjfHZuC.s 			page 195


 9501 18fa F0       		.byte	-16
 9502 18fb 00       		.byte	0
 9503 18fc FC       		.byte	-4
 9504 18fd 03       		.byte	3
 9505 18fe 00       		.byte	0
 9506 18ff 00       		.byte	0
 9507 1900 F0       		.byte	-16
 9508 1901 0F       		.byte	15
 9509 1902 3C       		.byte	60
 9510 1903 3C       		.byte	60
 9511 1904 F0       		.byte	-16
 9512 1905 0F       		.byte	15
 9513 1906 C0       		.byte	-64
 9514 1907 03       		.byte	3
 9515 1908 C0       		.byte	-64
 9516 1909 03       		.byte	3
 9517 190a C0       		.byte	-64
 9518 190b 03       		.byte	3
 9519 190c F0       		.byte	-16
 9520 190d 0F       		.byte	15
 9521 190e 00       		.byte	0
 9522 190f 00       		.byte	0
 9523 1910 0F       		.byte	15
 9524 1911 0F       		.byte	15
 9525 1912 00       		.byte	0
 9526 1913 00       		.byte	0
 9527 1914 FC       		.byte	-4
 9528 1915 03       		.byte	3
 9529 1916 F0       		.byte	-16
 9530 1917 00       		.byte	0
 9531 1918 F0       		.byte	-16
 9532 1919 00       		.byte	0
 9533 191a F0       		.byte	-16
 9534 191b 00       		.byte	0
 9535 191c FC       		.byte	-4
 9536 191d 03       		.byte	3
 9537 191e 00       		.byte	0
 9538 191f 00       		.byte	0
 9539 1920 FC       		.byte	-4
 9540 1921 0F       		.byte	15
 9541 1922 3C       		.byte	60
 9542 1923 0F       		.byte	15
 9543 1924 3C       		.byte	60
 9544 1925 3C       		.byte	60
 9545 1926 FF       		.byte	-1
 9546 1927 3C       		.byte	60
 9547 1928 3C       		.byte	60
 9548 1929 3C       		.byte	60
 9549 192a 3C       		.byte	60
 9550 192b 0F       		.byte	15
 9551 192c FC       		.byte	-4
 9552 192d 0F       		.byte	15
 9553 192e 00       		.byte	0
 9554 192f 00       		.byte	0
 9555 1930 FF       		.byte	-1
 9556 1931 0F       		.byte	15
 9557 1932 00       		.byte	0
GAS LISTING /tmp/ccjfHZuC.s 			page 196


 9558 1933 00       		.byte	0
 9559 1934 0F       		.byte	15
 9560 1935 0F       		.byte	15
 9561 1936 3F       		.byte	63
 9562 1937 0F       		.byte	15
 9563 1938 FF       		.byte	-1
 9564 1939 0F       		.byte	15
 9565 193a CF       		.byte	-49
 9566 193b 0F       		.byte	15
 9567 193c 0F       		.byte	15
 9568 193d 0F       		.byte	15
 9569 193e 00       		.byte	0
 9570 193f 00       		.byte	0
 9571 1940 F0       		.byte	-16
 9572 1941 03       		.byte	3
 9573 1942 C0       		.byte	-64
 9574 1943 0F       		.byte	15
 9575 1944 F0       		.byte	-16
 9576 1945 3F       		.byte	63
 9577 1946 3C       		.byte	60
 9578 1947 F0       		.byte	-16
 9579 1948 3C       		.byte	60
 9580 1949 F0       		.byte	-16
 9581 194a F0       		.byte	-16
 9582 194b 3F       		.byte	63
 9583 194c C0       		.byte	-64
 9584 194d 0F       		.byte	15
 9585 194e 00       		.byte	0
 9586 194f 00       		.byte	0
 9587 1950 C0       		.byte	-64
 9588 1951 0F       		.byte	15
 9589 1952 F0       		.byte	-16
 9590 1953 03       		.byte	3
 9591 1954 FC       		.byte	-4
 9592 1955 0F       		.byte	15
 9593 1956 0F       		.byte	15
 9594 1957 3C       		.byte	60
 9595 1958 0F       		.byte	15
 9596 1959 3C       		.byte	60
 9597 195a FC       		.byte	-4
 9598 195b 0F       		.byte	15
 9599 195c F0       		.byte	-16
 9600 195d 03       		.byte	3
 9601 195e 00       		.byte	0
 9602 195f 00       		.byte	0
 9603 1960 F0       		.byte	-16
 9604 1961 3F       		.byte	63
 9605 1962 3C       		.byte	60
 9606 1963 F0       		.byte	-16
 9607 1964 C0       		.byte	-64
 9608 1965 0F       		.byte	15
 9609 1966 F0       		.byte	-16
 9610 1967 3F       		.byte	63
 9611 1968 3C       		.byte	60
 9612 1969 F0       		.byte	-16
 9613 196a F0       		.byte	-16
 9614 196b 3F       		.byte	63
GAS LISTING /tmp/ccjfHZuC.s 			page 197


 9615 196c C0       		.byte	-64
 9616 196d 0F       		.byte	15
 9617 196e 00       		.byte	0
 9618 196f 00       		.byte	0
 9619 1970 F0       		.byte	-16
 9620 1971 C0       		.byte	-64
 9621 1972 0C       		.byte	12
 9622 1973 3F       		.byte	63
 9623 1974 C0       		.byte	-64
 9624 1975 0F       		.byte	15
 9625 1976 F0       		.byte	-16
 9626 1977 3F       		.byte	63
 9627 1978 3C       		.byte	60
 9628 1979 F0       		.byte	-16
 9629 197a F0       		.byte	-16
 9630 197b 3F       		.byte	63
 9631 197c C0       		.byte	-64
 9632 197d 0F       		.byte	15
 9633 197e 00       		.byte	0
 9634 197f 00       		.byte	0
 9635 1980 0F       		.byte	15
 9636 1981 3C       		.byte	60
 9637 1982 F0       		.byte	-16
 9638 1983 03       		.byte	3
 9639 1984 FC       		.byte	-4
 9640 1985 0F       		.byte	15
 9641 1986 0F       		.byte	15
 9642 1987 3C       		.byte	60
 9643 1988 0F       		.byte	15
 9644 1989 3C       		.byte	60
 9645 198a FC       		.byte	-4
 9646 198b 0F       		.byte	15
 9647 198c F0       		.byte	-16
 9648 198d 03       		.byte	3
 9649 198e 00       		.byte	0
 9650 198f 00       		.byte	0
 9651 1990 00       		.byte	0
 9652 1991 00       		.byte	0
 9653 1992 00       		.byte	0
 9654 1993 00       		.byte	0
 9655 1994 0C       		.byte	12
 9656 1995 0C       		.byte	12
 9657 1996 30       		.byte	48
 9658 1997 03       		.byte	3
 9659 1998 C0       		.byte	-64
 9660 1999 00       		.byte	0
 9661 199a 30       		.byte	48
 9662 199b 03       		.byte	3
 9663 199c 0C       		.byte	12
 9664 199d 0C       		.byte	12
 9665 199e 00       		.byte	0
 9666 199f 00       		.byte	0
 9667 19a0 CC       		.byte	-52
 9668 19a1 33       		.byte	51
 9669 19a2 30       		.byte	48
 9670 19a3 0C       		.byte	12
 9671 19a4 CC       		.byte	-52
GAS LISTING /tmp/ccjfHZuC.s 			page 198


 9672 19a5 33       		.byte	51
 9673 19a6 CC       		.byte	-52
 9674 19a7 33       		.byte	51
 9675 19a8 CC       		.byte	-52
 9676 19a9 33       		.byte	51
 9677 19aa 30       		.byte	48
 9678 19ab 0C       		.byte	12
 9679 19ac CC       		.byte	-52
 9680 19ad 33       		.byte	51
 9681 19ae 00       		.byte	0
 9682 19af 00       		.byte	0
 9683 19b0 F0       		.byte	-16
 9684 19b1 03       		.byte	3
 9685 19b2 00       		.byte	0
 9686 19b3 00       		.byte	0
 9687 19b4 F0       		.byte	-16
 9688 19b5 F0       		.byte	-16
 9689 19b6 F0       		.byte	-16
 9690 19b7 F0       		.byte	-16
 9691 19b8 F0       		.byte	-16
 9692 19b9 F0       		.byte	-16
 9693 19ba F0       		.byte	-16
 9694 19bb F0       		.byte	-16
 9695 19bc C0       		.byte	-64
 9696 19bd 3F       		.byte	63
 9697 19be 00       		.byte	0
 9698 19bf 00       		.byte	0
 9699 19c0 C0       		.byte	-64
 9700 19c1 0F       		.byte	15
 9701 19c2 00       		.byte	0
 9702 19c3 00       		.byte	0
 9703 19c4 0F       		.byte	15
 9704 19c5 0F       		.byte	15
 9705 19c6 0F       		.byte	15
 9706 19c7 0F       		.byte	15
 9707 19c8 0F       		.byte	15
 9708 19c9 0F       		.byte	15
 9709 19ca 0F       		.byte	15
 9710 19cb 0F       		.byte	15
 9711 19cc FC       		.byte	-4
 9712 19cd 03       		.byte	3
 9713 19ce 00       		.byte	0
 9714 19cf 00       		.byte	0
 9715 19d0 FC       		.byte	-4
 9716 19d1 03       		.byte	3
 9717 19d2 0F       		.byte	15
 9718 19d3 0F       		.byte	15
 9719 19d4 00       		.byte	0
 9720 19d5 00       		.byte	0
 9721 19d6 0F       		.byte	15
 9722 19d7 0F       		.byte	15
 9723 19d8 0F       		.byte	15
 9724 19d9 0F       		.byte	15
 9725 19da 0F       		.byte	15
 9726 19db 0F       		.byte	15
 9727 19dc FC       		.byte	-4
 9728 19dd 03       		.byte	3
GAS LISTING /tmp/ccjfHZuC.s 			page 199


 9729 19de 00       		.byte	0
 9730 19df 00       		.byte	0
 9731 19e0 0F       		.byte	15
 9732 19e1 0F       		.byte	15
 9733 19e2 00       		.byte	0
 9734 19e3 00       		.byte	0
 9735 19e4 0F       		.byte	15
 9736 19e5 0F       		.byte	15
 9737 19e6 0F       		.byte	15
 9738 19e7 0F       		.byte	15
 9739 19e8 0F       		.byte	15
 9740 19e9 0F       		.byte	15
 9741 19ea 0F       		.byte	15
 9742 19eb 0F       		.byte	15
 9743 19ec FC       		.byte	-4
 9744 19ed 03       		.byte	3
 9745 19ee 00       		.byte	0
 9746 19ef 00       		.byte	0
 9747 19f0 C0       		.byte	-64
 9748 19f1 0F       		.byte	15
 9749 19f2 00       		.byte	0
 9750 19f3 00       		.byte	0
 9751 19f4 0F       		.byte	15
 9752 19f5 0F       		.byte	15
 9753 19f6 0F       		.byte	15
 9754 19f7 0F       		.byte	15
 9755 19f8 FC       		.byte	-4
 9756 19f9 03       		.byte	3
 9757 19fa F0       		.byte	-16
 9758 19fb 00       		.byte	0
 9759 19fc FC       		.byte	-4
 9760 19fd 03       		.byte	3
 9761 19fe 00       		.byte	0
 9762 19ff 00       		.byte	0
 9763 1a00 3C       		.byte	60
 9764 1a01 00       		.byte	0
 9765 1a02 FC       		.byte	-4
 9766 1a03 03       		.byte	3
 9767 1a04 3C       		.byte	60
 9768 1a05 0F       		.byte	15
 9769 1a06 3C       		.byte	60
 9770 1a07 0F       		.byte	15
 9771 1a08 3C       		.byte	60
 9772 1a09 0F       		.byte	15
 9773 1a0a FC       		.byte	-4
 9774 1a0b 03       		.byte	3
 9775 1a0c 3C       		.byte	60
 9776 1a0d 00       		.byte	0
 9777 1a0e 00       		.byte	0
 9778 1a0f 00       		.byte	0
 9779 1a10 FC       		.byte	-4
 9780 1a11 03       		.byte	3
 9781 1a12 0F       		.byte	15
 9782 1a13 0F       		.byte	15
 9783 1a14 0F       		.byte	15
 9784 1a15 0F       		.byte	15
 9785 1a16 FF       		.byte	-1
GAS LISTING /tmp/ccjfHZuC.s 			page 200


 9786 1a17 03       		.byte	3
 9787 1a18 0F       		.byte	15
 9788 1a19 0F       		.byte	15
 9789 1a1a 0F       		.byte	15
 9790 1a1b 0F       		.byte	15
 9791 1a1c FF       		.byte	-1
 9792 1a1d 03       		.byte	3
 9793 1a1e 0F       		.byte	15
 9794 1a1f 00       		.byte	0
 9795 1a20 3F       		.byte	63
 9796 1a21 00       		.byte	0
 9797 1a22 00       		.byte	0
 9798 1a23 00       		.byte	0
 9799 1a24 FC       		.byte	-4
 9800 1a25 03       		.byte	3
 9801 1a26 00       		.byte	0
 9802 1a27 0F       		.byte	15
 9803 1a28 FC       		.byte	-4
 9804 1a29 0F       		.byte	15
 9805 1a2a 0F       		.byte	15
 9806 1a2b 0F       		.byte	15
 9807 1a2c FC       		.byte	-4
 9808 1a2d 3F       		.byte	63
 9809 1a2e 00       		.byte	0
 9810 1a2f 00       		.byte	0
 9811 1a30 C0       		.byte	-64
 9812 1a31 0F       		.byte	15
 9813 1a32 00       		.byte	0
 9814 1a33 00       		.byte	0
 9815 1a34 FC       		.byte	-4
 9816 1a35 03       		.byte	3
 9817 1a36 00       		.byte	0
 9818 1a37 0F       		.byte	15
 9819 1a38 FC       		.byte	-4
 9820 1a39 0F       		.byte	15
 9821 1a3a 0F       		.byte	15
 9822 1a3b 0F       		.byte	15
 9823 1a3c FC       		.byte	-4
 9824 1a3d 3F       		.byte	63
 9825 1a3e 00       		.byte	0
 9826 1a3f 00       		.byte	0
 9827 1a40 FC       		.byte	-4
 9828 1a41 3F       		.byte	63
 9829 1a42 0F       		.byte	15
 9830 1a43 F0       		.byte	-16
 9831 1a44 F0       		.byte	-16
 9832 1a45 0F       		.byte	15
 9833 1a46 00       		.byte	0
 9834 1a47 3C       		.byte	60
 9835 1a48 F0       		.byte	-16
 9836 1a49 3F       		.byte	63
 9837 1a4a 3C       		.byte	60
 9838 1a4b 3C       		.byte	60
 9839 1a4c F0       		.byte	-16
 9840 1a4d FF       		.byte	-1
 9841 1a4e 00       		.byte	0
 9842 1a4f 00       		.byte	0
GAS LISTING /tmp/ccjfHZuC.s 			page 201


 9843 1a50 3C       		.byte	60
 9844 1a51 0C       		.byte	12
 9845 1a52 C3       		.byte	-61
 9846 1a53 03       		.byte	3
 9847 1a54 FC       		.byte	-4
 9848 1a55 03       		.byte	3
 9849 1a56 00       		.byte	0
 9850 1a57 0F       		.byte	15
 9851 1a58 FC       		.byte	-4
 9852 1a59 0F       		.byte	15
 9853 1a5a 0F       		.byte	15
 9854 1a5b 0F       		.byte	15
 9855 1a5c FC       		.byte	-4
 9856 1a5d 3F       		.byte	63
 9857 1a5e 00       		.byte	0
 9858 1a5f 00       		.byte	0
 9859 1a60 3C       		.byte	60
 9860 1a61 0F       		.byte	15
 9861 1a62 00       		.byte	0
 9862 1a63 00       		.byte	0
 9863 1a64 FC       		.byte	-4
 9864 1a65 03       		.byte	3
 9865 1a66 00       		.byte	0
 9866 1a67 0F       		.byte	15
 9867 1a68 FC       		.byte	-4
 9868 1a69 0F       		.byte	15
 9869 1a6a 0F       		.byte	15
 9870 1a6b 0F       		.byte	15
 9871 1a6c FC       		.byte	-4
 9872 1a6d 3F       		.byte	63
 9873 1a6e 00       		.byte	0
 9874 1a6f 00       		.byte	0
 9875 1a70 F0       		.byte	-16
 9876 1a71 00       		.byte	0
 9877 1a72 F0       		.byte	-16
 9878 1a73 00       		.byte	0
 9879 1a74 FC       		.byte	-4
 9880 1a75 03       		.byte	3
 9881 1a76 00       		.byte	0
 9882 1a77 0F       		.byte	15
 9883 1a78 FC       		.byte	-4
 9884 1a79 0F       		.byte	15
 9885 1a7a 0F       		.byte	15
 9886 1a7b 0F       		.byte	15
 9887 1a7c FC       		.byte	-4
 9888 1a7d 3F       		.byte	63
 9889 1a7e 00       		.byte	0
 9890 1a7f 00       		.byte	0
 9891 1a80 00       		.byte	0
 9892 1a81 00       		.byte	0
 9893 1a82 00       		.byte	0
 9894 1a83 00       		.byte	0
 9895 1a84 FC       		.byte	-4
 9896 1a85 FF       		.byte	-1
 9897 1a86 00       		.byte	0
 9898 1a87 0F       		.byte	15
 9899 1a88 FC       		.byte	-4
GAS LISTING /tmp/ccjfHZuC.s 			page 202


 9900 1a89 FF       		.byte	-1
 9901 1a8a 0F       		.byte	15
 9902 1a8b 0F       		.byte	15
 9903 1a8c FC       		.byte	-4
 9904 1a8d FF       		.byte	-1
 9905 1a8e 00       		.byte	0
 9906 1a8f 00       		.byte	0
 9907 1a90 FC       		.byte	-4
 9908 1a91 03       		.byte	3
 9909 1a92 0F       		.byte	15
 9910 1a93 0F       		.byte	15
 9911 1a94 0F       		.byte	15
 9912 1a95 00       		.byte	0
 9913 1a96 0F       		.byte	15
 9914 1a97 0F       		.byte	15
 9915 1a98 FC       		.byte	-4
 9916 1a99 03       		.byte	3
 9917 1a9a C0       		.byte	-64
 9918 1a9b 03       		.byte	3
 9919 1a9c 00       		.byte	0
 9920 1a9d 0F       		.byte	15
 9921 1a9e FC       		.byte	-4
 9922 1a9f 03       		.byte	3
 9923 1aa0 3F       		.byte	63
 9924 1aa1 00       		.byte	0
 9925 1aa2 00       		.byte	0
 9926 1aa3 00       		.byte	0
 9927 1aa4 FC       		.byte	-4
 9928 1aa5 03       		.byte	3
 9929 1aa6 0F       		.byte	15
 9930 1aa7 0F       		.byte	15
 9931 1aa8 FF       		.byte	-1
 9932 1aa9 0F       		.byte	15
 9933 1aaa 0F       		.byte	15
 9934 1aab 00       		.byte	0
 9935 1aac FC       		.byte	-4
 9936 1aad 03       		.byte	3
 9937 1aae 00       		.byte	0
 9938 1aaf 00       		.byte	0
 9939 1ab0 C0       		.byte	-64
 9940 1ab1 0F       		.byte	15
 9941 1ab2 00       		.byte	0
 9942 1ab3 00       		.byte	0
 9943 1ab4 FC       		.byte	-4
 9944 1ab5 03       		.byte	3
 9945 1ab6 0F       		.byte	15
 9946 1ab7 0F       		.byte	15
 9947 1ab8 FF       		.byte	-1
 9948 1ab9 0F       		.byte	15
 9949 1aba 0F       		.byte	15
 9950 1abb 00       		.byte	0
 9951 1abc FC       		.byte	-4
 9952 1abd 03       		.byte	3
 9953 1abe 00       		.byte	0
 9954 1abf 00       		.byte	0
 9955 1ac0 FC       		.byte	-4
 9956 1ac1 3F       		.byte	63
GAS LISTING /tmp/ccjfHZuC.s 			page 203


 9957 1ac2 0F       		.byte	15
 9958 1ac3 F0       		.byte	-16
 9959 1ac4 F0       		.byte	-16
 9960 1ac5 0F       		.byte	15
 9961 1ac6 3C       		.byte	60
 9962 1ac7 3C       		.byte	60
 9963 1ac8 FC       		.byte	-4
 9964 1ac9 3F       		.byte	63
 9965 1aca 3C       		.byte	60
 9966 1acb 00       		.byte	0
 9967 1acc F0       		.byte	-16
 9968 1acd 0F       		.byte	15
 9969 1ace 00       		.byte	0
 9970 1acf 00       		.byte	0
 9971 1ad0 0F       		.byte	15
 9972 1ad1 0F       		.byte	15
 9973 1ad2 00       		.byte	0
 9974 1ad3 00       		.byte	0
 9975 1ad4 FC       		.byte	-4
 9976 1ad5 03       		.byte	3
 9977 1ad6 0F       		.byte	15
 9978 1ad7 0F       		.byte	15
 9979 1ad8 FF       		.byte	-1
 9980 1ad9 0F       		.byte	15
 9981 1ada 0F       		.byte	15
 9982 1adb 00       		.byte	0
 9983 1adc FC       		.byte	-4
 9984 1add 03       		.byte	3
 9985 1ade 00       		.byte	0
 9986 1adf 00       		.byte	0
 9987 1ae0 3F       		.byte	63
 9988 1ae1 00       		.byte	0
 9989 1ae2 00       		.byte	0
 9990 1ae3 00       		.byte	0
 9991 1ae4 FC       		.byte	-4
 9992 1ae5 00       		.byte	0
 9993 1ae6 F0       		.byte	-16
 9994 1ae7 00       		.byte	0
 9995 1ae8 F0       		.byte	-16
 9996 1ae9 00       		.byte	0
 9997 1aea F0       		.byte	-16
 9998 1aeb 00       		.byte	0
 9999 1aec FC       		.byte	-4
 10000 1aed 03       		.byte	3
 10001 1aee 00       		.byte	0
 10002 1aef 00       		.byte	0
 10003 1af0 F0       		.byte	-16
 10004 1af1 03       		.byte	3
 10005 1af2 00       		.byte	0
 10006 1af3 00       		.byte	0
 10007 1af4 FC       		.byte	-4
 10008 1af5 00       		.byte	0
 10009 1af6 F0       		.byte	-16
 10010 1af7 00       		.byte	0
 10011 1af8 F0       		.byte	-16
 10012 1af9 00       		.byte	0
 10013 1afa F0       		.byte	-16
GAS LISTING /tmp/ccjfHZuC.s 			page 204


 10014 1afb 00       		.byte	0
 10015 1afc FC       		.byte	-4
 10016 1afd 03       		.byte	3
 10017 1afe 00       		.byte	0
 10018 1aff 00       		.byte	0
 10019 1b00 FC       		.byte	-4
 10020 1b01 0F       		.byte	15
 10021 1b02 0F       		.byte	15
 10022 1b03 3C       		.byte	60
 10023 1b04 F0       		.byte	-16
 10024 1b05 03       		.byte	3
 10025 1b06 C0       		.byte	-64
 10026 1b07 03       		.byte	3
 10027 1b08 C0       		.byte	-64
 10028 1b09 03       		.byte	3
 10029 1b0a C0       		.byte	-64
 10030 1b0b 03       		.byte	3
 10031 1b0c F0       		.byte	-16
 10032 1b0d 0F       		.byte	15
 10033 1b0e 00       		.byte	0
 10034 1b0f 00       		.byte	0
 10035 1b10 0F       		.byte	15
 10036 1b11 0F       		.byte	15
 10037 1b12 00       		.byte	0
 10038 1b13 00       		.byte	0
 10039 1b14 FC       		.byte	-4
 10040 1b15 00       		.byte	0
 10041 1b16 F0       		.byte	-16
 10042 1b17 00       		.byte	0
 10043 1b18 F0       		.byte	-16
 10044 1b19 00       		.byte	0
 10045 1b1a F0       		.byte	-16
 10046 1b1b 00       		.byte	0
 10047 1b1c FC       		.byte	-4
 10048 1b1d 03       		.byte	3
 10049 1b1e 00       		.byte	0
 10050 1b1f 00       		.byte	0
 10051 1b20 30       		.byte	48
 10052 1b21 03       		.byte	3
 10053 1b22 C0       		.byte	-64
 10054 1b23 00       		.byte	0
 10055 1b24 30       		.byte	48
 10056 1b25 0F       		.byte	15
 10057 1b26 FC       		.byte	-4
 10058 1b27 0F       		.byte	15
 10059 1b28 0F       		.byte	15
 10060 1b29 0F       		.byte	15
 10061 1b2a 0F       		.byte	15
 10062 1b2b 0F       		.byte	15
 10063 1b2c FC       		.byte	-4
 10064 1b2d 03       		.byte	3
 10065 1b2e 00       		.byte	0
 10066 1b2f 00       		.byte	0
 10067 1b30 00       		.byte	0
 10068 1b31 00       		.byte	0
 10069 1b32 FF       		.byte	-1
 10070 1b33 03       		.byte	3
GAS LISTING /tmp/ccjfHZuC.s 			page 205


 10071 1b34 00       		.byte	0
 10072 1b35 00       		.byte	0
 10073 1b36 FF       		.byte	-1
 10074 1b37 03       		.byte	3
 10075 1b38 0F       		.byte	15
 10076 1b39 0F       		.byte	15
 10077 1b3a 0F       		.byte	15
 10078 1b3b 0F       		.byte	15
 10079 1b3c 0F       		.byte	15
 10080 1b3d 0F       		.byte	15
 10081 1b3e 00       		.byte	0
 10082 1b3f 00       		.byte	0
 10083 1b40 00       		.byte	0
 10084 1b41 00       		.byte	0
 10085 1b42 3F       		.byte	63
 10086 1b43 00       		.byte	0
 10087 1b44 00       		.byte	0
 10088 1b45 00       		.byte	0
 10089 1b46 FC       		.byte	-4
 10090 1b47 03       		.byte	3
 10091 1b48 0F       		.byte	15
 10092 1b49 0F       		.byte	15
 10093 1b4a 0F       		.byte	15
 10094 1b4b 0F       		.byte	15
 10095 1b4c FC       		.byte	-4
 10096 1b4d 03       		.byte	3
 10097 1b4e 00       		.byte	0
 10098 1b4f 00       		.byte	0
 10099 1b50 00       		.byte	0
 10100 1b51 00       		.byte	0
 10101 1b52 C0       		.byte	-64
 10102 1b53 0F       		.byte	15
 10103 1b54 00       		.byte	0
 10104 1b55 00       		.byte	0
 10105 1b56 FC       		.byte	-4
 10106 1b57 03       		.byte	3
 10107 1b58 0F       		.byte	15
 10108 1b59 0F       		.byte	15
 10109 1b5a 0F       		.byte	15
 10110 1b5b 0F       		.byte	15
 10111 1b5c FC       		.byte	-4
 10112 1b5d 03       		.byte	3
 10113 1b5e 00       		.byte	0
 10114 1b5f 00       		.byte	0
 10115 1b60 FC       		.byte	-4
 10116 1b61 03       		.byte	3
 10117 1b62 0F       		.byte	15
 10118 1b63 0F       		.byte	15
 10119 1b64 00       		.byte	0
 10120 1b65 00       		.byte	0
 10121 1b66 FC       		.byte	-4
 10122 1b67 03       		.byte	3
 10123 1b68 0F       		.byte	15
 10124 1b69 0F       		.byte	15
 10125 1b6a 0F       		.byte	15
 10126 1b6b 0F       		.byte	15
 10127 1b6c FC       		.byte	-4
GAS LISTING /tmp/ccjfHZuC.s 			page 206


 10128 1b6d 03       		.byte	3
 10129 1b6e 00       		.byte	0
 10130 1b6f 00       		.byte	0
 10131 1b70 3C       		.byte	60
 10132 1b71 0C       		.byte	12
 10133 1b72 C3       		.byte	-61
 10134 1b73 03       		.byte	3
 10135 1b74 00       		.byte	0
 10136 1b75 00       		.byte	0
 10137 1b76 FC       		.byte	-4
 10138 1b77 03       		.byte	3
 10139 1b78 0F       		.byte	15
 10140 1b79 0F       		.byte	15
 10141 1b7a 0F       		.byte	15
 10142 1b7b 0F       		.byte	15
 10143 1b7c FC       		.byte	-4
 10144 1b7d 03       		.byte	3
 10145 1b7e 00       		.byte	0
 10146 1b7f 00       		.byte	0
 10147 1b80 00       		.byte	0
 10148 1b81 00       		.byte	0
 10149 1b82 0F       		.byte	15
 10150 1b83 0F       		.byte	15
 10151 1b84 00       		.byte	0
 10152 1b85 00       		.byte	0
 10153 1b86 FC       		.byte	-4
 10154 1b87 03       		.byte	3
 10155 1b88 0F       		.byte	15
 10156 1b89 0F       		.byte	15
 10157 1b8a 0F       		.byte	15
 10158 1b8b 0F       		.byte	15
 10159 1b8c FC       		.byte	-4
 10160 1b8d 03       		.byte	3
 10161 1b8e 00       		.byte	0
 10162 1b8f 00       		.byte	0
 10163 1b90 F0       		.byte	-16
 10164 1b91 00       		.byte	0
 10165 1b92 F0       		.byte	-16
 10166 1b93 00       		.byte	0
 10167 1b94 00       		.byte	0
 10168 1b95 00       		.byte	0
 10169 1b96 FF       		.byte	-1
 10170 1b97 0F       		.byte	15
 10171 1b98 00       		.byte	0
 10172 1b99 00       		.byte	0
 10173 1b9a F0       		.byte	-16
 10174 1b9b 00       		.byte	0
 10175 1b9c F0       		.byte	-16
 10176 1b9d 00       		.byte	0
 10177 1b9e 00       		.byte	0
 10178 1b9f 00       		.byte	0
 10179 1ba0 00       		.byte	0
 10180 1ba1 00       		.byte	0
 10181 1ba2 00       		.byte	0
 10182 1ba3 00       		.byte	0
 10183 1ba4 CC       		.byte	-52
 10184 1ba5 0C       		.byte	12
GAS LISTING /tmp/ccjfHZuC.s 			page 207


 10185 1ba6 30       		.byte	48
 10186 1ba7 03       		.byte	3
 10187 1ba8 CC       		.byte	-52
 10188 1ba9 0C       		.byte	12
 10189 1baa 30       		.byte	48
 10190 1bab 03       		.byte	3
 10191 1bac CC       		.byte	-52
 10192 1bad 0C       		.byte	12
 10193 1bae 00       		.byte	0
 10194 1baf 00       		.byte	0
 10195 1bb0 00       		.byte	0
 10196 1bb1 00       		.byte	0
 10197 1bb2 3F       		.byte	63
 10198 1bb3 00       		.byte	0
 10199 1bb4 00       		.byte	0
 10200 1bb5 00       		.byte	0
 10201 1bb6 0F       		.byte	15
 10202 1bb7 0F       		.byte	15
 10203 1bb8 0F       		.byte	15
 10204 1bb9 0F       		.byte	15
 10205 1bba 0F       		.byte	15
 10206 1bbb 0F       		.byte	15
 10207 1bbc FC       		.byte	-4
 10208 1bbd 3F       		.byte	63
 10209 1bbe 00       		.byte	0
 10210 1bbf 00       		.byte	0
 10211 1bc0 00       		.byte	0
 10212 1bc1 00       		.byte	0
 10213 1bc2 C0       		.byte	-64
 10214 1bc3 0F       		.byte	15
 10215 1bc4 00       		.byte	0
 10216 1bc5 00       		.byte	0
 10217 1bc6 0F       		.byte	15
 10218 1bc7 0F       		.byte	15
 10219 1bc8 0F       		.byte	15
 10220 1bc9 0F       		.byte	15
 10221 1bca 0F       		.byte	15
 10222 1bcb 0F       		.byte	15
 10223 1bcc FC       		.byte	-4
 10224 1bcd 3F       		.byte	63
 10225 1bce 00       		.byte	0
 10226 1bcf 00       		.byte	0
 10227 1bd0 FC       		.byte	-4
 10228 1bd1 03       		.byte	3
 10229 1bd2 0F       		.byte	15
 10230 1bd3 0F       		.byte	15
 10231 1bd4 00       		.byte	0
 10232 1bd5 00       		.byte	0
 10233 1bd6 0F       		.byte	15
 10234 1bd7 0F       		.byte	15
 10235 1bd8 0F       		.byte	15
 10236 1bd9 0F       		.byte	15
 10237 1bda 0F       		.byte	15
 10238 1bdb 0F       		.byte	15
 10239 1bdc FC       		.byte	-4
 10240 1bdd 3F       		.byte	63
 10241 1bde 00       		.byte	0
GAS LISTING /tmp/ccjfHZuC.s 			page 208


 10242 1bdf 00       		.byte	0
 10243 1be0 00       		.byte	0
 10244 1be1 00       		.byte	0
 10245 1be2 0F       		.byte	15
 10246 1be3 0F       		.byte	15
 10247 1be4 00       		.byte	0
 10248 1be5 00       		.byte	0
 10249 1be6 0F       		.byte	15
 10250 1be7 0F       		.byte	15
 10251 1be8 0F       		.byte	15
 10252 1be9 0F       		.byte	15
 10253 1bea 0F       		.byte	15
 10254 1beb 0F       		.byte	15
 10255 1bec FC       		.byte	-4
 10256 1bed 3F       		.byte	63
 10257 1bee 00       		.byte	0
 10258 1bef 00       		.byte	0
 10259 1bf0 C0       		.byte	-64
 10260 1bf1 0F       		.byte	15
 10261 1bf2 00       		.byte	0
 10262 1bf3 00       		.byte	0
 10263 1bf4 0F       		.byte	15
 10264 1bf5 0F       		.byte	15
 10265 1bf6 0F       		.byte	15
 10266 1bf7 0F       		.byte	15
 10267 1bf8 0F       		.byte	15
 10268 1bf9 0F       		.byte	15
 10269 1bfa FF       		.byte	-1
 10270 1bfb 0F       		.byte	15
 10271 1bfc 00       		.byte	0
 10272 1bfd 0F       		.byte	15
 10273 1bfe FF       		.byte	-1
 10274 1bff 03       		.byte	3
 10275 1c00 3C       		.byte	60
 10276 1c01 00       		.byte	0
 10277 1c02 3C       		.byte	60
 10278 1c03 00       		.byte	0
 10279 1c04 FC       		.byte	-4
 10280 1c05 03       		.byte	3
 10281 1c06 3C       		.byte	60
 10282 1c07 0F       		.byte	15
 10283 1c08 FC       		.byte	-4
 10284 1c09 03       		.byte	3
 10285 1c0a 3C       		.byte	60
 10286 1c0b 00       		.byte	0
 10287 1c0c 3C       		.byte	60
 10288 1c0d 00       		.byte	0
 10289 1c0e 00       		.byte	0
 10290 1c0f 00       		.byte	0
 10291 1c10 00       		.byte	0
 10292 1c11 00       		.byte	0
 10293 1c12 0F       		.byte	15
 10294 1c13 0F       		.byte	15
 10295 1c14 00       		.byte	0
 10296 1c15 00       		.byte	0
 10297 1c16 0F       		.byte	15
 10298 1c17 0F       		.byte	15
GAS LISTING /tmp/ccjfHZuC.s 			page 209


 10299 1c18 0F       		.byte	15
 10300 1c19 0F       		.byte	15
 10301 1c1a FF       		.byte	-1
 10302 1c1b 0F       		.byte	15
 10303 1c1c 00       		.byte	0
 10304 1c1d 0F       		.byte	15
 10305 1c1e FF       		.byte	-1
 10306 1c1f 03       		.byte	3
 10307 1c20 00       		.byte	0
 10308 1c21 00       		.byte	0
 10309 1c22 00       		.byte	0
 10310 1c23 00       		.byte	0
 10311 1c24 00       		.byte	0
 10312 1c25 00       		.byte	0
 10313 1c26 00       		.byte	0
 10314 1c27 00       		.byte	0
 10315 1c28 00       		.byte	0
 10316 1c29 00       		.byte	0
 10317 1c2a 00       		.byte	0
 10318 1c2b 00       		.byte	0
 10319 1c2c 00       		.byte	0
 10320 1c2d 00       		.byte	0
 10321 1c2e 00       		.byte	0
 10322 1c2f 00       		.byte	0
 10323 1c30 00       		.byte	0
 10324 1c31 00       		.byte	0
 10325 1c32 00       		.byte	0
 10326 1c33 00       		.byte	0
 10327 1c34 00       		.byte	0
 10328 1c35 00       		.byte	0
 10329 1c36 00       		.byte	0
 10330 1c37 00       		.byte	0
 10331 1c38 00       		.byte	0
 10332 1c39 00       		.byte	0
 10333 1c3a 00       		.byte	0
 10334 1c3b 00       		.byte	0
 10335 1c3c 00       		.byte	0
 10336 1c3d 00       		.byte	0
 10337 1c3e 00       		.byte	0
 10338 1c3f 00       		.byte	0
 10339 1c40 00       		.byte	0
 10340 1c41 00       		.byte	0
 10341 1c42 00       		.byte	0
 10342 1c43 00       		.byte	0
 10343 1c44 00       		.byte	0
 10344 1c45 00       		.byte	0
 10345 1c46 00       		.byte	0
 10346 1c47 00       		.byte	0
 10347 1c48 00       		.byte	0
 10348 1c49 00       		.byte	0
 10349 1c4a 00       		.byte	0
 10350 1c4b 00       		.byte	0
 10351 1c4c 00       		.byte	0
 10352 1c4d 00       		.byte	0
 10353 1c4e 00       		.byte	0
 10354 1c4f 00       		.byte	0
 10355 1c50 00       		.byte	0
GAS LISTING /tmp/ccjfHZuC.s 			page 210


 10356 1c51 00       		.byte	0
 10357 1c52 00       		.byte	0
 10358 1c53 00       		.byte	0
 10359 1c54 00       		.byte	0
 10360 1c55 00       		.byte	0
 10361 1c56 00       		.byte	0
 10362 1c57 00       		.byte	0
 10363 1c58 00       		.byte	0
 10364 1c59 00       		.byte	0
 10365 1c5a 00       		.byte	0
 10366 1c5b 00       		.byte	0
 10367 1c5c 00       		.byte	0
 10368 1c5d 00       		.byte	0
 10369 1c5e 00       		.byte	0
 10370 1c5f 00       		.byte	0
 10371 1c60 00       		.byte	0
 10372 1c61 00       		.byte	0
 10373 1c62 00       		.byte	0
 10374 1c63 00       		.byte	0
 10375 1c64 00       		.byte	0
 10376 1c65 00       		.byte	0
 10377 1c66 00       		.byte	0
 10378 1c67 00       		.byte	0
 10379 1c68 00       		.byte	0
 10380 1c69 00       		.byte	0
 10381 1c6a 00       		.byte	0
 10382 1c6b 00       		.byte	0
 10383 1c6c 00       		.byte	0
 10384 1c6d 00       		.byte	0
 10385 1c6e 00       		.byte	0
 10386 1c6f 00       		.byte	0
 10387 1c70 00       		.byte	0
 10388 1c71 00       		.byte	0
 10389 1c72 00       		.byte	0
 10390 1c73 00       		.byte	0
 10391 1c74 00       		.byte	0
 10392 1c75 00       		.byte	0
 10393 1c76 00       		.byte	0
 10394 1c77 00       		.byte	0
 10395 1c78 00       		.byte	0
 10396 1c79 00       		.byte	0
 10397 1c7a 00       		.byte	0
 10398 1c7b 00       		.byte	0
 10399 1c7c 00       		.byte	0
 10400 1c7d 00       		.byte	0
 10401 1c7e 00       		.byte	0
 10402 1c7f 00       		.byte	0
 10403 1c80 00       		.byte	0
 10404 1c81 00       		.byte	0
 10405 1c82 00       		.byte	0
 10406 1c83 00       		.byte	0
 10407 1c84 00       		.byte	0
 10408 1c85 00       		.byte	0
 10409 1c86 00       		.byte	0
 10410 1c87 00       		.byte	0
 10411 1c88 00       		.byte	0
 10412 1c89 00       		.byte	0
GAS LISTING /tmp/ccjfHZuC.s 			page 211


 10413 1c8a 00       		.byte	0
 10414 1c8b 00       		.byte	0
 10415 1c8c 00       		.byte	0
 10416 1c8d 00       		.byte	0
 10417 1c8e 00       		.byte	0
 10418 1c8f 00       		.byte	0
 10419 1c90 00       		.byte	0
 10420 1c91 00       		.byte	0
 10421 1c92 00       		.byte	0
 10422 1c93 00       		.byte	0
 10423 1c94 00       		.byte	0
 10424 1c95 00       		.byte	0
 10425 1c96 00       		.byte	0
 10426 1c97 00       		.byte	0
 10427 1c98 00       		.byte	0
 10428 1c99 00       		.byte	0
 10429 1c9a 00       		.byte	0
 10430 1c9b 00       		.byte	0
 10431 1c9c 00       		.byte	0
 10432 1c9d 00       		.byte	0
 10433 1c9e 00       		.byte	0
 10434 1c9f 00       		.byte	0
 10435 1ca0 00       		.byte	0
 10436 1ca1 00       		.byte	0
 10437 1ca2 00       		.byte	0
 10438 1ca3 00       		.byte	0
 10439 1ca4 00       		.byte	0
 10440 1ca5 00       		.byte	0
 10441 1ca6 00       		.byte	0
 10442 1ca7 00       		.byte	0
 10443 1ca8 00       		.byte	0
 10444 1ca9 00       		.byte	0
 10445 1caa 00       		.byte	0
 10446 1cab 00       		.byte	0
 10447 1cac 00       		.byte	0
 10448 1cad 00       		.byte	0
 10449 1cae 00       		.byte	0
 10450 1caf 00       		.byte	0
 10451 1cb0 00       		.byte	0
 10452 1cb1 00       		.byte	0
 10453 1cb2 00       		.byte	0
 10454 1cb3 00       		.byte	0
 10455 1cb4 00       		.byte	0
 10456 1cb5 00       		.byte	0
 10457 1cb6 00       		.byte	0
 10458 1cb7 00       		.byte	0
 10459 1cb8 00       		.byte	0
 10460 1cb9 00       		.byte	0
 10461 1cba 00       		.byte	0
 10462 1cbb 00       		.byte	0
 10463 1cbc 00       		.byte	0
 10464 1cbd 00       		.byte	0
 10465 1cbe 00       		.byte	0
 10466 1cbf 00       		.byte	0
 10467 1cc0 00       		.byte	0
 10468 1cc1 00       		.byte	0
 10469 1cc2 00       		.byte	0
GAS LISTING /tmp/ccjfHZuC.s 			page 212


 10470 1cc3 00       		.byte	0
 10471 1cc4 00       		.byte	0
 10472 1cc5 00       		.byte	0
 10473 1cc6 00       		.byte	0
 10474 1cc7 00       		.byte	0
 10475 1cc8 00       		.byte	0
 10476 1cc9 00       		.byte	0
 10477 1cca 00       		.byte	0
 10478 1ccb 00       		.byte	0
 10479 1ccc 00       		.byte	0
 10480 1ccd 00       		.byte	0
 10481 1cce 00       		.byte	0
 10482 1ccf 00       		.byte	0
 10483 1cd0 00       		.byte	0
 10484 1cd1 00       		.byte	0
 10485 1cd2 00       		.byte	0
 10486 1cd3 00       		.byte	0
 10487 1cd4 00       		.byte	0
 10488 1cd5 00       		.byte	0
 10489 1cd6 00       		.byte	0
 10490 1cd7 00       		.byte	0
 10491 1cd8 00       		.byte	0
 10492 1cd9 00       		.byte	0
 10493 1cda 00       		.byte	0
 10494 1cdb 00       		.byte	0
 10495 1cdc 00       		.byte	0
 10496 1cdd 00       		.byte	0
 10497 1cde 00       		.byte	0
 10498 1cdf 00       		.byte	0
 10499 1ce0 00       		.byte	0
 10500 1ce1 00       		.byte	0
 10501 1ce2 00       		.byte	0
 10502 1ce3 00       		.byte	0
 10503 1ce4 00       		.byte	0
 10504 1ce5 00       		.byte	0
 10505 1ce6 00       		.byte	0
 10506 1ce7 00       		.byte	0
 10507 1ce8 00       		.byte	0
 10508 1ce9 00       		.byte	0
 10509 1cea 00       		.byte	0
 10510 1ceb 00       		.byte	0
 10511 1cec 00       		.byte	0
 10512 1ced 00       		.byte	0
 10513 1cee 00       		.byte	0
 10514 1cef 00       		.byte	0
 10515 1cf0 00       		.byte	0
 10516 1cf1 00       		.byte	0
 10517 1cf2 00       		.byte	0
 10518 1cf3 00       		.byte	0
 10519 1cf4 00       		.byte	0
 10520 1cf5 00       		.byte	0
 10521 1cf6 00       		.byte	0
 10522 1cf7 00       		.byte	0
 10523 1cf8 00       		.byte	0
 10524 1cf9 00       		.byte	0
 10525 1cfa 00       		.byte	0
 10526 1cfb 00       		.byte	0
GAS LISTING /tmp/ccjfHZuC.s 			page 213


 10527 1cfc 00       		.byte	0
 10528 1cfd 00       		.byte	0
 10529 1cfe 00       		.byte	0
 10530 1cff 00       		.byte	0
 10531 1d00 00       		.byte	0
 10532 1d01 00       		.byte	0
 10533 1d02 00       		.byte	0
 10534 1d03 00       		.byte	0
 10535 1d04 00       		.byte	0
 10536 1d05 00       		.byte	0
 10537 1d06 00       		.byte	0
 10538 1d07 00       		.byte	0
 10539 1d08 00       		.byte	0
 10540 1d09 00       		.byte	0
 10541 1d0a 00       		.byte	0
 10542 1d0b 00       		.byte	0
 10543 1d0c 00       		.byte	0
 10544 1d0d 00       		.byte	0
 10545 1d0e 00       		.byte	0
 10546 1d0f 00       		.byte	0
 10547 1d10 00       		.byte	0
 10548 1d11 00       		.byte	0
 10549 1d12 00       		.byte	0
 10550 1d13 00       		.byte	0
 10551 1d14 00       		.byte	0
 10552 1d15 00       		.byte	0
 10553 1d16 00       		.byte	0
 10554 1d17 00       		.byte	0
 10555 1d18 00       		.byte	0
 10556 1d19 00       		.byte	0
 10557 1d1a 00       		.byte	0
 10558 1d1b 00       		.byte	0
 10559 1d1c 00       		.byte	0
 10560 1d1d 00       		.byte	0
 10561 1d1e 00       		.byte	0
 10562 1d1f 00       		.byte	0
 10563 1d20 00       		.byte	0
 10564 1d21 00       		.byte	0
 10565 1d22 00       		.byte	0
 10566 1d23 00       		.byte	0
 10567 1d24 00       		.byte	0
 10568 1d25 00       		.byte	0
 10569 1d26 00       		.byte	0
 10570 1d27 00       		.byte	0
 10571 1d28 00       		.byte	0
 10572 1d29 00       		.byte	0
 10573 1d2a 00       		.byte	0
 10574 1d2b 00       		.byte	0
 10575 1d2c 00       		.byte	0
 10576 1d2d 00       		.byte	0
 10577 1d2e 00       		.byte	0
 10578 1d2f 00       		.byte	0
 10579 1d30 00       		.byte	0
 10580 1d31 00       		.byte	0
 10581 1d32 00       		.byte	0
 10582 1d33 00       		.byte	0
 10583 1d34 00       		.byte	0
GAS LISTING /tmp/ccjfHZuC.s 			page 214


 10584 1d35 00       		.byte	0
 10585 1d36 00       		.byte	0
 10586 1d37 00       		.byte	0
 10587 1d38 00       		.byte	0
 10588 1d39 00       		.byte	0
 10589 1d3a 00       		.byte	0
 10590 1d3b 00       		.byte	0
 10591 1d3c 00       		.byte	0
 10592 1d3d 00       		.byte	0
 10593 1d3e 00       		.byte	0
 10594 1d3f 00       		.byte	0
 10595 1d40 00       		.byte	0
 10596 1d41 00       		.byte	0
 10597 1d42 00       		.byte	0
 10598 1d43 00       		.byte	0
 10599 1d44 00       		.byte	0
 10600 1d45 00       		.byte	0
 10601 1d46 00       		.byte	0
 10602 1d47 00       		.byte	0
 10603 1d48 00       		.byte	0
 10604 1d49 00       		.byte	0
 10605 1d4a 00       		.byte	0
 10606 1d4b 00       		.byte	0
 10607 1d4c 00       		.byte	0
 10608 1d4d 00       		.byte	0
 10609 1d4e 00       		.byte	0
 10610 1d4f 00       		.byte	0
 10611 1d50 00       		.byte	0
 10612 1d51 00       		.byte	0
 10613 1d52 00       		.byte	0
 10614 1d53 00       		.byte	0
 10615 1d54 00       		.byte	0
 10616 1d55 00       		.byte	0
 10617 1d56 00       		.byte	0
 10618 1d57 00       		.byte	0
 10619 1d58 00       		.byte	0
 10620 1d59 00       		.byte	0
 10621 1d5a 00       		.byte	0
 10622 1d5b 00       		.byte	0
 10623 1d5c 00       		.byte	0
 10624 1d5d 00       		.byte	0
 10625 1d5e 00       		.byte	0
 10626 1d5f 00       		.byte	0
 10627 1d60 00       		.byte	0
 10628 1d61 00       		.byte	0
 10629 1d62 00       		.byte	0
 10630 1d63 00       		.byte	0
 10631 1d64 00       		.byte	0
 10632 1d65 00       		.byte	0
 10633 1d66 00       		.byte	0
 10634 1d67 00       		.byte	0
 10635 1d68 00       		.byte	0
 10636 1d69 00       		.byte	0
 10637 1d6a 00       		.byte	0
 10638 1d6b 00       		.byte	0
 10639 1d6c 00       		.byte	0
 10640 1d6d 00       		.byte	0
GAS LISTING /tmp/ccjfHZuC.s 			page 215


 10641 1d6e 00       		.byte	0
 10642 1d6f 00       		.byte	0
 10643 1d70 00       		.byte	0
 10644 1d71 00       		.byte	0
 10645 1d72 00       		.byte	0
 10646 1d73 00       		.byte	0
 10647 1d74 00       		.byte	0
 10648 1d75 00       		.byte	0
 10649 1d76 00       		.byte	0
 10650 1d77 00       		.byte	0
 10651 1d78 00       		.byte	0
 10652 1d79 00       		.byte	0
 10653 1d7a 00       		.byte	0
 10654 1d7b 00       		.byte	0
 10655 1d7c 00       		.byte	0
 10656 1d7d 00       		.byte	0
 10657 1d7e 00       		.byte	0
 10658 1d7f 00       		.byte	0
 10659 1d80 00       		.byte	0
 10660 1d81 00       		.byte	0
 10661 1d82 00       		.byte	0
 10662 1d83 00       		.byte	0
 10663 1d84 00       		.byte	0
 10664 1d85 00       		.byte	0
 10665 1d86 00       		.byte	0
 10666 1d87 00       		.byte	0
 10667 1d88 00       		.byte	0
 10668 1d89 00       		.byte	0
 10669 1d8a 00       		.byte	0
 10670 1d8b 00       		.byte	0
 10671 1d8c 00       		.byte	0
 10672 1d8d 00       		.byte	0
 10673 1d8e 00       		.byte	0
 10674 1d8f 00       		.byte	0
 10675 1d90 00       		.byte	0
 10676 1d91 00       		.byte	0
 10677 1d92 00       		.byte	0
 10678 1d93 00       		.byte	0
 10679 1d94 00       		.byte	0
 10680 1d95 00       		.byte	0
 10681 1d96 00       		.byte	0
 10682 1d97 00       		.byte	0
 10683 1d98 00       		.byte	0
 10684 1d99 00       		.byte	0
 10685 1d9a 00       		.byte	0
 10686 1d9b 00       		.byte	0
 10687 1d9c 00       		.byte	0
 10688 1d9d 00       		.byte	0
 10689 1d9e 00       		.byte	0
 10690 1d9f 00       		.byte	0
 10691 1da0 00       		.byte	0
 10692 1da1 00       		.byte	0
 10693 1da2 00       		.byte	0
 10694 1da3 00       		.byte	0
 10695 1da4 00       		.byte	0
 10696 1da5 00       		.byte	0
 10697 1da6 00       		.byte	0
GAS LISTING /tmp/ccjfHZuC.s 			page 216


 10698 1da7 00       		.byte	0
 10699 1da8 00       		.byte	0
 10700 1da9 00       		.byte	0
 10701 1daa 00       		.byte	0
 10702 1dab 00       		.byte	0
 10703 1dac 00       		.byte	0
 10704 1dad 00       		.byte	0
 10705 1dae 00       		.byte	0
 10706 1daf 00       		.byte	0
 10707 1db0 00       		.byte	0
 10708 1db1 00       		.byte	0
 10709 1db2 00       		.byte	0
 10710 1db3 00       		.byte	0
 10711 1db4 00       		.byte	0
 10712 1db5 00       		.byte	0
 10713 1db6 00       		.byte	0
 10714 1db7 00       		.byte	0
 10715 1db8 00       		.byte	0
 10716 1db9 00       		.byte	0
 10717 1dba 00       		.byte	0
 10718 1dbb 00       		.byte	0
 10719 1dbc 00       		.byte	0
 10720 1dbd 00       		.byte	0
 10721 1dbe 00       		.byte	0
 10722 1dbf 00       		.byte	0
 10723 1dc0 00       		.byte	0
 10724 1dc1 00       		.byte	0
 10725 1dc2 00       		.byte	0
 10726 1dc3 00       		.byte	0
 10727 1dc4 00       		.byte	0
 10728 1dc5 00       		.byte	0
 10729 1dc6 00       		.byte	0
 10730 1dc7 00       		.byte	0
 10731 1dc8 00       		.byte	0
 10732 1dc9 00       		.byte	0
 10733 1dca 00       		.byte	0
 10734 1dcb 00       		.byte	0
 10735 1dcc 00       		.byte	0
 10736 1dcd 00       		.byte	0
 10737 1dce 00       		.byte	0
 10738 1dcf 00       		.byte	0
 10739 1dd0 00       		.byte	0
 10740 1dd1 00       		.byte	0
 10741 1dd2 00       		.byte	0
 10742 1dd3 00       		.byte	0
 10743 1dd4 00       		.byte	0
 10744 1dd5 00       		.byte	0
 10745 1dd6 00       		.byte	0
 10746 1dd7 00       		.byte	0
 10747 1dd8 00       		.byte	0
 10748 1dd9 00       		.byte	0
 10749 1dda 00       		.byte	0
 10750 1ddb 00       		.byte	0
 10751 1ddc 00       		.byte	0
 10752 1ddd 00       		.byte	0
 10753 1dde 00       		.byte	0
 10754 1ddf 00       		.byte	0
GAS LISTING /tmp/ccjfHZuC.s 			page 217


 10755 1de0 00       		.byte	0
 10756 1de1 00       		.byte	0
 10757 1de2 00       		.byte	0
 10758 1de3 00       		.byte	0
 10759 1de4 00       		.byte	0
 10760 1de5 00       		.byte	0
 10761 1de6 00       		.byte	0
 10762 1de7 00       		.byte	0
 10763 1de8 00       		.byte	0
 10764 1de9 00       		.byte	0
 10765 1dea 00       		.byte	0
 10766 1deb 00       		.byte	0
 10767 1dec 00       		.byte	0
 10768 1ded 00       		.byte	0
 10769 1dee 00       		.byte	0
 10770 1def 00       		.byte	0
 10771 1df0 00       		.byte	0
 10772 1df1 00       		.byte	0
 10773 1df2 00       		.byte	0
 10774 1df3 00       		.byte	0
 10775 1df4 00       		.byte	0
 10776 1df5 00       		.byte	0
 10777 1df6 00       		.byte	0
 10778 1df7 00       		.byte	0
 10779 1df8 00       		.byte	0
 10780 1df9 00       		.byte	0
 10781 1dfa 00       		.byte	0
 10782 1dfb 00       		.byte	0
 10783 1dfc 00       		.byte	0
 10784 1dfd 00       		.byte	0
 10785 1dfe 00       		.byte	0
 10786 1dff 00       		.byte	0
 10787 1e00 00       		.byte	0
 10788 1e01 00       		.byte	0
 10789 1e02 00       		.byte	0
 10790 1e03 00       		.byte	0
 10791 1e04 00       		.byte	0
 10792 1e05 00       		.byte	0
 10793 1e06 00       		.byte	0
 10794 1e07 00       		.byte	0
 10795 1e08 00       		.byte	0
 10796 1e09 00       		.byte	0
 10797 1e0a 00       		.byte	0
 10798 1e0b 00       		.byte	0
 10799 1e0c 00       		.byte	0
 10800 1e0d 00       		.byte	0
 10801 1e0e 00       		.byte	0
 10802 1e0f 00       		.byte	0
 10803 1e10 00       		.byte	0
 10804 1e11 00       		.byte	0
 10805 1e12 00       		.byte	0
 10806 1e13 00       		.byte	0
 10807 1e14 00       		.byte	0
 10808 1e15 00       		.byte	0
 10809 1e16 00       		.byte	0
 10810 1e17 00       		.byte	0
 10811 1e18 00       		.byte	0
GAS LISTING /tmp/ccjfHZuC.s 			page 218


 10812 1e19 00       		.byte	0
 10813 1e1a 00       		.byte	0
 10814 1e1b 00       		.byte	0
 10815 1e1c 00       		.byte	0
 10816 1e1d 00       		.byte	0
 10817 1e1e 00       		.byte	0
 10818 1e1f 00       		.byte	0
 10819 1e20 00       		.byte	0
 10820 1e21 00       		.byte	0
 10821 1e22 00       		.byte	0
 10822 1e23 00       		.byte	0
 10823 1e24 00       		.byte	0
 10824 1e25 00       		.byte	0
 10825 1e26 00       		.byte	0
 10826 1e27 00       		.byte	0
 10827 1e28 00       		.byte	0
 10828 1e29 00       		.byte	0
 10829 1e2a 00       		.byte	0
 10830 1e2b 00       		.byte	0
 10831 1e2c 00       		.byte	0
 10832 1e2d 00       		.byte	0
 10833 1e2e 00       		.byte	0
 10834 1e2f 00       		.byte	0
 10835 1e30 00       		.byte	0
 10836 1e31 00       		.byte	0
 10837 1e32 00       		.byte	0
 10838 1e33 00       		.byte	0
 10839 1e34 00       		.byte	0
 10840 1e35 00       		.byte	0
 10841 1e36 00       		.byte	0
 10842 1e37 00       		.byte	0
 10843 1e38 00       		.byte	0
 10844 1e39 00       		.byte	0
 10845 1e3a 00       		.byte	0
 10846 1e3b 00       		.byte	0
 10847 1e3c 00       		.byte	0
 10848 1e3d 00       		.byte	0
 10849 1e3e 00       		.byte	0
 10850 1e3f 00       		.byte	0
 10851 1e40 00       		.byte	0
 10852 1e41 00       		.byte	0
 10853 1e42 00       		.byte	0
 10854 1e43 00       		.byte	0
 10855 1e44 00       		.byte	0
 10856 1e45 00       		.byte	0
 10857 1e46 00       		.byte	0
 10858 1e47 00       		.byte	0
 10859 1e48 00       		.byte	0
 10860 1e49 00       		.byte	0
 10861 1e4a 00       		.byte	0
 10862 1e4b 00       		.byte	0
 10863 1e4c 00       		.byte	0
 10864 1e4d 00       		.byte	0
 10865 1e4e 00       		.byte	0
 10866 1e4f 00       		.byte	0
 10867 1e50 00       		.byte	0
 10868 1e51 00       		.byte	0
GAS LISTING /tmp/ccjfHZuC.s 			page 219


 10869 1e52 00       		.byte	0
 10870 1e53 00       		.byte	0
 10871 1e54 00       		.byte	0
 10872 1e55 00       		.byte	0
 10873 1e56 00       		.byte	0
 10874 1e57 00       		.byte	0
 10875 1e58 00       		.byte	0
 10876 1e59 00       		.byte	0
 10877 1e5a 00       		.byte	0
 10878 1e5b 00       		.byte	0
 10879 1e5c 00       		.byte	0
 10880 1e5d 00       		.byte	0
 10881 1e5e 00       		.byte	0
 10882 1e5f 00       		.byte	0
 10883 1e60 00       		.byte	0
 10884 1e61 00       		.byte	0
 10885 1e62 00       		.byte	0
 10886 1e63 00       		.byte	0
 10887 1e64 00       		.byte	0
 10888 1e65 00       		.byte	0
 10889 1e66 00       		.byte	0
 10890 1e67 00       		.byte	0
 10891 1e68 00       		.byte	0
 10892 1e69 00       		.byte	0
 10893 1e6a 00       		.byte	0
 10894 1e6b 00       		.byte	0
 10895 1e6c 00       		.byte	0
 10896 1e6d 00       		.byte	0
 10897 1e6e 00       		.byte	0
 10898 1e6f 00       		.byte	0
 10899 1e70 00       		.byte	0
 10900 1e71 00       		.byte	0
 10901 1e72 00       		.byte	0
 10902 1e73 00       		.byte	0
 10903 1e74 00       		.byte	0
 10904 1e75 00       		.byte	0
 10905 1e76 00       		.byte	0
 10906 1e77 00       		.byte	0
 10907 1e78 00       		.byte	0
 10908 1e79 00       		.byte	0
 10909 1e7a 00       		.byte	0
 10910 1e7b 00       		.byte	0
 10911 1e7c 00       		.byte	0
 10912 1e7d 00       		.byte	0
 10913 1e7e 00       		.byte	0
 10914 1e7f 00       		.byte	0
 10915 1e80 00       		.byte	0
 10916 1e81 00       		.byte	0
 10917 1e82 00       		.byte	0
 10918 1e83 00       		.byte	0
 10919 1e84 00       		.byte	0
 10920 1e85 00       		.byte	0
 10921 1e86 00       		.byte	0
 10922 1e87 00       		.byte	0
 10923 1e88 00       		.byte	0
 10924 1e89 00       		.byte	0
 10925 1e8a 00       		.byte	0
GAS LISTING /tmp/ccjfHZuC.s 			page 220


 10926 1e8b 00       		.byte	0
 10927 1e8c 00       		.byte	0
 10928 1e8d 00       		.byte	0
 10929 1e8e 00       		.byte	0
 10930 1e8f 00       		.byte	0
 10931 1e90 00       		.byte	0
 10932 1e91 00       		.byte	0
 10933 1e92 00       		.byte	0
 10934 1e93 00       		.byte	0
 10935 1e94 00       		.byte	0
 10936 1e95 00       		.byte	0
 10937 1e96 00       		.byte	0
 10938 1e97 00       		.byte	0
 10939 1e98 00       		.byte	0
 10940 1e99 00       		.byte	0
 10941 1e9a 00       		.byte	0
 10942 1e9b 00       		.byte	0
 10943 1e9c 00       		.byte	0
 10944 1e9d 00       		.byte	0
 10945 1e9e 00       		.byte	0
 10946 1e9f 00       		.byte	0
 10947 1ea0 00       		.byte	0
 10948 1ea1 00       		.byte	0
 10949 1ea2 00       		.byte	0
 10950 1ea3 00       		.byte	0
 10951 1ea4 00       		.byte	0
 10952 1ea5 00       		.byte	0
 10953 1ea6 00       		.byte	0
 10954 1ea7 00       		.byte	0
 10955 1ea8 00       		.byte	0
 10956 1ea9 00       		.byte	0
 10957 1eaa 00       		.byte	0
 10958 1eab 00       		.byte	0
 10959 1eac 00       		.byte	0
 10960 1ead 00       		.byte	0
 10961 1eae 00       		.byte	0
 10962 1eaf 00       		.byte	0
 10963 1eb0 00       		.byte	0
 10964 1eb1 00       		.byte	0
 10965 1eb2 00       		.byte	0
 10966 1eb3 00       		.byte	0
 10967 1eb4 00       		.byte	0
 10968 1eb5 00       		.byte	0
 10969 1eb6 00       		.byte	0
 10970 1eb7 00       		.byte	0
 10971 1eb8 00       		.byte	0
 10972 1eb9 00       		.byte	0
 10973 1eba 00       		.byte	0
 10974 1ebb 00       		.byte	0
 10975 1ebc 00       		.byte	0
 10976 1ebd 00       		.byte	0
 10977 1ebe 00       		.byte	0
 10978 1ebf 00       		.byte	0
 10979 1ec0 00       		.byte	0
 10980 1ec1 00       		.byte	0
 10981 1ec2 00       		.byte	0
 10982 1ec3 00       		.byte	0
GAS LISTING /tmp/ccjfHZuC.s 			page 221


 10983 1ec4 00       		.byte	0
 10984 1ec5 00       		.byte	0
 10985 1ec6 00       		.byte	0
 10986 1ec7 00       		.byte	0
 10987 1ec8 00       		.byte	0
 10988 1ec9 00       		.byte	0
 10989 1eca 00       		.byte	0
 10990 1ecb 00       		.byte	0
 10991 1ecc 00       		.byte	0
 10992 1ecd 00       		.byte	0
 10993 1ece 00       		.byte	0
 10994 1ecf 00       		.byte	0
 10995 1ed0 00       		.byte	0
 10996 1ed1 00       		.byte	0
 10997 1ed2 00       		.byte	0
 10998 1ed3 00       		.byte	0
 10999 1ed4 00       		.byte	0
 11000 1ed5 00       		.byte	0
 11001 1ed6 00       		.byte	0
 11002 1ed7 00       		.byte	0
 11003 1ed8 00       		.byte	0
 11004 1ed9 00       		.byte	0
 11005 1eda 00       		.byte	0
 11006 1edb 00       		.byte	0
 11007 1edc 00       		.byte	0
 11008 1edd 00       		.byte	0
 11009 1ede 00       		.byte	0
 11010 1edf 00       		.byte	0
 11011 1ee0 00       		.byte	0
 11012 1ee1 00       		.byte	0
 11013 1ee2 00       		.byte	0
 11014 1ee3 00       		.byte	0
 11015 1ee4 00       		.byte	0
 11016 1ee5 00       		.byte	0
 11017 1ee6 00       		.byte	0
 11018 1ee7 00       		.byte	0
 11019 1ee8 00       		.byte	0
 11020 1ee9 00       		.byte	0
 11021 1eea 00       		.byte	0
 11022 1eeb 00       		.byte	0
 11023 1eec 00       		.byte	0
 11024 1eed 00       		.byte	0
 11025 1eee 00       		.byte	0
 11026 1eef 00       		.byte	0
 11027 1ef0 00       		.byte	0
 11028 1ef1 00       		.byte	0
 11029 1ef2 00       		.byte	0
 11030 1ef3 00       		.byte	0
 11031 1ef4 00       		.byte	0
 11032 1ef5 00       		.byte	0
 11033 1ef6 00       		.byte	0
 11034 1ef7 00       		.byte	0
 11035 1ef8 00       		.byte	0
 11036 1ef9 00       		.byte	0
 11037 1efa 00       		.byte	0
 11038 1efb 00       		.byte	0
 11039 1efc 00       		.byte	0
GAS LISTING /tmp/ccjfHZuC.s 			page 222


 11040 1efd 00       		.byte	0
 11041 1efe 00       		.byte	0
 11042 1eff 00       		.byte	0
 11043 1f00 00       		.byte	0
 11044 1f01 00       		.byte	0
 11045 1f02 00       		.byte	0
 11046 1f03 00       		.byte	0
 11047 1f04 00       		.byte	0
 11048 1f05 00       		.byte	0
 11049 1f06 00       		.byte	0
 11050 1f07 00       		.byte	0
 11051 1f08 00       		.byte	0
 11052 1f09 00       		.byte	0
 11053 1f0a 00       		.byte	0
 11054 1f0b 00       		.byte	0
 11055 1f0c 00       		.byte	0
 11056 1f0d 00       		.byte	0
 11057 1f0e 00       		.byte	0
 11058 1f0f 00       		.byte	0
 11059 1f10 00       		.byte	0
 11060 1f11 00       		.byte	0
 11061 1f12 00       		.byte	0
 11062 1f13 00       		.byte	0
 11063 1f14 00       		.byte	0
 11064 1f15 00       		.byte	0
 11065 1f16 00       		.byte	0
 11066 1f17 00       		.byte	0
 11067 1f18 00       		.byte	0
 11068 1f19 00       		.byte	0
 11069 1f1a 00       		.byte	0
 11070 1f1b 00       		.byte	0
 11071 1f1c 00       		.byte	0
 11072 1f1d 00       		.byte	0
 11073 1f1e 00       		.byte	0
 11074 1f1f 00       		.byte	0
 11075 1f20 00       		.byte	0
 11076 1f21 00       		.byte	0
 11077 1f22 00       		.byte	0
 11078 1f23 00       		.byte	0
 11079 1f24 00       		.byte	0
 11080 1f25 00       		.byte	0
 11081 1f26 00       		.byte	0
 11082 1f27 00       		.byte	0
 11083 1f28 00       		.byte	0
 11084 1f29 00       		.byte	0
 11085 1f2a 00       		.byte	0
 11086 1f2b 00       		.byte	0
 11087 1f2c 00       		.byte	0
 11088 1f2d 00       		.byte	0
 11089 1f2e 00       		.byte	0
 11090 1f2f 00       		.byte	0
 11091 1f30 00       		.byte	0
 11092 1f31 00       		.byte	0
 11093 1f32 00       		.byte	0
 11094 1f33 00       		.byte	0
 11095 1f34 00       		.byte	0
 11096 1f35 00       		.byte	0
GAS LISTING /tmp/ccjfHZuC.s 			page 223


 11097 1f36 00       		.byte	0
 11098 1f37 00       		.byte	0
 11099 1f38 00       		.byte	0
 11100 1f39 00       		.byte	0
 11101 1f3a 00       		.byte	0
 11102 1f3b 00       		.byte	0
 11103 1f3c 00       		.byte	0
 11104 1f3d 00       		.byte	0
 11105 1f3e 00       		.byte	0
 11106 1f3f 00       		.byte	0
 11107 1f40 00       		.byte	0
 11108 1f41 00       		.byte	0
 11109 1f42 00       		.byte	0
 11110 1f43 00       		.byte	0
 11111 1f44 00       		.byte	0
 11112 1f45 00       		.byte	0
 11113 1f46 00       		.byte	0
 11114 1f47 00       		.byte	0
 11115 1f48 00       		.byte	0
 11116 1f49 00       		.byte	0
 11117 1f4a 00       		.byte	0
 11118 1f4b 00       		.byte	0
 11119 1f4c 00       		.byte	0
 11120 1f4d 00       		.byte	0
 11121 1f4e 00       		.byte	0
 11122 1f4f 00       		.byte	0
 11123 1f50 00       		.byte	0
 11124 1f51 00       		.byte	0
 11125 1f52 00       		.byte	0
 11126 1f53 00       		.byte	0
 11127 1f54 00       		.byte	0
 11128 1f55 00       		.byte	0
 11129 1f56 00       		.byte	0
 11130 1f57 00       		.byte	0
 11131 1f58 00       		.byte	0
 11132 1f59 00       		.byte	0
 11133 1f5a 00       		.byte	0
 11134 1f5b 00       		.byte	0
 11135 1f5c 00       		.byte	0
 11136 1f5d 00       		.byte	0
 11137 1f5e 00       		.byte	0
 11138 1f5f 00       		.byte	0
 11139 1f60 00       		.byte	0
 11140 1f61 00       		.byte	0
 11141 1f62 00       		.byte	0
 11142 1f63 00       		.byte	0
 11143 1f64 00       		.byte	0
 11144 1f65 00       		.byte	0
 11145 1f66 00       		.byte	0
 11146 1f67 00       		.byte	0
 11147 1f68 00       		.byte	0
 11148 1f69 00       		.byte	0
 11149 1f6a 00       		.byte	0
 11150 1f6b 00       		.byte	0
 11151 1f6c 00       		.byte	0
 11152 1f6d 00       		.byte	0
 11153 1f6e 00       		.byte	0
GAS LISTING /tmp/ccjfHZuC.s 			page 224


 11154 1f6f 00       		.byte	0
 11155 1f70 00       		.byte	0
 11156 1f71 00       		.byte	0
 11157 1f72 00       		.byte	0
 11158 1f73 00       		.byte	0
 11159 1f74 00       		.byte	0
 11160 1f75 00       		.byte	0
 11161 1f76 00       		.byte	0
 11162 1f77 00       		.byte	0
 11163 1f78 00       		.byte	0
 11164 1f79 00       		.byte	0
 11165 1f7a 00       		.byte	0
 11166 1f7b 00       		.byte	0
 11167 1f7c 00       		.byte	0
 11168 1f7d 00       		.byte	0
 11169 1f7e 00       		.byte	0
 11170 1f7f 00       		.byte	0
 11171 1f80 00       		.byte	0
 11172 1f81 00       		.byte	0
 11173 1f82 00       		.byte	0
 11174 1f83 00       		.byte	0
 11175 1f84 00       		.byte	0
 11176 1f85 00       		.byte	0
 11177 1f86 00       		.byte	0
 11178 1f87 00       		.byte	0
 11179 1f88 00       		.byte	0
 11180 1f89 00       		.byte	0
 11181 1f8a 00       		.byte	0
 11182 1f8b 00       		.byte	0
 11183 1f8c 00       		.byte	0
 11184 1f8d 00       		.byte	0
 11185 1f8e 00       		.byte	0
 11186 1f8f 00       		.byte	0
 11187 1f90 00       		.byte	0
 11188 1f91 00       		.byte	0
 11189 1f92 00       		.byte	0
 11190 1f93 00       		.byte	0
 11191 1f94 00       		.byte	0
 11192 1f95 00       		.byte	0
 11193 1f96 00       		.byte	0
 11194 1f97 00       		.byte	0
 11195 1f98 00       		.byte	0
 11196 1f99 00       		.byte	0
 11197 1f9a 00       		.byte	0
 11198 1f9b 00       		.byte	0
 11199 1f9c 00       		.byte	0
 11200 1f9d 00       		.byte	0
 11201 1f9e 00       		.byte	0
 11202 1f9f 00       		.byte	0
 11203 1fa0 00       		.byte	0
 11204 1fa1 00       		.byte	0
 11205 1fa2 00       		.byte	0
 11206 1fa3 00       		.byte	0
 11207 1fa4 00       		.byte	0
 11208 1fa5 00       		.byte	0
 11209 1fa6 00       		.byte	0
 11210 1fa7 00       		.byte	0
GAS LISTING /tmp/ccjfHZuC.s 			page 225


 11211 1fa8 00       		.byte	0
 11212 1fa9 00       		.byte	0
 11213 1faa 00       		.byte	0
 11214 1fab 00       		.byte	0
 11215 1fac 00       		.byte	0
 11216 1fad 00       		.byte	0
 11217 1fae 00       		.byte	0
 11218 1faf 00       		.byte	0
 11219 1fb0 00       		.byte	0
 11220 1fb1 00       		.byte	0
 11221 1fb2 00       		.byte	0
 11222 1fb3 00       		.byte	0
 11223 1fb4 00       		.byte	0
 11224 1fb5 00       		.byte	0
 11225 1fb6 00       		.byte	0
 11226 1fb7 00       		.byte	0
 11227 1fb8 00       		.byte	0
 11228 1fb9 00       		.byte	0
 11229 1fba 00       		.byte	0
 11230 1fbb 00       		.byte	0
 11231 1fbc 00       		.byte	0
 11232 1fbd 00       		.byte	0
 11233 1fbe 00       		.byte	0
 11234 1fbf 00       		.byte	0
 11235 1fc0 00       		.byte	0
 11236 1fc1 00       		.byte	0
 11237 1fc2 00       		.byte	0
 11238 1fc3 00       		.byte	0
 11239 1fc4 00       		.byte	0
 11240 1fc5 00       		.byte	0
 11241 1fc6 00       		.byte	0
 11242 1fc7 00       		.byte	0
 11243 1fc8 00       		.byte	0
 11244 1fc9 00       		.byte	0
 11245 1fca 00       		.byte	0
 11246 1fcb 00       		.byte	0
 11247 1fcc 00       		.byte	0
 11248 1fcd 00       		.byte	0
 11249 1fce 00       		.byte	0
 11250 1fcf 00       		.byte	0
 11251 1fd0 00       		.byte	0
 11252 1fd1 00       		.byte	0
 11253 1fd2 00       		.byte	0
 11254 1fd3 00       		.byte	0
 11255 1fd4 00       		.byte	0
 11256 1fd5 00       		.byte	0
 11257 1fd6 00       		.byte	0
 11258 1fd7 00       		.byte	0
 11259 1fd8 00       		.byte	0
 11260 1fd9 00       		.byte	0
 11261 1fda 00       		.byte	0
 11262 1fdb 00       		.byte	0
 11263 1fdc 00       		.byte	0
 11264 1fdd 00       		.byte	0
 11265 1fde 00       		.byte	0
 11266 1fdf 00       		.byte	0
 11267 1fe0 00       		.byte	0
GAS LISTING /tmp/ccjfHZuC.s 			page 226


 11268 1fe1 00       		.byte	0
 11269 1fe2 00       		.byte	0
 11270 1fe3 00       		.byte	0
 11271 1fe4 00       		.byte	0
 11272 1fe5 00       		.byte	0
 11273 1fe6 00       		.byte	0
 11274 1fe7 00       		.byte	0
 11275 1fe8 00       		.byte	0
 11276 1fe9 00       		.byte	0
 11277 1fea 00       		.byte	0
 11278 1feb 00       		.byte	0
 11279 1fec 00       		.byte	0
 11280 1fed 00       		.byte	0
 11281 1fee 00       		.byte	0
 11282 1fef 00       		.byte	0
 11283 1ff0 00       		.byte	0
 11284 1ff1 00       		.byte	0
 11285 1ff2 00       		.byte	0
 11286 1ff3 00       		.byte	0
 11287 1ff4 00       		.byte	0
 11288 1ff5 00       		.byte	0
 11289 1ff6 00       		.byte	0
 11290 1ff7 00       		.byte	0
 11291 1ff8 00       		.byte	0
 11292 1ff9 00       		.byte	0
 11293 1ffa 00       		.byte	0
 11294 1ffb 00       		.byte	0
 11295 1ffc 00       		.byte	0
 11296 1ffd 00       		.byte	0
 11297 1ffe 00       		.byte	0
 11298 1fff 00       		.byte	0
 11299 2000 00       		.byte	0
 11300 2001 00       		.byte	0
 11301 2002 00       		.byte	0
 11302 2003 00       		.byte	0
 11303 2004 00       		.byte	0
 11304 2005 00       		.byte	0
 11305 2006 00       		.byte	0
 11306 2007 00       		.byte	0
 11307 2008 00       		.byte	0
 11308 2009 00       		.byte	0
 11309 200a 00       		.byte	0
 11310 200b 00       		.byte	0
 11311 200c 00       		.byte	0
 11312 200d 00       		.byte	0
 11313 200e 00       		.byte	0
 11314 200f 00       		.byte	0
 11315 2010 00       		.byte	0
 11316 2011 00       		.byte	0
 11317 2012 00       		.byte	0
 11318 2013 00       		.byte	0
 11319 2014 00       		.byte	0
 11320 2015 00       		.byte	0
 11321 2016 00       		.byte	0
 11322 2017 00       		.byte	0
 11323 2018 00       		.byte	0
 11324 2019 00       		.byte	0
GAS LISTING /tmp/ccjfHZuC.s 			page 227


 11325 201a 00       		.byte	0
 11326 201b 00       		.byte	0
 11327 201c 00       		.byte	0
 11328 201d 00       		.byte	0
 11329 201e 00       		.byte	0
 11330 201f 00       		.byte	0
 11331 2020 00       		.byte	0
 11332 2021 00       		.byte	0
 11333 2022 00       		.byte	0
 11334 2023 00       		.byte	0
 11335 2024 00       		.byte	0
 11336 2025 00       		.byte	0
 11337 2026 00       		.byte	0
 11338 2027 00       		.byte	0
 11339 2028 00       		.byte	0
 11340 2029 00       		.byte	0
 11341 202a 00       		.byte	0
 11342 202b 00       		.byte	0
 11343 202c 00       		.byte	0
 11344 202d 00       		.byte	0
 11345 202e 00       		.byte	0
 11346 202f 00       		.byte	0
 11347 2030 00       		.byte	0
 11348 2031 00       		.byte	0
 11349 2032 00       		.byte	0
 11350 2033 00       		.byte	0
 11351 2034 00       		.byte	0
 11352 2035 00       		.byte	0
 11353 2036 00       		.byte	0
 11354 2037 00       		.byte	0
 11355 2038 00       		.byte	0
 11356 2039 00       		.byte	0
 11357 203a 00       		.byte	0
 11358 203b 00       		.byte	0
 11359 203c 00       		.byte	0
 11360 203d 00       		.byte	0
 11361 203e 00       		.byte	0
 11362 203f 00       		.byte	0
 11363 2040 00       		.byte	0
 11364 2041 00       		.byte	0
 11365 2042 00       		.byte	0
 11366 2043 00       		.byte	0
 11367 2044 00       		.byte	0
 11368 2045 00       		.byte	0
 11369 2046 00       		.byte	0
 11370 2047 00       		.byte	0
 11371 2048 00       		.byte	0
 11372 2049 00       		.byte	0
 11373 204a 00       		.byte	0
 11374 204b 00       		.byte	0
 11375 204c 00       		.byte	0
 11376 204d 00       		.byte	0
 11377 204e 00       		.byte	0
 11378 204f 00       		.byte	0
 11379 2050 00       		.byte	0
 11380 2051 00       		.byte	0
 11381 2052 00       		.byte	0
GAS LISTING /tmp/ccjfHZuC.s 			page 228


 11382 2053 00       		.byte	0
 11383 2054 00       		.byte	0
 11384 2055 00       		.byte	0
 11385 2056 00       		.byte	0
 11386 2057 00       		.byte	0
 11387 2058 00       		.byte	0
 11388 2059 00       		.byte	0
 11389 205a 00       		.byte	0
 11390 205b 00       		.byte	0
 11391 205c 00       		.byte	0
 11392 205d 00       		.byte	0
 11393 205e 00       		.byte	0
 11394 205f 00       		.byte	0
 11395 2060 00       		.byte	0
 11396 2061 00       		.byte	0
 11397 2062 00       		.byte	0
 11398 2063 00       		.byte	0
 11399 2064 00       		.byte	0
 11400 2065 00       		.byte	0
 11401 2066 00       		.byte	0
 11402 2067 00       		.byte	0
 11403 2068 00       		.byte	0
 11404 2069 00       		.byte	0
 11405 206a 00       		.byte	0
 11406 206b 00       		.byte	0
 11407 206c 00       		.byte	0
 11408 206d 00       		.byte	0
 11409 206e 00       		.byte	0
 11410 206f 00       		.byte	0
 11411 2070 00       		.byte	0
 11412 2071 00       		.byte	0
 11413 2072 00       		.byte	0
 11414 2073 00       		.byte	0
 11415 2074 00       		.byte	0
 11416 2075 00       		.byte	0
 11417 2076 00       		.byte	0
 11418 2077 00       		.byte	0
 11419 2078 00       		.byte	0
 11420 2079 00       		.byte	0
 11421 207a 00       		.byte	0
 11422 207b 00       		.byte	0
 11423 207c 00       		.byte	0
 11424 207d 00       		.byte	0
 11425 207e 00       		.byte	0
 11426 207f 00       		.byte	0
 11427 2080 00       		.byte	0
 11428 2081 00       		.byte	0
 11429 2082 00       		.byte	0
 11430 2083 00       		.byte	0
 11431 2084 00       		.byte	0
 11432 2085 00       		.byte	0
 11433 2086 00       		.byte	0
 11434 2087 00       		.byte	0
 11435 2088 00       		.byte	0
 11436 2089 00       		.byte	0
 11437 208a 00       		.byte	0
 11438 208b 00       		.byte	0
GAS LISTING /tmp/ccjfHZuC.s 			page 229


 11439 208c 00       		.byte	0
 11440 208d 00       		.byte	0
 11441 208e 00       		.byte	0
 11442 208f 00       		.byte	0
 11443 2090 00       		.byte	0
 11444 2091 00       		.byte	0
 11445 2092 00       		.byte	0
 11446 2093 00       		.byte	0
 11447 2094 00       		.byte	0
 11448 2095 00       		.byte	0
 11449 2096 00       		.byte	0
 11450 2097 00       		.byte	0
 11451 2098 00       		.byte	0
 11452 2099 00       		.byte	0
 11453 209a 00       		.byte	0
 11454 209b 00       		.byte	0
 11455 209c 00       		.byte	0
 11456 209d 00       		.byte	0
 11457 209e 00       		.byte	0
 11458 209f 00       		.byte	0
 11459 20a0 00       		.byte	0
 11460 20a1 00       		.byte	0
 11461 20a2 00       		.byte	0
 11462 20a3 00       		.byte	0
 11463 20a4 00       		.byte	0
 11464 20a5 00       		.byte	0
 11465 20a6 00       		.byte	0
 11466 20a7 00       		.byte	0
 11467 20a8 00       		.byte	0
 11468 20a9 00       		.byte	0
 11469 20aa 00       		.byte	0
 11470 20ab 00       		.byte	0
 11471 20ac 00       		.byte	0
 11472 20ad 00       		.byte	0
 11473 20ae 00       		.byte	0
 11474 20af 00       		.byte	0
 11475 20b0 00       		.byte	0
 11476 20b1 00       		.byte	0
 11477 20b2 00       		.byte	0
 11478 20b3 00       		.byte	0
 11479 20b4 00       		.byte	0
 11480 20b5 00       		.byte	0
 11481 20b6 00       		.byte	0
 11482 20b7 00       		.byte	0
 11483 20b8 00       		.byte	0
 11484 20b9 00       		.byte	0
 11485 20ba 00       		.byte	0
 11486 20bb 00       		.byte	0
 11487 20bc 00       		.byte	0
 11488 20bd 00       		.byte	0
 11489 20be 00       		.byte	0
 11490 20bf 00       		.byte	0
 11491 20c0 00       		.byte	0
 11492 20c1 00       		.byte	0
 11493 20c2 00       		.byte	0
 11494 20c3 00       		.byte	0
 11495 20c4 00       		.byte	0
GAS LISTING /tmp/ccjfHZuC.s 			page 230


 11496 20c5 00       		.byte	0
 11497 20c6 00       		.byte	0
 11498 20c7 00       		.byte	0
 11499 20c8 00       		.byte	0
 11500 20c9 00       		.byte	0
 11501 20ca 00       		.byte	0
 11502 20cb 00       		.byte	0
 11503 20cc 00       		.byte	0
 11504 20cd 00       		.byte	0
 11505 20ce 00       		.byte	0
 11506 20cf 00       		.byte	0
 11507 20d0 00       		.byte	0
 11508 20d1 00       		.byte	0
 11509 20d2 00       		.byte	0
 11510 20d3 00       		.byte	0
 11511 20d4 00       		.byte	0
 11512 20d5 00       		.byte	0
 11513 20d6 00       		.byte	0
 11514 20d7 00       		.byte	0
 11515 20d8 00       		.byte	0
 11516 20d9 00       		.byte	0
 11517 20da 00       		.byte	0
 11518 20db 00       		.byte	0
 11519 20dc 00       		.byte	0
 11520 20dd 00       		.byte	0
 11521 20de 00       		.byte	0
 11522 20df 00       		.byte	0
 11523 20e0 00       		.byte	0
 11524 20e1 00       		.byte	0
 11525 20e2 00       		.byte	0
 11526 20e3 00       		.byte	0
 11527 20e4 00       		.byte	0
 11528 20e5 00       		.byte	0
 11529 20e6 00       		.byte	0
 11530 20e7 00       		.byte	0
 11531 20e8 00       		.byte	0
 11532 20e9 00       		.byte	0
 11533 20ea 00       		.byte	0
 11534 20eb 00       		.byte	0
 11535 20ec 00       		.byte	0
 11536 20ed 00       		.byte	0
 11537 20ee 00       		.byte	0
 11538 20ef 00       		.byte	0
 11539 20f0 00       		.byte	0
 11540 20f1 00       		.byte	0
 11541 20f2 00       		.byte	0
 11542 20f3 00       		.byte	0
 11543 20f4 00       		.byte	0
 11544 20f5 00       		.byte	0
 11545 20f6 00       		.byte	0
 11546 20f7 00       		.byte	0
 11547 20f8 00       		.byte	0
 11548 20f9 00       		.byte	0
 11549 20fa 00       		.byte	0
 11550 20fb 00       		.byte	0
 11551 20fc 00       		.byte	0
 11552 20fd 00       		.byte	0
GAS LISTING /tmp/ccjfHZuC.s 			page 231


 11553 20fe 00       		.byte	0
 11554 20ff 00       		.byte	0
 11555 2100 00       		.byte	0
 11556 2101 00       		.byte	0
 11557 2102 00       		.byte	0
 11558 2103 00       		.byte	0
 11559 2104 00       		.byte	0
 11560 2105 00       		.byte	0
 11561 2106 00       		.byte	0
 11562 2107 00       		.byte	0
 11563 2108 00       		.byte	0
 11564 2109 00       		.byte	0
 11565 210a 00       		.byte	0
 11566 210b 00       		.byte	0
 11567 210c 00       		.byte	0
 11568 210d 00       		.byte	0
 11569 210e 00       		.byte	0
 11570 210f 00       		.byte	0
 11571 2110 00       		.byte	0
 11572 2111 00       		.byte	0
 11573 2112 00       		.byte	0
 11574 2113 00       		.byte	0
 11575 2114 00       		.byte	0
 11576 2115 00       		.byte	0
 11577 2116 00       		.byte	0
 11578 2117 00       		.byte	0
 11579 2118 00       		.byte	0
 11580 2119 00       		.byte	0
 11581 211a 00       		.byte	0
 11582 211b 00       		.byte	0
 11583 211c 00       		.byte	0
 11584 211d 00       		.byte	0
 11585 211e 00       		.byte	0
 11586 211f 00       		.byte	0
 11587 2120 00       		.byte	0
 11588 2121 00       		.byte	0
 11589 2122 00       		.byte	0
 11590 2123 00       		.byte	0
 11591 2124 00       		.byte	0
 11592 2125 00       		.byte	0
 11593 2126 00       		.byte	0
 11594 2127 00       		.byte	0
 11595 2128 00       		.byte	0
 11596 2129 00       		.byte	0
 11597 212a 00       		.byte	0
 11598 212b 00       		.byte	0
 11599 212c 00       		.byte	0
 11600 212d 00       		.byte	0
 11601 212e 00       		.byte	0
 11602 212f 00       		.byte	0
 11603 2130 00       		.byte	0
 11604 2131 00       		.byte	0
 11605 2132 00       		.byte	0
 11606 2133 00       		.byte	0
 11607 2134 00       		.byte	0
 11608 2135 00       		.byte	0
 11609 2136 00       		.byte	0
GAS LISTING /tmp/ccjfHZuC.s 			page 232


 11610 2137 00       		.byte	0
 11611 2138 00       		.byte	0
 11612 2139 00       		.byte	0
 11613 213a 00       		.byte	0
 11614 213b 00       		.byte	0
 11615 213c 00       		.byte	0
 11616 213d 00       		.byte	0
 11617 213e 00       		.byte	0
 11618 213f 00       		.byte	0
 11619 2140 00       		.byte	0
 11620 2141 00       		.byte	0
 11621 2142 00       		.byte	0
 11622 2143 00       		.byte	0
 11623 2144 00       		.byte	0
 11624 2145 00       		.byte	0
 11625 2146 00       		.byte	0
 11626 2147 00       		.byte	0
 11627 2148 00       		.byte	0
 11628 2149 00       		.byte	0
 11629 214a 00       		.byte	0
 11630 214b 00       		.byte	0
 11631 214c 00       		.byte	0
 11632 214d 00       		.byte	0
 11633 214e 00       		.byte	0
 11634 214f 00       		.byte	0
 11635 2150 00       		.byte	0
 11636 2151 00       		.byte	0
 11637 2152 00       		.byte	0
 11638 2153 00       		.byte	0
 11639 2154 00       		.byte	0
 11640 2155 00       		.byte	0
 11641 2156 00       		.byte	0
 11642 2157 00       		.byte	0
 11643 2158 00       		.byte	0
 11644 2159 00       		.byte	0
 11645 215a 00       		.byte	0
 11646 215b 00       		.byte	0
 11647 215c 00       		.byte	0
 11648 215d 00       		.byte	0
 11649 215e 00       		.byte	0
 11650 215f 00       		.byte	0
 11651 2160 00       		.byte	0
 11652 2161 00       		.byte	0
 11653 2162 00       		.byte	0
 11654 2163 00       		.byte	0
 11655 2164 00       		.byte	0
 11656 2165 00       		.byte	0
 11657 2166 00       		.byte	0
 11658 2167 00       		.byte	0
 11659 2168 00       		.byte	0
 11660 2169 00       		.byte	0
 11661 216a 00       		.byte	0
 11662 216b 00       		.byte	0
 11663 216c 00       		.byte	0
 11664 216d 00       		.byte	0
 11665 216e 00       		.byte	0
 11666 216f 00       		.byte	0
GAS LISTING /tmp/ccjfHZuC.s 			page 233


 11667 2170 00       		.byte	0
 11668 2171 00       		.byte	0
 11669 2172 00       		.byte	0
 11670 2173 00       		.byte	0
 11671 2174 00       		.byte	0
 11672 2175 00       		.byte	0
 11673 2176 00       		.byte	0
 11674 2177 00       		.byte	0
 11675 2178 00       		.byte	0
 11676 2179 00       		.byte	0
 11677 217a 00       		.byte	0
 11678 217b 00       		.byte	0
 11679 217c 00       		.byte	0
 11680 217d 00       		.byte	0
 11681 217e 00       		.byte	0
 11682 217f 00       		.byte	0
 11683 2180 00       		.byte	0
 11684 2181 00       		.byte	0
 11685 2182 00       		.byte	0
 11686 2183 00       		.byte	0
 11687 2184 00       		.byte	0
 11688 2185 00       		.byte	0
 11689 2186 00       		.byte	0
 11690 2187 00       		.byte	0
 11691 2188 00       		.byte	0
 11692 2189 00       		.byte	0
 11693 218a 00       		.byte	0
 11694 218b 00       		.byte	0
 11695 218c 00       		.byte	0
 11696 218d 00       		.byte	0
 11697 218e 00       		.byte	0
 11698 218f 00       		.byte	0
 11699 2190 00       		.byte	0
 11700 2191 00       		.byte	0
 11701 2192 00       		.byte	0
 11702 2193 00       		.byte	0
 11703 2194 00       		.byte	0
 11704 2195 00       		.byte	0
 11705 2196 00       		.byte	0
 11706 2197 00       		.byte	0
 11707 2198 00       		.byte	0
 11708 2199 00       		.byte	0
 11709 219a 00       		.byte	0
 11710 219b 00       		.byte	0
 11711 219c 00       		.byte	0
 11712 219d 00       		.byte	0
 11713 219e 00       		.byte	0
 11714 219f 00       		.byte	0
 11715 21a0 00       		.byte	0
 11716 21a1 00       		.byte	0
 11717 21a2 00       		.byte	0
 11718 21a3 00       		.byte	0
 11719 21a4 00       		.byte	0
 11720 21a5 00       		.byte	0
 11721 21a6 00       		.byte	0
 11722 21a7 00       		.byte	0
 11723 21a8 00       		.byte	0
GAS LISTING /tmp/ccjfHZuC.s 			page 234


 11724 21a9 00       		.byte	0
 11725 21aa 00       		.byte	0
 11726 21ab 00       		.byte	0
 11727 21ac 00       		.byte	0
 11728 21ad 00       		.byte	0
 11729 21ae 00       		.byte	0
 11730 21af 00       		.byte	0
 11731 21b0 00       		.byte	0
 11732 21b1 00       		.byte	0
 11733 21b2 00       		.byte	0
 11734 21b3 00       		.byte	0
 11735 21b4 00       		.byte	0
 11736 21b5 00       		.byte	0
 11737 21b6 00       		.byte	0
 11738 21b7 00       		.byte	0
 11739 21b8 00       		.byte	0
 11740 21b9 00       		.byte	0
 11741 21ba 00       		.byte	0
 11742 21bb 00       		.byte	0
 11743 21bc 00       		.byte	0
 11744 21bd 00       		.byte	0
 11745 21be 00       		.byte	0
 11746 21bf 00       		.byte	0
 11747 21c0 00       		.byte	0
 11748 21c1 00       		.byte	0
 11749 21c2 00       		.byte	0
 11750 21c3 00       		.byte	0
 11751 21c4 00       		.byte	0
 11752 21c5 00       		.byte	0
 11753 21c6 00       		.byte	0
 11754 21c7 00       		.byte	0
 11755 21c8 00       		.byte	0
 11756 21c9 00       		.byte	0
 11757 21ca 00       		.byte	0
 11758 21cb 00       		.byte	0
 11759 21cc 00       		.byte	0
 11760 21cd 00       		.byte	0
 11761 21ce 00       		.byte	0
 11762 21cf 00       		.byte	0
 11763 21d0 00       		.byte	0
 11764 21d1 00       		.byte	0
 11765 21d2 00       		.byte	0
 11766 21d3 00       		.byte	0
 11767 21d4 00       		.byte	0
 11768 21d5 00       		.byte	0
 11769 21d6 00       		.byte	0
 11770 21d7 00       		.byte	0
 11771 21d8 00       		.byte	0
 11772 21d9 00       		.byte	0
 11773 21da 00       		.byte	0
 11774 21db 00       		.byte	0
 11775 21dc 00       		.byte	0
 11776 21dd 00       		.byte	0
 11777 21de 00       		.byte	0
 11778 21df 00       		.byte	0
 11779 21e0 00       		.byte	0
 11780 21e1 00       		.byte	0
GAS LISTING /tmp/ccjfHZuC.s 			page 235


 11781 21e2 00       		.byte	0
 11782 21e3 00       		.byte	0
 11783 21e4 00       		.byte	0
 11784 21e5 00       		.byte	0
 11785 21e6 00       		.byte	0
 11786 21e7 00       		.byte	0
 11787 21e8 00       		.byte	0
 11788 21e9 00       		.byte	0
 11789 21ea 00       		.byte	0
 11790 21eb 00       		.byte	0
 11791 21ec 00       		.byte	0
 11792 21ed 00       		.byte	0
 11793 21ee 00       		.byte	0
 11794 21ef 00       		.byte	0
 11795 21f0 00       		.byte	0
 11796 21f1 00       		.byte	0
 11797 21f2 00       		.byte	0
 11798 21f3 00       		.byte	0
 11799 21f4 00       		.byte	0
 11800 21f5 00       		.byte	0
 11801 21f6 00       		.byte	0
 11802 21f7 00       		.byte	0
 11803 21f8 00       		.byte	0
 11804 21f9 00       		.byte	0
 11805 21fa 00       		.byte	0
 11806 21fb 00       		.byte	0
 11807 21fc 00       		.byte	0
 11808 21fd 00       		.byte	0
 11809 21fe 00       		.byte	0
 11810 21ff 00       		.byte	0
 11811 2200 00       		.byte	0
 11812 2201 00       		.byte	0
 11813 2202 00       		.byte	0
 11814 2203 00       		.byte	0
 11815 2204 00       		.byte	0
 11816 2205 00       		.byte	0
 11817 2206 00       		.byte	0
 11818 2207 00       		.byte	0
 11819 2208 00       		.byte	0
 11820 2209 00       		.byte	0
 11821 220a 00       		.byte	0
 11822 220b 00       		.byte	0
 11823 220c 00       		.byte	0
 11824 220d 00       		.byte	0
 11825 220e 00       		.byte	0
 11826 220f 00       		.byte	0
 11827 2210 00       		.byte	0
 11828 2211 00       		.byte	0
 11829 2212 00       		.byte	0
 11830 2213 00       		.byte	0
 11831 2214 00       		.byte	0
 11832 2215 00       		.byte	0
 11833 2216 00       		.byte	0
 11834 2217 00       		.byte	0
 11835 2218 00       		.byte	0
 11836 2219 00       		.byte	0
 11837 221a 00       		.byte	0
GAS LISTING /tmp/ccjfHZuC.s 			page 236


 11838 221b 00       		.byte	0
 11839 221c 00       		.byte	0
 11840 221d 00       		.byte	0
 11841 221e 00       		.byte	0
 11842 221f 00       		.byte	0
 11843 2220 00       		.byte	0
 11844 2221 00       		.byte	0
 11845 2222 00       		.byte	0
 11846 2223 00       		.byte	0
 11847 2224 00       		.byte	0
 11848 2225 00       		.byte	0
 11849 2226 00       		.byte	0
 11850 2227 00       		.byte	0
 11851 2228 00       		.byte	0
 11852 2229 00       		.byte	0
 11853 222a 00       		.byte	0
 11854 222b 00       		.byte	0
 11855 222c 00       		.byte	0
 11856 222d 00       		.byte	0
 11857 222e 00       		.byte	0
 11858 222f 00       		.byte	0
 11859 2230 00       		.byte	0
 11860 2231 00       		.byte	0
 11861 2232 00       		.byte	0
 11862 2233 00       		.byte	0
 11863 2234 00       		.byte	0
 11864 2235 00       		.byte	0
 11865 2236 00       		.byte	0
 11866 2237 00       		.byte	0
 11867 2238 00       		.byte	0
 11868 2239 00       		.byte	0
 11869 223a 00       		.byte	0
 11870 223b 00       		.byte	0
 11871 223c 00       		.byte	0
 11872 223d 00       		.byte	0
 11873 223e 00       		.byte	0
 11874 223f 00       		.byte	0
 11875 2240 00       		.byte	0
 11876 2241 00       		.byte	0
 11877 2242 00       		.byte	0
 11878 2243 00       		.byte	0
 11879 2244 00       		.byte	0
 11880 2245 00       		.byte	0
 11881 2246 00       		.byte	0
 11882 2247 00       		.byte	0
 11883 2248 00       		.byte	0
 11884 2249 00       		.byte	0
 11885 224a 00       		.byte	0
 11886 224b 00       		.byte	0
 11887 224c 00       		.byte	0
 11888 224d 00       		.byte	0
 11889 224e 00       		.byte	0
 11890 224f 00       		.byte	0
 11891 2250 00       		.byte	0
 11892 2251 00       		.byte	0
 11893 2252 00       		.byte	0
 11894 2253 00       		.byte	0
GAS LISTING /tmp/ccjfHZuC.s 			page 237


 11895 2254 00       		.byte	0
 11896 2255 00       		.byte	0
 11897 2256 00       		.byte	0
 11898 2257 00       		.byte	0
 11899 2258 00       		.byte	0
 11900 2259 00       		.byte	0
 11901 225a 00       		.byte	0
 11902 225b 00       		.byte	0
 11903 225c 00       		.byte	0
 11904 225d 00       		.byte	0
 11905 225e 00       		.byte	0
 11906 225f 00       		.byte	0
 11907 2260 00       		.byte	0
 11908 2261 00       		.byte	0
 11909 2262 00       		.byte	0
 11910 2263 00       		.byte	0
 11911 2264 00       		.byte	0
 11912 2265 00       		.byte	0
 11913 2266 00       		.byte	0
 11914 2267 00       		.byte	0
 11915 2268 00       		.byte	0
 11916 2269 00       		.byte	0
 11917 226a 00       		.byte	0
 11918 226b 00       		.byte	0
 11919 226c 00       		.byte	0
 11920 226d 00       		.byte	0
 11921 226e 00       		.byte	0
 11922 226f 00       		.byte	0
 11923 2270 00       		.byte	0
 11924 2271 00       		.byte	0
 11925 2272 00       		.byte	0
 11926 2273 00       		.byte	0
 11927 2274 00       		.byte	0
 11928 2275 00       		.byte	0
 11929 2276 00       		.byte	0
 11930 2277 00       		.byte	0
 11931 2278 00       		.byte	0
 11932 2279 00       		.byte	0
 11933 227a 00       		.byte	0
 11934 227b 00       		.byte	0
 11935 227c 00       		.byte	0
 11936 227d 00       		.byte	0
 11937 227e 00       		.byte	0
 11938 227f 00       		.byte	0
 11939 2280 00       		.byte	0
 11940 2281 00       		.byte	0
 11941 2282 00       		.byte	0
 11942 2283 00       		.byte	0
 11943 2284 00       		.byte	0
 11944 2285 00       		.byte	0
 11945 2286 00       		.byte	0
 11946 2287 00       		.byte	0
 11947 2288 00       		.byte	0
 11948 2289 00       		.byte	0
 11949 228a 00       		.byte	0
 11950 228b 00       		.byte	0
 11951 228c 00       		.byte	0
GAS LISTING /tmp/ccjfHZuC.s 			page 238


 11952 228d 00       		.byte	0
 11953 228e 00       		.byte	0
 11954 228f 00       		.byte	0
 11955 2290 00       		.byte	0
 11956 2291 00       		.byte	0
 11957 2292 00       		.byte	0
 11958 2293 00       		.byte	0
 11959 2294 00       		.byte	0
 11960 2295 00       		.byte	0
 11961 2296 00       		.byte	0
 11962 2297 00       		.byte	0
 11963 2298 00       		.byte	0
 11964 2299 00       		.byte	0
 11965 229a 00       		.byte	0
 11966 229b 00       		.byte	0
 11967 229c 00       		.byte	0
 11968 229d 00       		.byte	0
 11969 229e 00       		.byte	0
 11970 229f 00       		.byte	0
 11971 22a0 00       		.byte	0
 11972 22a1 00       		.byte	0
 11973 22a2 00       		.byte	0
 11974 22a3 00       		.byte	0
 11975 22a4 00       		.byte	0
 11976 22a5 00       		.byte	0
 11977 22a6 00       		.byte	0
 11978 22a7 00       		.byte	0
 11979 22a8 00       		.byte	0
 11980 22a9 00       		.byte	0
 11981 22aa 00       		.byte	0
 11982 22ab 00       		.byte	0
 11983 22ac 00       		.byte	0
 11984 22ad 00       		.byte	0
 11985 22ae 00       		.byte	0
 11986 22af 00       		.byte	0
 11987 22b0 00       		.byte	0
 11988 22b1 00       		.byte	0
 11989 22b2 00       		.byte	0
 11990 22b3 00       		.byte	0
 11991 22b4 00       		.byte	0
 11992 22b5 00       		.byte	0
 11993 22b6 00       		.byte	0
 11994 22b7 00       		.byte	0
 11995 22b8 00       		.byte	0
 11996 22b9 00       		.byte	0
 11997 22ba 00       		.byte	0
 11998 22bb 00       		.byte	0
 11999 22bc 00       		.byte	0
 12000 22bd 00       		.byte	0
 12001 22be 00       		.byte	0
 12002 22bf 00       		.byte	0
 12003 22c0 00       		.byte	0
 12004 22c1 00       		.byte	0
 12005 22c2 00       		.byte	0
 12006 22c3 00       		.byte	0
 12007 22c4 00       		.byte	0
 12008 22c5 00       		.byte	0
GAS LISTING /tmp/ccjfHZuC.s 			page 239


 12009 22c6 00       		.byte	0
 12010 22c7 00       		.byte	0
 12011 22c8 00       		.byte	0
 12012 22c9 00       		.byte	0
 12013 22ca 00       		.byte	0
 12014 22cb 00       		.byte	0
 12015 22cc 00       		.byte	0
 12016 22cd 00       		.byte	0
 12017 22ce 00       		.byte	0
 12018 22cf 00       		.byte	0
 12019 22d0 00       		.byte	0
 12020 22d1 00       		.byte	0
 12021 22d2 00       		.byte	0
 12022 22d3 00       		.byte	0
 12023 22d4 00       		.byte	0
 12024 22d5 00       		.byte	0
 12025 22d6 00       		.byte	0
 12026 22d7 00       		.byte	0
 12027 22d8 00       		.byte	0
 12028 22d9 00       		.byte	0
 12029 22da 00       		.byte	0
 12030 22db 00       		.byte	0
 12031 22dc 00       		.byte	0
 12032 22dd 00       		.byte	0
 12033 22de 00       		.byte	0
 12034 22df 00       		.byte	0
 12035 22e0 00       		.byte	0
 12036 22e1 00       		.byte	0
 12037 22e2 00       		.byte	0
 12038 22e3 00       		.byte	0
 12039 22e4 00       		.byte	0
 12040 22e5 00       		.byte	0
 12041 22e6 00       		.byte	0
 12042 22e7 00       		.byte	0
 12043 22e8 00       		.byte	0
 12044 22e9 00       		.byte	0
 12045 22ea 00       		.byte	0
 12046 22eb 00       		.byte	0
 12047 22ec 00       		.byte	0
 12048 22ed 00       		.byte	0
 12049 22ee 00       		.byte	0
 12050 22ef 00       		.byte	0
 12051 22f0 00       		.byte	0
 12052 22f1 00       		.byte	0
 12053 22f2 00       		.byte	0
 12054 22f3 00       		.byte	0
 12055 22f4 00       		.byte	0
 12056 22f5 00       		.byte	0
 12057 22f6 00       		.byte	0
 12058 22f7 00       		.byte	0
 12059 22f8 00       		.byte	0
 12060 22f9 00       		.byte	0
 12061 22fa 00       		.byte	0
 12062 22fb 00       		.byte	0
 12063 22fc 00       		.byte	0
 12064 22fd 00       		.byte	0
 12065 22fe 00       		.byte	0
GAS LISTING /tmp/ccjfHZuC.s 			page 240


 12066 22ff 00       		.byte	0
 12067 2300 00       		.byte	0
 12068 2301 00       		.byte	0
 12069 2302 00       		.byte	0
 12070 2303 00       		.byte	0
 12071 2304 00       		.byte	0
 12072 2305 00       		.byte	0
 12073 2306 00       		.byte	0
 12074 2307 00       		.byte	0
 12075 2308 00       		.byte	0
 12076 2309 00       		.byte	0
 12077 230a 00       		.byte	0
 12078 230b 00       		.byte	0
 12079 230c 00       		.byte	0
 12080 230d 00       		.byte	0
 12081 230e 00       		.byte	0
 12082 230f 00       		.byte	0
 12083 2310 00       		.byte	0
 12084 2311 00       		.byte	0
 12085 2312 00       		.byte	0
 12086 2313 00       		.byte	0
 12087 2314 00       		.byte	0
 12088 2315 00       		.byte	0
 12089 2316 00       		.byte	0
 12090 2317 00       		.byte	0
 12091 2318 00       		.byte	0
 12092 2319 00       		.byte	0
 12093 231a 00       		.byte	0
 12094 231b 00       		.byte	0
 12095 231c 00       		.byte	0
 12096 231d 00       		.byte	0
 12097 231e 00       		.byte	0
 12098 231f 00       		.byte	0
 12099 2320 00       		.byte	0
 12100 2321 00       		.byte	0
 12101 2322 00       		.byte	0
 12102 2323 00       		.byte	0
 12103 2324 00       		.byte	0
 12104 2325 00       		.byte	0
 12105 2326 00       		.byte	0
 12106 2327 00       		.byte	0
 12107 2328 00       		.byte	0
 12108 2329 00       		.byte	0
 12109 232a 00       		.byte	0
 12110 232b 00       		.byte	0
 12111 232c 00       		.byte	0
 12112 232d 00       		.byte	0
 12113 232e 00       		.byte	0
 12114 232f 00       		.byte	0
 12115 2330 00       		.byte	0
 12116 2331 00       		.byte	0
 12117 2332 00       		.byte	0
 12118 2333 00       		.byte	0
 12119 2334 00       		.byte	0
 12120 2335 00       		.byte	0
 12121 2336 00       		.byte	0
 12122 2337 00       		.byte	0
GAS LISTING /tmp/ccjfHZuC.s 			page 241


 12123 2338 00       		.byte	0
 12124 2339 00       		.byte	0
 12125 233a 00       		.byte	0
 12126 233b 00       		.byte	0
 12127 233c 00       		.byte	0
 12128 233d 00       		.byte	0
 12129 233e 00       		.byte	0
 12130 233f 00       		.byte	0
 12131 2340 00       		.byte	0
 12132 2341 00       		.byte	0
 12133 2342 00       		.byte	0
 12134 2343 00       		.byte	0
 12135 2344 00       		.byte	0
 12136 2345 00       		.byte	0
 12137 2346 00       		.byte	0
 12138 2347 00       		.byte	0
 12139 2348 00       		.byte	0
 12140 2349 00       		.byte	0
 12141 234a 00       		.byte	0
 12142 234b 00       		.byte	0
 12143 234c 00       		.byte	0
 12144 234d 00       		.byte	0
 12145 234e 00       		.byte	0
 12146 234f 00       		.byte	0
 12147 2350 00       		.byte	0
 12148 2351 00       		.byte	0
 12149 2352 00       		.byte	0
 12150 2353 00       		.byte	0
 12151 2354 00       		.byte	0
 12152 2355 00       		.byte	0
 12153 2356 00       		.byte	0
 12154 2357 00       		.byte	0
 12155 2358 00       		.byte	0
 12156 2359 00       		.byte	0
 12157 235a 00       		.byte	0
 12158 235b 00       		.byte	0
 12159 235c 00       		.byte	0
 12160 235d 00       		.byte	0
 12161 235e 00       		.byte	0
 12162 235f 00       		.byte	0
 12163 2360 00       		.byte	0
 12164 2361 00       		.byte	0
 12165 2362 00       		.byte	0
 12166 2363 00       		.byte	0
 12167 2364 00       		.byte	0
 12168 2365 00       		.byte	0
 12169 2366 00       		.byte	0
 12170 2367 00       		.byte	0
 12171 2368 00       		.byte	0
 12172 2369 00       		.byte	0
 12173 236a 00       		.byte	0
 12174 236b 00       		.byte	0
 12175 236c 00       		.byte	0
 12176 236d 00       		.byte	0
 12177 236e 00       		.byte	0
 12178 236f 00       		.byte	0
 12179 2370 00       		.byte	0
GAS LISTING /tmp/ccjfHZuC.s 			page 242


 12180 2371 00       		.byte	0
 12181 2372 00       		.byte	0
 12182 2373 00       		.byte	0
 12183 2374 00       		.byte	0
 12184 2375 00       		.byte	0
 12185 2376 00       		.byte	0
 12186 2377 00       		.byte	0
 12187 2378 00       		.byte	0
 12188 2379 00       		.byte	0
 12189 237a 00       		.byte	0
 12190 237b 00       		.byte	0
 12191 237c 00       		.byte	0
 12192 237d 00       		.byte	0
 12193 237e 00       		.byte	0
 12194 237f 00       		.byte	0
 12195 2380 00       		.byte	0
 12196 2381 00       		.byte	0
 12197 2382 00       		.byte	0
 12198 2383 00       		.byte	0
 12199 2384 00       		.byte	0
 12200 2385 00       		.byte	0
 12201 2386 00       		.byte	0
 12202 2387 00       		.byte	0
 12203 2388 00       		.byte	0
 12204 2389 00       		.byte	0
 12205 238a 00       		.byte	0
 12206 238b 00       		.byte	0
 12207 238c 00       		.byte	0
 12208 238d 00       		.byte	0
 12209 238e 00       		.byte	0
 12210 238f 00       		.byte	0
 12211 2390 00       		.byte	0
 12212 2391 00       		.byte	0
 12213 2392 00       		.byte	0
 12214 2393 00       		.byte	0
 12215 2394 00       		.byte	0
 12216 2395 00       		.byte	0
 12217 2396 00       		.byte	0
 12218 2397 00       		.byte	0
 12219 2398 00       		.byte	0
 12220 2399 00       		.byte	0
 12221 239a 00       		.byte	0
 12222 239b 00       		.byte	0
 12223 239c 00       		.byte	0
 12224 239d 00       		.byte	0
 12225 239e 00       		.byte	0
 12226 239f 00       		.byte	0
 12227 23a0 00       		.byte	0
 12228 23a1 00       		.byte	0
 12229 23a2 00       		.byte	0
 12230 23a3 00       		.byte	0
 12231 23a4 00       		.byte	0
 12232 23a5 00       		.byte	0
 12233 23a6 00       		.byte	0
 12234 23a7 00       		.byte	0
 12235 23a8 00       		.byte	0
 12236 23a9 00       		.byte	0
GAS LISTING /tmp/ccjfHZuC.s 			page 243


 12237 23aa 00       		.byte	0
 12238 23ab 00       		.byte	0
 12239 23ac 00       		.byte	0
 12240 23ad 00       		.byte	0
 12241 23ae 00       		.byte	0
 12242 23af 00       		.byte	0
 12243 23b0 00       		.byte	0
 12244 23b1 00       		.byte	0
 12245 23b2 00       		.byte	0
 12246 23b3 00       		.byte	0
 12247 23b4 00       		.byte	0
 12248 23b5 00       		.byte	0
 12249 23b6 00       		.byte	0
 12250 23b7 00       		.byte	0
 12251 23b8 00       		.byte	0
 12252 23b9 00       		.byte	0
 12253 23ba 00       		.byte	0
 12254 23bb 00       		.byte	0
 12255 23bc 00       		.byte	0
 12256 23bd 00       		.byte	0
 12257 23be 00       		.byte	0
 12258 23bf 00       		.byte	0
 12259 23c0 00       		.byte	0
 12260 23c1 00       		.byte	0
 12261 23c2 00       		.byte	0
 12262 23c3 00       		.byte	0
 12263 23c4 00       		.byte	0
 12264 23c5 00       		.byte	0
 12265 23c6 00       		.byte	0
 12266 23c7 00       		.byte	0
 12267 23c8 00       		.byte	0
 12268 23c9 00       		.byte	0
 12269 23ca 00       		.byte	0
 12270 23cb 00       		.byte	0
 12271 23cc 00       		.byte	0
 12272 23cd 00       		.byte	0
 12273 23ce 00       		.byte	0
 12274 23cf 00       		.byte	0
 12275 23d0 00       		.byte	0
 12276 23d1 00       		.byte	0
 12277 23d2 00       		.byte	0
 12278 23d3 00       		.byte	0
 12279 23d4 00       		.byte	0
 12280 23d5 00       		.byte	0
 12281 23d6 00       		.byte	0
 12282 23d7 00       		.byte	0
 12283 23d8 00       		.byte	0
 12284 23d9 00       		.byte	0
 12285 23da 00       		.byte	0
 12286 23db 00       		.byte	0
 12287 23dc 00       		.byte	0
 12288 23dd 00       		.byte	0
 12289 23de 00       		.byte	0
 12290 23df 00       		.byte	0
 12291 23e0 00       		.byte	0
 12292 23e1 00       		.byte	0
 12293 23e2 00       		.byte	0
GAS LISTING /tmp/ccjfHZuC.s 			page 244


 12294 23e3 00       		.byte	0
 12295 23e4 00       		.byte	0
 12296 23e5 00       		.byte	0
 12297 23e6 00       		.byte	0
 12298 23e7 00       		.byte	0
 12299 23e8 00       		.byte	0
 12300 23e9 00       		.byte	0
 12301 23ea 00       		.byte	0
 12302 23eb 00       		.byte	0
 12303 23ec 00       		.byte	0
 12304 23ed 00       		.byte	0
 12305 23ee 00       		.byte	0
 12306 23ef 00       		.byte	0
 12307 23f0 00       		.byte	0
 12308 23f1 00       		.byte	0
 12309 23f2 00       		.byte	0
 12310 23f3 00       		.byte	0
 12311 23f4 00       		.byte	0
 12312 23f5 00       		.byte	0
 12313 23f6 00       		.byte	0
 12314 23f7 00       		.byte	0
 12315 23f8 00       		.byte	0
 12316 23f9 00       		.byte	0
 12317 23fa 00       		.byte	0
 12318 23fb 00       		.byte	0
 12319 23fc 00       		.byte	0
 12320 23fd 00       		.byte	0
 12321 23fe 00       		.byte	0
 12322 23ff 00       		.byte	0
 12323 2400 00       		.byte	0
 12324 2401 00       		.byte	0
 12325 2402 00       		.byte	0
 12326 2403 00       		.byte	0
 12327 2404 00       		.byte	0
 12328 2405 00       		.byte	0
 12329 2406 00       		.byte	0
 12330 2407 00       		.byte	0
 12331 2408 00       		.byte	0
 12332 2409 00       		.byte	0
 12333 240a 00       		.byte	0
 12334 240b 00       		.byte	0
 12335 240c 00       		.byte	0
 12336 240d 00       		.byte	0
 12337 240e 00       		.byte	0
 12338 240f 00       		.byte	0
 12339 2410 00       		.byte	0
 12340 2411 00       		.byte	0
 12341 2412 00       		.byte	0
 12342 2413 00       		.byte	0
 12343 2414 00       		.byte	0
 12344 2415 00       		.byte	0
 12345 2416 00       		.byte	0
 12346 2417 00       		.byte	0
 12347 2418 00       		.byte	0
 12348 2419 00       		.byte	0
 12349 241a 00       		.byte	0
 12350 241b 00       		.byte	0
GAS LISTING /tmp/ccjfHZuC.s 			page 245


 12351 241c 00       		.byte	0
 12352 241d 00       		.byte	0
 12353 241e 00       		.byte	0
 12354 241f 00       		.byte	0
 12355 2420 00       		.byte	0
 12356 2421 00       		.byte	0
 12357 2422 00       		.byte	0
 12358 2423 00       		.byte	0
 12359 2424 00       		.byte	0
 12360 2425 00       		.byte	0
 12361 2426 00       		.byte	0
 12362 2427 00       		.byte	0
 12363 2428 00       		.byte	0
 12364 2429 00       		.byte	0
 12365 242a 00       		.byte	0
 12366 242b 00       		.byte	0
 12367 242c 00       		.byte	0
 12368 242d 00       		.byte	0
 12369 242e 00       		.byte	0
 12370 242f 00       		.byte	0
 12371 2430 00       		.byte	0
 12372 2431 00       		.byte	0
 12373 2432 00       		.byte	0
 12374 2433 00       		.byte	0
 12375 2434 00       		.byte	0
 12376 2435 00       		.byte	0
 12377 2436 00       		.byte	0
 12378 2437 00       		.byte	0
 12379 2438 00       		.byte	0
 12380 2439 00       		.byte	0
 12381 243a 00       		.byte	0
 12382 243b 00       		.byte	0
 12383 243c 00       		.byte	0
 12384 243d 00       		.byte	0
 12385 243e 00       		.byte	0
 12386 243f 00       		.byte	0
 12387 2440 00       		.byte	0
 12388 2441 00       		.byte	0
 12389 2442 00       		.byte	0
 12390 2443 00       		.byte	0
 12391 2444 00       		.byte	0
 12392 2445 00       		.byte	0
 12393 2446 00       		.byte	0
 12394 2447 00       		.byte	0
 12395 2448 00       		.byte	0
 12396 2449 00       		.byte	0
 12397 244a 00       		.byte	0
 12398 244b 00       		.byte	0
 12399 244c 00       		.byte	0
 12400 244d 00       		.byte	0
 12401 244e 00       		.byte	0
 12402 244f 00       		.byte	0
 12403 2450 00       		.byte	0
 12404 2451 00       		.byte	0
 12405 2452 00       		.byte	0
 12406 2453 00       		.byte	0
 12407 2454 00       		.byte	0
GAS LISTING /tmp/ccjfHZuC.s 			page 246


 12408 2455 00       		.byte	0
 12409 2456 00       		.byte	0
 12410 2457 00       		.byte	0
 12411 2458 00       		.byte	0
 12412 2459 00       		.byte	0
 12413 245a 00       		.byte	0
 12414 245b 00       		.byte	0
 12415 245c 00       		.byte	0
 12416 245d 00       		.byte	0
 12417 245e 00       		.byte	0
 12418 245f 00       		.byte	0
 12419 2460 00       		.byte	0
 12420 2461 00       		.byte	0
 12421 2462 00       		.byte	0
 12422 2463 00       		.byte	0
 12423 2464 00       		.byte	0
 12424 2465 00       		.byte	0
 12425 2466 00       		.byte	0
 12426 2467 00       		.byte	0
 12427 2468 00       		.byte	0
 12428 2469 00       		.byte	0
 12429 246a 00       		.byte	0
 12430 246b 00       		.byte	0
 12431 246c 00       		.byte	0
 12432 246d 00       		.byte	0
 12433 246e 00       		.byte	0
 12434 246f 00       		.byte	0
 12435 2470 00       		.byte	0
 12436 2471 00       		.byte	0
 12437 2472 00       		.byte	0
 12438 2473 00       		.byte	0
 12439 2474 00       		.byte	0
 12440 2475 00       		.byte	0
 12441 2476 00       		.byte	0
 12442 2477 00       		.byte	0
 12443 2478 00       		.byte	0
 12444 2479 00       		.byte	0
 12445 247a 00       		.byte	0
 12446 247b 00       		.byte	0
 12447 247c 00       		.byte	0
 12448 247d 00       		.byte	0
 12449 247e 00       		.byte	0
 12450 247f 00       		.byte	0
 12451 2480 00       		.byte	0
 12452 2481 00       		.byte	0
 12453 2482 00       		.byte	0
 12454 2483 00       		.byte	0
 12455 2484 00       		.byte	0
 12456 2485 00       		.byte	0
 12457 2486 00       		.byte	0
 12458 2487 00       		.byte	0
 12459 2488 00       		.byte	0
 12460 2489 00       		.byte	0
 12461 248a 00       		.byte	0
 12462 248b 00       		.byte	0
 12463 248c 00       		.byte	0
 12464 248d 00       		.byte	0
GAS LISTING /tmp/ccjfHZuC.s 			page 247


 12465 248e 00       		.byte	0
 12466 248f 00       		.byte	0
 12467 2490 00       		.byte	0
 12468 2491 00       		.byte	0
 12469 2492 00       		.byte	0
 12470 2493 00       		.byte	0
 12471 2494 00       		.byte	0
 12472 2495 00       		.byte	0
 12473 2496 00       		.byte	0
 12474 2497 00       		.byte	0
 12475 2498 00       		.byte	0
 12476 2499 00       		.byte	0
 12477 249a 00       		.byte	0
 12478 249b 00       		.byte	0
 12479 249c 00       		.byte	0
 12480 249d 00       		.byte	0
 12481 249e 00       		.byte	0
 12482 249f 00       		.byte	0
 12483 24a0 00       		.byte	0
 12484 24a1 00       		.byte	0
 12485 24a2 00       		.byte	0
 12486 24a3 00       		.byte	0
 12487 24a4 00       		.byte	0
 12488 24a5 00       		.byte	0
 12489 24a6 00       		.byte	0
 12490 24a7 00       		.byte	0
 12491 24a8 00       		.byte	0
 12492 24a9 00       		.byte	0
 12493 24aa 00       		.byte	0
 12494 24ab 00       		.byte	0
 12495 24ac 00       		.byte	0
 12496 24ad 00       		.byte	0
 12497 24ae 00       		.byte	0
 12498 24af 00       		.byte	0
 12499 24b0 00       		.byte	0
 12500 24b1 00       		.byte	0
 12501 24b2 00       		.byte	0
 12502 24b3 00       		.byte	0
 12503 24b4 00       		.byte	0
 12504 24b5 00       		.byte	0
 12505 24b6 00       		.byte	0
 12506 24b7 00       		.byte	0
 12507 24b8 00       		.byte	0
 12508 24b9 00       		.byte	0
 12509 24ba 00       		.byte	0
 12510 24bb 00       		.byte	0
 12511 24bc 00       		.byte	0
 12512 24bd 00       		.byte	0
 12513 24be 00       		.byte	0
 12514 24bf 00       		.byte	0
 12515 24c0 00       		.byte	0
 12516 24c1 00       		.byte	0
 12517 24c2 00       		.byte	0
 12518 24c3 00       		.byte	0
 12519 24c4 00       		.byte	0
 12520 24c5 00       		.byte	0
 12521 24c6 00       		.byte	0
GAS LISTING /tmp/ccjfHZuC.s 			page 248


 12522 24c7 00       		.byte	0
 12523 24c8 00       		.byte	0
 12524 24c9 00       		.byte	0
 12525 24ca 00       		.byte	0
 12526 24cb 00       		.byte	0
 12527 24cc 00       		.byte	0
 12528 24cd 00       		.byte	0
 12529 24ce 00       		.byte	0
 12530 24cf 00       		.byte	0
 12531 24d0 00       		.byte	0
 12532 24d1 00       		.byte	0
 12533 24d2 00       		.byte	0
 12534 24d3 00       		.byte	0
 12535 24d4 00       		.byte	0
 12536 24d5 00       		.byte	0
 12537 24d6 00       		.byte	0
 12538 24d7 00       		.byte	0
 12539 24d8 00       		.byte	0
 12540 24d9 00       		.byte	0
 12541 24da 00       		.byte	0
 12542 24db 00       		.byte	0
 12543 24dc 00       		.byte	0
 12544 24dd 00       		.byte	0
 12545 24de 00       		.byte	0
 12546 24df 00       		.byte	0
 12547 24e0 00       		.byte	0
 12548 24e1 00       		.byte	0
 12549 24e2 00       		.byte	0
 12550 24e3 00       		.byte	0
 12551 24e4 00       		.byte	0
 12552 24e5 00       		.byte	0
 12553 24e6 00       		.byte	0
 12554 24e7 00       		.byte	0
 12555 24e8 00       		.byte	0
 12556 24e9 00       		.byte	0
 12557 24ea 00       		.byte	0
 12558 24eb 00       		.byte	0
 12559 24ec 00       		.byte	0
 12560 24ed 00       		.byte	0
 12561 24ee 00       		.byte	0
 12562 24ef 00       		.byte	0
 12563 24f0 00       		.byte	0
 12564 24f1 00       		.byte	0
 12565 24f2 00       		.byte	0
 12566 24f3 00       		.byte	0
 12567 24f4 00       		.byte	0
 12568 24f5 00       		.byte	0
 12569 24f6 00       		.byte	0
 12570 24f7 00       		.byte	0
 12571 24f8 00       		.byte	0
 12572 24f9 00       		.byte	0
 12573 24fa 00       		.byte	0
 12574 24fb 00       		.byte	0
 12575 24fc 00       		.byte	0
 12576 24fd 00       		.byte	0
 12577 24fe 00       		.byte	0
 12578 24ff 00       		.byte	0
GAS LISTING /tmp/ccjfHZuC.s 			page 249


 12579 2500 00       		.byte	0
 12580 2501 00       		.byte	0
 12581 2502 00       		.byte	0
 12582 2503 00       		.byte	0
 12583 2504 00       		.byte	0
 12584 2505 00       		.byte	0
 12585 2506 00       		.byte	0
 12586 2507 00       		.byte	0
 12587 2508 00       		.byte	0
 12588 2509 00       		.byte	0
 12589 250a 00       		.byte	0
 12590 250b 00       		.byte	0
 12591 250c 00       		.byte	0
 12592 250d 00       		.byte	0
 12593 250e 00       		.byte	0
 12594 250f 00       		.byte	0
 12595 2510 00       		.byte	0
 12596 2511 00       		.byte	0
 12597 2512 00       		.byte	0
 12598 2513 00       		.byte	0
 12599 2514 00       		.byte	0
 12600 2515 00       		.byte	0
 12601 2516 00       		.byte	0
 12602 2517 00       		.byte	0
 12603 2518 00       		.byte	0
 12604 2519 00       		.byte	0
 12605 251a 00       		.byte	0
 12606 251b 00       		.byte	0
 12607 251c 00       		.byte	0
 12608 251d 00       		.byte	0
 12609 251e 00       		.byte	0
 12610 251f 00       		.byte	0
 12611 2520 00       		.byte	0
 12612 2521 00       		.byte	0
 12613 2522 00       		.byte	0
 12614 2523 00       		.byte	0
 12615 2524 00       		.byte	0
 12616 2525 00       		.byte	0
 12617 2526 00       		.byte	0
 12618 2527 00       		.byte	0
 12619 2528 00       		.byte	0
 12620 2529 00       		.byte	0
 12621 252a 00       		.byte	0
 12622 252b 00       		.byte	0
 12623 252c 00       		.byte	0
 12624 252d 00       		.byte	0
 12625 252e 00       		.byte	0
 12626 252f 00       		.byte	0
 12627 2530 00       		.byte	0
 12628 2531 00       		.byte	0
 12629 2532 00       		.byte	0
 12630 2533 00       		.byte	0
 12631 2534 00       		.byte	0
 12632 2535 00       		.byte	0
 12633 2536 00       		.byte	0
 12634 2537 00       		.byte	0
 12635 2538 00       		.byte	0
GAS LISTING /tmp/ccjfHZuC.s 			page 250


 12636 2539 00       		.byte	0
 12637 253a 00       		.byte	0
 12638 253b 00       		.byte	0
 12639 253c 00       		.byte	0
 12640 253d 00       		.byte	0
 12641 253e 00       		.byte	0
 12642 253f 00       		.byte	0
 12643 2540 00       		.byte	0
 12644 2541 00       		.byte	0
 12645 2542 00       		.byte	0
 12646 2543 00       		.byte	0
 12647 2544 00       		.byte	0
 12648 2545 00       		.byte	0
 12649 2546 00       		.byte	0
 12650 2547 00       		.byte	0
 12651 2548 00       		.byte	0
 12652 2549 00       		.byte	0
 12653 254a 00       		.byte	0
 12654 254b 00       		.byte	0
 12655 254c 00       		.byte	0
 12656 254d 00       		.byte	0
 12657 254e 00       		.byte	0
 12658 254f 00       		.byte	0
 12659 2550 00       		.byte	0
 12660 2551 00       		.byte	0
 12661 2552 00       		.byte	0
 12662 2553 00       		.byte	0
 12663 2554 00       		.byte	0
 12664 2555 00       		.byte	0
 12665 2556 00       		.byte	0
 12666 2557 00       		.byte	0
 12667 2558 00       		.byte	0
 12668 2559 00       		.byte	0
 12669 255a 00       		.byte	0
 12670 255b 00       		.byte	0
 12671 255c 00       		.byte	0
 12672 255d 00       		.byte	0
 12673 255e 00       		.byte	0
 12674 255f 00       		.byte	0
 12675 2560 00       		.byte	0
 12676 2561 00       		.byte	0
 12677 2562 00       		.byte	0
 12678 2563 00       		.byte	0
 12679 2564 00       		.byte	0
 12680 2565 00       		.byte	0
 12681 2566 00       		.byte	0
 12682 2567 00       		.byte	0
 12683 2568 00       		.byte	0
 12684 2569 00       		.byte	0
 12685 256a 00       		.byte	0
 12686 256b 00       		.byte	0
 12687 256c 00       		.byte	0
 12688 256d 00       		.byte	0
 12689 256e 00       		.byte	0
 12690 256f 00       		.byte	0
 12691 2570 00       		.byte	0
 12692 2571 00       		.byte	0
GAS LISTING /tmp/ccjfHZuC.s 			page 251


 12693 2572 00       		.byte	0
 12694 2573 00       		.byte	0
 12695 2574 00       		.byte	0
 12696 2575 00       		.byte	0
 12697 2576 00       		.byte	0
 12698 2577 00       		.byte	0
 12699 2578 00       		.byte	0
 12700 2579 00       		.byte	0
 12701 257a 00       		.byte	0
 12702 257b 00       		.byte	0
 12703 257c 00       		.byte	0
 12704 257d 00       		.byte	0
 12705 257e 00       		.byte	0
 12706 257f 00       		.byte	0
 12707 2580 00       		.byte	0
 12708 2581 00       		.byte	0
 12709 2582 00       		.byte	0
 12710 2583 00       		.byte	0
 12711 2584 00       		.byte	0
 12712 2585 00       		.byte	0
 12713 2586 00       		.byte	0
 12714 2587 00       		.byte	0
 12715 2588 00       		.byte	0
 12716 2589 00       		.byte	0
 12717 258a 00       		.byte	0
 12718 258b 00       		.byte	0
 12719 258c 00       		.byte	0
 12720 258d 00       		.byte	0
 12721 258e 00       		.byte	0
 12722 258f 00       		.byte	0
 12723 2590 00       		.byte	0
 12724 2591 00       		.byte	0
 12725 2592 00       		.byte	0
 12726 2593 00       		.byte	0
 12727 2594 00       		.byte	0
 12728 2595 00       		.byte	0
 12729 2596 00       		.byte	0
 12730 2597 00       		.byte	0
 12731 2598 00       		.byte	0
 12732 2599 00       		.byte	0
 12733 259a 00       		.byte	0
 12734 259b 00       		.byte	0
 12735 259c 00       		.byte	0
 12736 259d 00       		.byte	0
 12737 259e 00       		.byte	0
 12738 259f 00       		.byte	0
 12739 25a0 00       		.byte	0
 12740 25a1 00       		.byte	0
 12741 25a2 00       		.byte	0
 12742 25a3 00       		.byte	0
 12743 25a4 00       		.byte	0
 12744 25a5 00       		.byte	0
 12745 25a6 00       		.byte	0
 12746 25a7 00       		.byte	0
 12747 25a8 00       		.byte	0
 12748 25a9 00       		.byte	0
 12749 25aa 00       		.byte	0
GAS LISTING /tmp/ccjfHZuC.s 			page 252


 12750 25ab 00       		.byte	0
 12751 25ac 00       		.byte	0
 12752 25ad 00       		.byte	0
 12753 25ae 00       		.byte	0
 12754 25af 00       		.byte	0
 12755 25b0 00       		.byte	0
 12756 25b1 00       		.byte	0
 12757 25b2 00       		.byte	0
 12758 25b3 00       		.byte	0
 12759 25b4 00       		.byte	0
 12760 25b5 00       		.byte	0
 12761 25b6 00       		.byte	0
 12762 25b7 00       		.byte	0
 12763 25b8 00       		.byte	0
 12764 25b9 00       		.byte	0
 12765 25ba 00       		.byte	0
 12766 25bb 00       		.byte	0
 12767 25bc 00       		.byte	0
 12768 25bd 00       		.byte	0
 12769 25be 00       		.byte	0
 12770 25bf 00       		.byte	0
 12771 25c0 00       		.byte	0
 12772 25c1 00       		.byte	0
 12773 25c2 00       		.byte	0
 12774 25c3 00       		.byte	0
 12775 25c4 00       		.byte	0
 12776 25c5 00       		.byte	0
 12777 25c6 00       		.byte	0
 12778 25c7 00       		.byte	0
 12779 25c8 00       		.byte	0
 12780 25c9 00       		.byte	0
 12781 25ca 00       		.byte	0
 12782 25cb 00       		.byte	0
 12783 25cc 00       		.byte	0
 12784 25cd 00       		.byte	0
 12785 25ce 00       		.byte	0
 12786 25cf 00       		.byte	0
 12787 25d0 00       		.byte	0
 12788 25d1 00       		.byte	0
 12789 25d2 00       		.byte	0
 12790 25d3 00       		.byte	0
 12791 25d4 00       		.byte	0
 12792 25d5 00       		.byte	0
 12793 25d6 00       		.byte	0
 12794 25d7 00       		.byte	0
 12795 25d8 00       		.byte	0
 12796 25d9 00       		.byte	0
 12797 25da 00       		.byte	0
 12798 25db 00       		.byte	0
 12799 25dc 00       		.byte	0
 12800 25dd 00       		.byte	0
 12801 25de 00       		.byte	0
 12802 25df 00       		.byte	0
 12803 25e0 00       		.byte	0
 12804 25e1 00       		.byte	0
 12805 25e2 00       		.byte	0
 12806 25e3 00       		.byte	0
GAS LISTING /tmp/ccjfHZuC.s 			page 253


 12807 25e4 00       		.byte	0
 12808 25e5 00       		.byte	0
 12809 25e6 00       		.byte	0
 12810 25e7 00       		.byte	0
 12811 25e8 00       		.byte	0
 12812 25e9 00       		.byte	0
 12813 25ea 00       		.byte	0
 12814 25eb 00       		.byte	0
 12815 25ec 00       		.byte	0
 12816 25ed 00       		.byte	0
 12817 25ee 00       		.byte	0
 12818 25ef 00       		.byte	0
 12819 25f0 00       		.byte	0
 12820 25f1 00       		.byte	0
 12821 25f2 00       		.byte	0
 12822 25f3 00       		.byte	0
 12823 25f4 00       		.byte	0
 12824 25f5 00       		.byte	0
 12825 25f6 00       		.byte	0
 12826 25f7 00       		.byte	0
 12827 25f8 00       		.byte	0
 12828 25f9 00       		.byte	0
 12829 25fa 00       		.byte	0
 12830 25fb 00       		.byte	0
 12831 25fc 00       		.byte	0
 12832 25fd 00       		.byte	0
 12833 25fe 00       		.byte	0
 12834 25ff 00       		.byte	0
 12835 2600 00       		.byte	0
 12836 2601 00       		.byte	0
 12837 2602 00       		.byte	0
 12838 2603 00       		.byte	0
 12839 2604 00       		.byte	0
 12840 2605 00       		.byte	0
 12841 2606 00       		.byte	0
 12842 2607 00       		.byte	0
 12843 2608 00       		.byte	0
 12844 2609 00       		.byte	0
 12845 260a 00       		.byte	0
 12846 260b 00       		.byte	0
 12847 260c 00       		.byte	0
 12848 260d 00       		.byte	0
 12849 260e 00       		.byte	0
 12850 260f 00       		.byte	0
 12851 2610 00       		.byte	0
 12852 2611 00       		.byte	0
 12853 2612 00       		.byte	0
 12854 2613 00       		.byte	0
 12855 2614 00       		.byte	0
 12856 2615 00       		.byte	0
 12857 2616 00       		.byte	0
 12858 2617 00       		.byte	0
 12859 2618 00       		.byte	0
 12860 2619 00       		.byte	0
 12861 261a 00       		.byte	0
 12862 261b 00       		.byte	0
 12863 261c 00       		.byte	0
GAS LISTING /tmp/ccjfHZuC.s 			page 254


 12864 261d 00       		.byte	0
 12865 261e 00       		.byte	0
 12866 261f 00       		.byte	0
 12867 2620 00       		.byte	0
 12868 2621 00       		.byte	0
 12869 2622 00       		.byte	0
 12870 2623 00       		.byte	0
 12871 2624 00       		.byte	0
 12872 2625 00       		.byte	0
 12873 2626 00       		.byte	0
 12874 2627 00       		.byte	0
 12875 2628 00       		.byte	0
 12876 2629 00       		.byte	0
 12877 262a 00       		.byte	0
 12878 262b 00       		.byte	0
 12879 262c 00       		.byte	0
 12880 262d 00       		.byte	0
 12881 262e 00       		.byte	0
 12882 262f 00       		.byte	0
 12883 2630 00       		.byte	0
 12884 2631 00       		.byte	0
 12885 2632 00       		.byte	0
 12886 2633 00       		.byte	0
 12887 2634 00       		.byte	0
 12888 2635 00       		.byte	0
 12889 2636 00       		.byte	0
 12890 2637 00       		.byte	0
 12891 2638 00       		.byte	0
 12892 2639 00       		.byte	0
 12893 263a 00       		.byte	0
 12894 263b 00       		.byte	0
 12895 263c 00       		.byte	0
 12896 263d 00       		.byte	0
 12897 263e 00       		.byte	0
 12898 263f 00       		.byte	0
 12899 2640 00       		.byte	0
 12900 2641 00       		.byte	0
 12901 2642 00       		.byte	0
 12902 2643 00       		.byte	0
 12903 2644 00       		.byte	0
 12904 2645 00       		.byte	0
 12905 2646 00       		.byte	0
 12906 2647 00       		.byte	0
 12907 2648 00       		.byte	0
 12908 2649 00       		.byte	0
 12909 264a 00       		.byte	0
 12910 264b 00       		.byte	0
 12911 264c 00       		.byte	0
 12912 264d 00       		.byte	0
 12913 264e 00       		.byte	0
 12914 264f 00       		.byte	0
 12915 2650 00       		.byte	0
 12916 2651 00       		.byte	0
 12917 2652 00       		.byte	0
 12918 2653 00       		.byte	0
 12919 2654 00       		.byte	0
 12920 2655 00       		.byte	0
GAS LISTING /tmp/ccjfHZuC.s 			page 255


 12921 2656 00       		.byte	0
 12922 2657 00       		.byte	0
 12923 2658 00       		.byte	0
 12924 2659 00       		.byte	0
 12925 265a 00       		.byte	0
 12926 265b 00       		.byte	0
 12927 265c 00       		.byte	0
 12928 265d 00       		.byte	0
 12929 265e 00       		.byte	0
 12930 265f 00       		.byte	0
 12931 2660 00       		.byte	0
 12932 2661 00       		.byte	0
 12933 2662 00       		.byte	0
 12934 2663 00       		.byte	0
 12935 2664 00       		.byte	0
 12936 2665 00       		.byte	0
 12937 2666 00       		.byte	0
 12938 2667 00       		.byte	0
 12939 2668 00       		.byte	0
 12940 2669 00       		.byte	0
 12941 266a 00       		.byte	0
 12942 266b 00       		.byte	0
 12943 266c 00       		.byte	0
 12944 266d 00       		.byte	0
 12945 266e 00       		.byte	0
 12946 266f 00       		.byte	0
 12947 2670 00       		.byte	0
 12948 2671 00       		.byte	0
 12949 2672 00       		.byte	0
 12950 2673 00       		.byte	0
 12951 2674 00       		.byte	0
 12952 2675 00       		.byte	0
 12953 2676 00       		.byte	0
 12954 2677 00       		.byte	0
 12955 2678 00       		.byte	0
 12956 2679 00       		.byte	0
 12957 267a 00       		.byte	0
 12958 267b 00       		.byte	0
 12959 267c 00       		.byte	0
 12960 267d 00       		.byte	0
 12961 267e 00       		.byte	0
 12962 267f 00       		.byte	0
 12963 2680 00       		.byte	0
 12964 2681 00       		.byte	0
 12965 2682 00       		.byte	0
 12966 2683 00       		.byte	0
 12967 2684 00       		.byte	0
 12968 2685 00       		.byte	0
 12969 2686 00       		.byte	0
 12970 2687 00       		.byte	0
 12971 2688 00       		.byte	0
 12972 2689 00       		.byte	0
 12973 268a 00       		.byte	0
 12974 268b 00       		.byte	0
 12975 268c 00       		.byte	0
 12976 268d 00       		.byte	0
 12977 268e 00       		.byte	0
GAS LISTING /tmp/ccjfHZuC.s 			page 256


 12978 268f 00       		.byte	0
 12979 2690 00       		.byte	0
 12980 2691 00       		.byte	0
 12981 2692 00       		.byte	0
 12982 2693 00       		.byte	0
 12983 2694 00       		.byte	0
 12984 2695 00       		.byte	0
 12985 2696 00       		.byte	0
 12986 2697 00       		.byte	0
 12987 2698 00       		.byte	0
 12988 2699 00       		.byte	0
 12989 269a 00       		.byte	0
 12990 269b 00       		.byte	0
 12991 269c 00       		.byte	0
 12992 269d 00       		.byte	0
 12993 269e 00       		.byte	0
 12994 269f 00       		.byte	0
 12995 26a0 00       		.byte	0
 12996 26a1 00       		.byte	0
 12997 26a2 00       		.byte	0
 12998 26a3 00       		.byte	0
 12999 26a4 00       		.byte	0
 13000 26a5 00       		.byte	0
 13001 26a6 00       		.byte	0
 13002 26a7 00       		.byte	0
 13003 26a8 00       		.byte	0
 13004 26a9 00       		.byte	0
 13005 26aa 00       		.byte	0
 13006 26ab 00       		.byte	0
 13007 26ac 00       		.byte	0
 13008 26ad 00       		.byte	0
 13009 26ae 00       		.byte	0
 13010 26af 00       		.byte	0
 13011 26b0 00       		.byte	0
 13012 26b1 00       		.byte	0
 13013 26b2 00       		.byte	0
 13014 26b3 00       		.byte	0
 13015 26b4 00       		.byte	0
 13016 26b5 00       		.byte	0
 13017 26b6 00       		.byte	0
 13018 26b7 00       		.byte	0
 13019 26b8 00       		.byte	0
 13020 26b9 00       		.byte	0
 13021 26ba 00       		.byte	0
 13022 26bb 00       		.byte	0
 13023 26bc 00       		.byte	0
 13024 26bd 00       		.byte	0
 13025 26be 00       		.byte	0
 13026 26bf 00       		.byte	0
 13027 26c0 00       		.byte	0
 13028 26c1 00       		.byte	0
 13029 26c2 00       		.byte	0
 13030 26c3 00       		.byte	0
 13031 26c4 00       		.byte	0
 13032 26c5 00       		.byte	0
 13033 26c6 00       		.byte	0
 13034 26c7 00       		.byte	0
GAS LISTING /tmp/ccjfHZuC.s 			page 257


 13035 26c8 00       		.byte	0
 13036 26c9 00       		.byte	0
 13037 26ca 00       		.byte	0
 13038 26cb 00       		.byte	0
 13039 26cc 00       		.byte	0
 13040 26cd 00       		.byte	0
 13041 26ce 00       		.byte	0
 13042 26cf 00       		.byte	0
 13043 26d0 00       		.byte	0
 13044 26d1 00       		.byte	0
 13045 26d2 00       		.byte	0
 13046 26d3 00       		.byte	0
 13047 26d4 00       		.byte	0
 13048 26d5 00       		.byte	0
 13049 26d6 00       		.byte	0
 13050 26d7 00       		.byte	0
 13051 26d8 00       		.byte	0
 13052 26d9 00       		.byte	0
 13053 26da 00       		.byte	0
 13054 26db 00       		.byte	0
 13055 26dc 00       		.byte	0
 13056 26dd 00       		.byte	0
 13057 26de 00       		.byte	0
 13058 26df 00       		.byte	0
 13059 26e0 00       		.byte	0
 13060 26e1 00       		.byte	0
 13061 26e2 00       		.byte	0
 13062 26e3 00       		.byte	0
 13063 26e4 00       		.byte	0
 13064 26e5 00       		.byte	0
 13065 26e6 00       		.byte	0
 13066 26e7 00       		.byte	0
 13067 26e8 00       		.byte	0
 13068 26e9 00       		.byte	0
 13069 26ea 00       		.byte	0
 13070 26eb 00       		.byte	0
 13071 26ec 00       		.byte	0
 13072 26ed 00       		.byte	0
 13073 26ee 00       		.byte	0
 13074 26ef 00       		.byte	0
 13075 26f0 00       		.byte	0
 13076 26f1 00       		.byte	0
 13077 26f2 00       		.byte	0
 13078 26f3 00       		.byte	0
 13079 26f4 00       		.byte	0
 13080 26f5 00       		.byte	0
 13081 26f6 00       		.byte	0
 13082 26f7 00       		.byte	0
 13083 26f8 00       		.byte	0
 13084 26f9 00       		.byte	0
 13085 26fa 00       		.byte	0
 13086 26fb 00       		.byte	0
 13087 26fc 00       		.byte	0
 13088 26fd 00       		.byte	0
 13089 26fe 00       		.byte	0
 13090 26ff 00       		.byte	0
 13091 2700 00       		.byte	0
GAS LISTING /tmp/ccjfHZuC.s 			page 258


 13092 2701 00       		.byte	0
 13093 2702 00       		.byte	0
 13094 2703 00       		.byte	0
 13095 2704 00       		.byte	0
 13096 2705 00       		.byte	0
 13097 2706 00       		.byte	0
 13098 2707 00       		.byte	0
 13099 2708 00       		.byte	0
 13100 2709 00       		.byte	0
 13101 270a 00       		.byte	0
 13102 270b 00       		.byte	0
 13103 270c 00       		.byte	0
 13104 270d 00       		.byte	0
 13105 270e 00       		.byte	0
 13106 270f 00       		.byte	0
 13107 2710 00       		.byte	0
 13108 2711 00       		.byte	0
 13109 2712 00       		.byte	0
 13110 2713 00       		.byte	0
 13111 2714 00       		.byte	0
 13112 2715 00       		.byte	0
 13113 2716 00       		.byte	0
 13114 2717 00       		.byte	0
 13115 2718 00       		.byte	0
 13116 2719 00       		.byte	0
 13117 271a 00       		.byte	0
 13118 271b 00       		.byte	0
 13119 271c 00       		.byte	0
 13120 271d 00       		.byte	0
 13121 271e 00       		.byte	0
 13122 271f 00       		.byte	0
 13123 2720 00       		.byte	0
 13124 2721 00       		.byte	0
 13125 2722 00       		.byte	0
 13126 2723 00       		.byte	0
 13127 2724 00       		.byte	0
 13128 2725 00       		.byte	0
 13129 2726 00       		.byte	0
 13130 2727 00       		.byte	0
 13131 2728 00       		.byte	0
 13132 2729 00       		.byte	0
 13133 272a 00       		.byte	0
 13134 272b 00       		.byte	0
 13135 272c 00       		.byte	0
 13136 272d 00       		.byte	0
 13137 272e 00       		.byte	0
 13138 272f 00       		.byte	0
 13139 2730 00       		.byte	0
 13140 2731 00       		.byte	0
 13141 2732 00       		.byte	0
 13142 2733 00       		.byte	0
 13143 2734 00       		.byte	0
 13144 2735 00       		.byte	0
 13145 2736 00       		.byte	0
 13146 2737 00       		.byte	0
 13147 2738 00       		.byte	0
 13148 2739 00       		.byte	0
GAS LISTING /tmp/ccjfHZuC.s 			page 259


 13149 273a 00       		.byte	0
 13150 273b 00       		.byte	0
 13151 273c 00       		.byte	0
 13152 273d 00       		.byte	0
 13153 273e 00       		.byte	0
 13154 273f 00       		.byte	0
 13155 2740 00       		.byte	0
 13156 2741 00       		.byte	0
 13157 2742 00       		.byte	0
 13158 2743 00       		.byte	0
 13159 2744 00       		.byte	0
 13160 2745 00       		.byte	0
 13161 2746 00       		.byte	0
 13162 2747 00       		.byte	0
 13163 2748 00       		.byte	0
 13164 2749 00       		.byte	0
 13165 274a 00       		.byte	0
 13166 274b 00       		.byte	0
 13167 274c 00       		.byte	0
 13168 274d 00       		.byte	0
 13169 274e 00       		.byte	0
 13170 274f 00       		.byte	0
 13171 2750 00       		.byte	0
 13172 2751 00       		.byte	0
 13173 2752 00       		.byte	0
 13174 2753 00       		.byte	0
 13175 2754 00       		.byte	0
 13176 2755 00       		.byte	0
 13177 2756 00       		.byte	0
 13178 2757 00       		.byte	0
 13179 2758 00       		.byte	0
 13180 2759 00       		.byte	0
 13181 275a 00       		.byte	0
 13182 275b 00       		.byte	0
 13183 275c 00       		.byte	0
 13184 275d 00       		.byte	0
 13185 275e 00       		.byte	0
 13186 275f 00       		.byte	0
 13187 2760 00       		.byte	0
 13188 2761 00       		.byte	0
 13189 2762 00       		.byte	0
 13190 2763 00       		.byte	0
 13191 2764 00       		.byte	0
 13192 2765 00       		.byte	0
 13193 2766 00       		.byte	0
 13194 2767 00       		.byte	0
 13195 2768 00       		.byte	0
 13196 2769 00       		.byte	0
 13197 276a 00       		.byte	0
 13198 276b 00       		.byte	0
 13199 276c 00       		.byte	0
 13200 276d 00       		.byte	0
 13201 276e 00       		.byte	0
 13202 276f 00       		.byte	0
 13203 2770 00       		.byte	0
 13204 2771 00       		.byte	0
 13205 2772 00       		.byte	0
GAS LISTING /tmp/ccjfHZuC.s 			page 260


 13206 2773 00       		.byte	0
 13207 2774 00       		.byte	0
 13208 2775 00       		.byte	0
 13209 2776 00       		.byte	0
 13210 2777 00       		.byte	0
 13211 2778 00       		.byte	0
 13212 2779 00       		.byte	0
 13213 277a 00       		.byte	0
 13214 277b 00       		.byte	0
 13215 277c 00       		.byte	0
 13216 277d 00       		.byte	0
 13217 277e 00       		.byte	0
 13218 277f 00       		.byte	0
 13219 2780 00       		.byte	0
 13220 2781 00       		.byte	0
 13221 2782 00       		.byte	0
 13222 2783 00       		.byte	0
 13223 2784 00       		.byte	0
 13224 2785 00       		.byte	0
 13225 2786 00       		.byte	0
 13226 2787 00       		.byte	0
 13227 2788 00       		.byte	0
 13228 2789 00       		.byte	0
 13229 278a 00       		.byte	0
 13230 278b 00       		.byte	0
 13231 278c 00       		.byte	0
 13232 278d 00       		.byte	0
 13233 278e 00       		.byte	0
 13234 278f 00       		.byte	0
 13235 2790 00       		.byte	0
 13236 2791 00       		.byte	0
 13237 2792 00       		.byte	0
 13238 2793 00       		.byte	0
 13239 2794 00       		.byte	0
 13240 2795 00       		.byte	0
 13241 2796 00       		.byte	0
 13242 2797 00       		.byte	0
 13243 2798 00       		.byte	0
 13244 2799 00       		.byte	0
 13245 279a 00       		.byte	0
 13246 279b 00       		.byte	0
 13247 279c 00       		.byte	0
 13248 279d 00       		.byte	0
 13249 279e 00       		.byte	0
 13250 279f 00       		.byte	0
 13251 27a0 00       		.byte	0
 13252 27a1 00       		.byte	0
 13253 27a2 00       		.byte	0
 13254 27a3 00       		.byte	0
 13255 27a4 00       		.byte	0
 13256 27a5 00       		.byte	0
 13257 27a6 00       		.byte	0
 13258 27a7 00       		.byte	0
 13259 27a8 00       		.byte	0
 13260 27a9 00       		.byte	0
 13261 27aa 00       		.byte	0
 13262 27ab 00       		.byte	0
GAS LISTING /tmp/ccjfHZuC.s 			page 261


 13263 27ac 00       		.byte	0
 13264 27ad 00       		.byte	0
 13265 27ae 00       		.byte	0
 13266 27af 00       		.byte	0
 13267 27b0 00       		.byte	0
 13268 27b1 00       		.byte	0
 13269 27b2 00       		.byte	0
 13270 27b3 00       		.byte	0
 13271 27b4 00       		.byte	0
 13272 27b5 00       		.byte	0
 13273 27b6 00       		.byte	0
 13274 27b7 00       		.byte	0
 13275 27b8 00       		.byte	0
 13276 27b9 00       		.byte	0
 13277 27ba 00       		.byte	0
 13278 27bb 00       		.byte	0
 13279 27bc 00       		.byte	0
 13280 27bd 00       		.byte	0
 13281 27be 00       		.byte	0
 13282 27bf 00       		.byte	0
 13283 27c0 00       		.byte	0
 13284 27c1 00       		.byte	0
 13285 27c2 00       		.byte	0
 13286 27c3 00       		.byte	0
 13287 27c4 00       		.byte	0
 13288 27c5 00       		.byte	0
 13289 27c6 00       		.byte	0
 13290 27c7 00       		.byte	0
 13291 27c8 00       		.byte	0
 13292 27c9 00       		.byte	0
 13293 27ca 00       		.byte	0
 13294 27cb 00       		.byte	0
 13295 27cc 00       		.byte	0
 13296 27cd 00       		.byte	0
 13297 27ce 00       		.byte	0
 13298 27cf 00       		.byte	0
 13299 27d0 00       		.byte	0
 13300 27d1 00       		.byte	0
 13301 27d2 00       		.byte	0
 13302 27d3 00       		.byte	0
 13303 27d4 00       		.byte	0
 13304 27d5 00       		.byte	0
 13305 27d6 00       		.byte	0
 13306 27d7 00       		.byte	0
 13307 27d8 00       		.byte	0
 13308 27d9 00       		.byte	0
 13309 27da 00       		.byte	0
 13310 27db 00       		.byte	0
 13311 27dc 00       		.byte	0
 13312 27dd 00       		.byte	0
 13313 27de 00       		.byte	0
 13314 27df 00       		.byte	0
 13315 27e0 00       		.byte	0
 13316 27e1 00       		.byte	0
 13317 27e2 00       		.byte	0
 13318 27e3 00       		.byte	0
 13319 27e4 00       		.byte	0
GAS LISTING /tmp/ccjfHZuC.s 			page 262


 13320 27e5 00       		.byte	0
 13321 27e6 00       		.byte	0
 13322 27e7 00       		.byte	0
 13323 27e8 00       		.byte	0
 13324 27e9 00       		.byte	0
 13325 27ea 00       		.byte	0
 13326 27eb 00       		.byte	0
 13327 27ec 00       		.byte	0
 13328 27ed 00       		.byte	0
 13329 27ee 00       		.byte	0
 13330 27ef 00       		.byte	0
 13331 27f0 00       		.byte	0
 13332 27f1 00       		.byte	0
 13333 27f2 00       		.byte	0
 13334 27f3 00       		.byte	0
 13335 27f4 00       		.byte	0
 13336 27f5 00       		.byte	0
 13337 27f6 00       		.byte	0
 13338 27f7 00       		.byte	0
 13339 27f8 00       		.byte	0
 13340 27f9 00       		.byte	0
 13341 27fa 00       		.byte	0
 13342 27fb 00       		.byte	0
 13343 27fc 00       		.byte	0
 13344 27fd 00       		.byte	0
 13345 27fe 00       		.byte	0
 13346 27ff 00       		.byte	0
 13347 2800 00       		.byte	0
 13348 2801 00       		.byte	0
 13349 2802 00       		.byte	0
 13350 2803 00       		.byte	0
 13351 2804 00       		.byte	0
 13352 2805 00       		.byte	0
 13353 2806 00       		.byte	0
 13354 2807 00       		.byte	0
 13355 2808 00       		.byte	0
 13356 2809 00       		.byte	0
 13357 280a 00       		.byte	0
 13358 280b 00       		.byte	0
 13359 280c 00       		.byte	0
 13360 280d 00       		.byte	0
 13361 280e 00       		.byte	0
 13362 280f 00       		.byte	0
 13363 2810 00       		.byte	0
 13364 2811 00       		.byte	0
 13365 2812 00       		.byte	0
 13366 2813 00       		.byte	0
 13367 2814 00       		.byte	0
 13368 2815 00       		.byte	0
 13369 2816 00       		.byte	0
 13370 2817 00       		.byte	0
 13371 2818 00       		.byte	0
 13372 2819 00       		.byte	0
 13373 281a 00       		.byte	0
 13374 281b 00       		.byte	0
 13375 281c 00       		.byte	0
 13376 281d 00       		.byte	0
GAS LISTING /tmp/ccjfHZuC.s 			page 263


 13377 281e 00       		.byte	0
 13378 281f 00       		.byte	0
 13379 2820 00       		.byte	0
 13380 2821 00       		.byte	0
 13381 2822 00       		.byte	0
 13382 2823 00       		.byte	0
 13383 2824 00       		.byte	0
 13384 2825 00       		.byte	0
 13385 2826 00       		.byte	0
 13386 2827 00       		.byte	0
 13387 2828 00       		.byte	0
 13388 2829 00       		.byte	0
 13389 282a 00       		.byte	0
 13390 282b 00       		.byte	0
 13391 282c 00       		.byte	0
 13392 282d 00       		.byte	0
 13393 282e 00       		.byte	0
 13394 282f 00       		.byte	0
 13395 2830 00       		.byte	0
 13396 2831 00       		.byte	0
 13397 2832 00       		.byte	0
 13398 2833 00       		.byte	0
 13399 2834 00       		.byte	0
 13400 2835 00       		.byte	0
 13401 2836 00       		.byte	0
 13402 2837 00       		.byte	0
 13403 2838 00       		.byte	0
 13404 2839 00       		.byte	0
 13405 283a 00       		.byte	0
 13406 283b 00       		.byte	0
 13407 283c 00       		.byte	0
 13408 283d 00       		.byte	0
 13409 283e 00       		.byte	0
 13410 283f 00       		.byte	0
 13411 2840 00       		.byte	0
 13412 2841 00       		.byte	0
 13413 2842 00       		.byte	0
 13414 2843 00       		.byte	0
 13415 2844 00       		.byte	0
 13416 2845 00       		.byte	0
 13417 2846 00       		.byte	0
 13418 2847 00       		.byte	0
 13419 2848 00       		.byte	0
 13420 2849 00       		.byte	0
 13421 284a 00       		.byte	0
 13422 284b 00       		.byte	0
 13423 284c 00       		.byte	0
 13424 284d 00       		.byte	0
 13425 284e 00       		.byte	0
 13426 284f 00       		.byte	0
 13427 2850 00       		.byte	0
 13428 2851 00       		.byte	0
 13429 2852 00       		.byte	0
 13430 2853 00       		.byte	0
 13431 2854 00       		.byte	0
 13432 2855 00       		.byte	0
 13433 2856 00       		.byte	0
GAS LISTING /tmp/ccjfHZuC.s 			page 264


 13434 2857 00       		.byte	0
 13435 2858 00       		.byte	0
 13436 2859 00       		.byte	0
 13437 285a 00       		.byte	0
 13438 285b 00       		.byte	0
 13439 285c 00       		.byte	0
 13440 285d 00       		.byte	0
 13441 285e 00       		.byte	0
 13442 285f 00       		.byte	0
 13443 2860 00       		.byte	0
 13444 2861 00       		.byte	0
 13445 2862 00       		.byte	0
 13446 2863 00       		.byte	0
 13447 2864 00       		.byte	0
 13448 2865 00       		.byte	0
 13449 2866 00       		.byte	0
 13450 2867 00       		.byte	0
 13451 2868 00       		.byte	0
 13452 2869 00       		.byte	0
 13453 286a 00       		.byte	0
 13454 286b 00       		.byte	0
 13455 286c 00       		.byte	0
 13456 286d 00       		.byte	0
 13457 286e 00       		.byte	0
 13458 286f 00       		.byte	0
 13459 2870 00       		.byte	0
 13460 2871 00       		.byte	0
 13461 2872 00       		.byte	0
 13462 2873 00       		.byte	0
 13463 2874 00       		.byte	0
 13464 2875 00       		.byte	0
 13465 2876 00       		.byte	0
 13466 2877 00       		.byte	0
 13467 2878 00       		.byte	0
 13468 2879 00       		.byte	0
 13469 287a 00       		.byte	0
 13470 287b 00       		.byte	0
 13471 287c 00       		.byte	0
 13472 287d 00       		.byte	0
 13473 287e 00       		.byte	0
 13474 287f 00       		.byte	0
 13475 2880 00       		.byte	0
 13476 2881 00       		.byte	0
 13477 2882 00       		.byte	0
 13478 2883 00       		.byte	0
 13479 2884 00       		.byte	0
 13480 2885 00       		.byte	0
 13481 2886 00       		.byte	0
 13482 2887 00       		.byte	0
 13483 2888 00       		.byte	0
 13484 2889 00       		.byte	0
 13485 288a 00       		.byte	0
 13486 288b 00       		.byte	0
 13487 288c 00       		.byte	0
 13488 288d 00       		.byte	0
 13489 288e 00       		.byte	0
 13490 288f 00       		.byte	0
GAS LISTING /tmp/ccjfHZuC.s 			page 265


 13491 2890 00       		.byte	0
 13492 2891 00       		.byte	0
 13493 2892 00       		.byte	0
 13494 2893 00       		.byte	0
 13495 2894 00       		.byte	0
 13496 2895 00       		.byte	0
 13497 2896 00       		.byte	0
 13498 2897 00       		.byte	0
 13499 2898 00       		.byte	0
 13500 2899 00       		.byte	0
 13501 289a 00       		.byte	0
 13502 289b 00       		.byte	0
 13503 289c 00       		.byte	0
 13504 289d 00       		.byte	0
 13505 289e 00       		.byte	0
 13506 289f 00       		.byte	0
 13507 28a0 00       		.byte	0
 13508 28a1 00       		.byte	0
 13509 28a2 00       		.byte	0
 13510 28a3 00       		.byte	0
 13511 28a4 00       		.byte	0
 13512 28a5 00       		.byte	0
 13513 28a6 00       		.byte	0
 13514 28a7 00       		.byte	0
 13515 28a8 00       		.byte	0
 13516 28a9 00       		.byte	0
 13517 28aa 00       		.byte	0
 13518 28ab 00       		.byte	0
 13519 28ac 00       		.byte	0
 13520 28ad 00       		.byte	0
 13521 28ae 00       		.byte	0
 13522 28af 00       		.byte	0
 13523 28b0 00       		.byte	0
 13524 28b1 00       		.byte	0
 13525 28b2 00       		.byte	0
 13526 28b3 00       		.byte	0
 13527 28b4 00       		.byte	0
 13528 28b5 00       		.byte	0
 13529 28b6 00       		.byte	0
 13530 28b7 00       		.byte	0
 13531 28b8 00       		.byte	0
 13532 28b9 00       		.byte	0
 13533 28ba 00       		.byte	0
 13534 28bb 00       		.byte	0
 13535 28bc 00       		.byte	0
 13536 28bd 00       		.byte	0
 13537 28be 00       		.byte	0
 13538 28bf 00       		.byte	0
 13539 28c0 00       		.byte	0
 13540 28c1 00       		.byte	0
 13541 28c2 00       		.byte	0
 13542 28c3 00       		.byte	0
 13543 28c4 00       		.byte	0
 13544 28c5 00       		.byte	0
 13545 28c6 00       		.byte	0
 13546 28c7 00       		.byte	0
 13547 28c8 00       		.byte	0
GAS LISTING /tmp/ccjfHZuC.s 			page 266


 13548 28c9 00       		.byte	0
 13549 28ca 00       		.byte	0
 13550 28cb 00       		.byte	0
 13551 28cc 00       		.byte	0
 13552 28cd 00       		.byte	0
 13553 28ce 00       		.byte	0
 13554 28cf 00       		.byte	0
 13555 28d0 00       		.byte	0
 13556 28d1 00       		.byte	0
 13557 28d2 00       		.byte	0
 13558 28d3 00       		.byte	0
 13559 28d4 00       		.byte	0
 13560 28d5 00       		.byte	0
 13561 28d6 00       		.byte	0
 13562 28d7 00       		.byte	0
 13563 28d8 00       		.byte	0
 13564 28d9 00       		.byte	0
 13565 28da 00       		.byte	0
 13566 28db 00       		.byte	0
 13567 28dc 00       		.byte	0
 13568 28dd 00       		.byte	0
 13569 28de 00       		.byte	0
 13570 28df 00       		.byte	0
 13571 28e0 00       		.byte	0
 13572 28e1 00       		.byte	0
 13573 28e2 00       		.byte	0
 13574 28e3 00       		.byte	0
 13575 28e4 00       		.byte	0
 13576 28e5 00       		.byte	0
 13577 28e6 00       		.byte	0
 13578 28e7 00       		.byte	0
 13579 28e8 00       		.byte	0
 13580 28e9 00       		.byte	0
 13581 28ea 00       		.byte	0
 13582 28eb 00       		.byte	0
 13583 28ec 00       		.byte	0
 13584 28ed 00       		.byte	0
 13585 28ee 00       		.byte	0
 13586 28ef 00       		.byte	0
 13587 28f0 00       		.byte	0
 13588 28f1 00       		.byte	0
 13589 28f2 00       		.byte	0
 13590 28f3 00       		.byte	0
 13591 28f4 00       		.byte	0
 13592 28f5 00       		.byte	0
 13593 28f6 00       		.byte	0
 13594 28f7 00       		.byte	0
 13595 28f8 00       		.byte	0
 13596 28f9 00       		.byte	0
 13597 28fa 00       		.byte	0
 13598 28fb 00       		.byte	0
 13599 28fc 00       		.byte	0
 13600 28fd 00       		.byte	0
 13601 28fe 00       		.byte	0
 13602 28ff 00       		.byte	0
 13603 2900 00       		.byte	0
 13604 2901 00       		.byte	0
GAS LISTING /tmp/ccjfHZuC.s 			page 267


 13605 2902 00       		.byte	0
 13606 2903 00       		.byte	0
 13607 2904 00       		.byte	0
 13608 2905 00       		.byte	0
 13609 2906 00       		.byte	0
 13610 2907 00       		.byte	0
 13611 2908 00       		.byte	0
 13612 2909 00       		.byte	0
 13613 290a 00       		.byte	0
 13614 290b 00       		.byte	0
 13615 290c 00       		.byte	0
 13616 290d 00       		.byte	0
 13617 290e 00       		.byte	0
 13618 290f 00       		.byte	0
 13619 2910 00       		.byte	0
 13620 2911 00       		.byte	0
 13621 2912 00       		.byte	0
 13622 2913 00       		.byte	0
 13623 2914 00       		.byte	0
 13624 2915 00       		.byte	0
 13625 2916 00       		.byte	0
 13626 2917 00       		.byte	0
 13627 2918 00       		.byte	0
 13628 2919 00       		.byte	0
 13629 291a 00       		.byte	0
 13630 291b 00       		.byte	0
 13631 291c 00       		.byte	0
 13632 291d 00       		.byte	0
 13633 291e 00       		.byte	0
 13634 291f 00       		.byte	0
 13635 2920 00       		.byte	0
 13636 2921 00       		.byte	0
 13637 2922 00       		.byte	0
 13638 2923 00       		.byte	0
 13639 2924 00       		.byte	0
 13640 2925 00       		.byte	0
 13641 2926 00       		.byte	0
 13642 2927 00       		.byte	0
 13643 2928 00       		.byte	0
 13644 2929 00       		.byte	0
 13645 292a 00       		.byte	0
 13646 292b 00       		.byte	0
 13647 292c 00       		.byte	0
 13648 292d 00       		.byte	0
 13649 292e 00       		.byte	0
 13650 292f 00       		.byte	0
 13651 2930 00       		.byte	0
 13652 2931 00       		.byte	0
 13653 2932 00       		.byte	0
 13654 2933 00       		.byte	0
 13655 2934 00       		.byte	0
 13656 2935 00       		.byte	0
 13657 2936 00       		.byte	0
 13658 2937 00       		.byte	0
 13659 2938 00       		.byte	0
 13660 2939 00       		.byte	0
 13661 293a 00       		.byte	0
GAS LISTING /tmp/ccjfHZuC.s 			page 268


 13662 293b 00       		.byte	0
 13663 293c 00       		.byte	0
 13664 293d 00       		.byte	0
 13665 293e 00       		.byte	0
 13666 293f 00       		.byte	0
 13667 2940 00       		.byte	0
 13668 2941 00       		.byte	0
 13669 2942 00       		.byte	0
 13670 2943 00       		.byte	0
 13671 2944 00       		.byte	0
 13672 2945 00       		.byte	0
 13673 2946 00       		.byte	0
 13674 2947 00       		.byte	0
 13675 2948 00       		.byte	0
 13676 2949 00       		.byte	0
 13677 294a 00       		.byte	0
 13678 294b 00       		.byte	0
 13679 294c 00       		.byte	0
 13680 294d 00       		.byte	0
 13681 294e 00       		.byte	0
 13682 294f 00       		.byte	0
 13683 2950 00       		.byte	0
 13684 2951 00       		.byte	0
 13685 2952 00       		.byte	0
 13686 2953 00       		.byte	0
 13687 2954 00       		.byte	0
 13688 2955 00       		.byte	0
 13689 2956 00       		.byte	0
 13690 2957 00       		.byte	0
 13691 2958 00       		.byte	0
 13692 2959 00       		.byte	0
 13693 295a 00       		.byte	0
 13694 295b 00       		.byte	0
 13695 295c 00       		.byte	0
 13696 295d 00       		.byte	0
 13697 295e 00       		.byte	0
 13698 295f 00       		.byte	0
 13699 2960 00       		.byte	0
 13700 2961 00       		.byte	0
 13701 2962 00       		.byte	0
 13702 2963 00       		.byte	0
 13703 2964 00       		.byte	0
 13704 2965 00       		.byte	0
 13705 2966 00       		.byte	0
 13706 2967 00       		.byte	0
 13707 2968 00       		.byte	0
 13708 2969 00       		.byte	0
 13709 296a 00       		.byte	0
 13710 296b 00       		.byte	0
 13711 296c 00       		.byte	0
 13712 296d 00       		.byte	0
 13713 296e 00       		.byte	0
 13714 296f 00       		.byte	0
 13715 2970 00       		.byte	0
 13716 2971 00       		.byte	0
 13717 2972 00       		.byte	0
 13718 2973 00       		.byte	0
GAS LISTING /tmp/ccjfHZuC.s 			page 269


 13719 2974 00       		.byte	0
 13720 2975 00       		.byte	0
 13721 2976 00       		.byte	0
 13722 2977 00       		.byte	0
 13723 2978 00       		.byte	0
 13724 2979 00       		.byte	0
 13725 297a 00       		.byte	0
 13726 297b 00       		.byte	0
 13727 297c 00       		.byte	0
 13728 297d 00       		.byte	0
 13729 297e 00       		.byte	0
 13730 297f 00       		.byte	0
 13731 2980 00       		.byte	0
 13732 2981 00       		.byte	0
 13733 2982 00       		.byte	0
 13734 2983 00       		.byte	0
 13735 2984 00       		.byte	0
 13736 2985 00       		.byte	0
 13737 2986 00       		.byte	0
 13738 2987 00       		.byte	0
 13739 2988 00       		.byte	0
 13740 2989 00       		.byte	0
 13741 298a 00       		.byte	0
 13742 298b 00       		.byte	0
 13743 298c 00       		.byte	0
 13744 298d 00       		.byte	0
 13745 298e 00       		.byte	0
 13746 298f 00       		.byte	0
 13747 2990 00       		.byte	0
 13748 2991 00       		.byte	0
 13749 2992 00       		.byte	0
 13750 2993 00       		.byte	0
 13751 2994 00       		.byte	0
 13752 2995 00       		.byte	0
 13753 2996 00       		.byte	0
 13754 2997 00       		.byte	0
 13755 2998 00       		.byte	0
 13756 2999 00       		.byte	0
 13757 299a 00       		.byte	0
 13758 299b 00       		.byte	0
 13759 299c 00       		.byte	0
 13760 299d 00       		.byte	0
 13761 299e 00       		.byte	0
 13762 299f 00       		.byte	0
 13763 29a0 00       		.byte	0
 13764 29a1 00       		.byte	0
 13765 29a2 00       		.byte	0
 13766 29a3 00       		.byte	0
 13767 29a4 00       		.byte	0
 13768 29a5 00       		.byte	0
 13769 29a6 00       		.byte	0
 13770 29a7 00       		.byte	0
 13771 29a8 00       		.byte	0
 13772 29a9 00       		.byte	0
 13773 29aa 00       		.byte	0
 13774 29ab 00       		.byte	0
 13775 29ac 00       		.byte	0
GAS LISTING /tmp/ccjfHZuC.s 			page 270


 13776 29ad 00       		.byte	0
 13777 29ae 00       		.byte	0
 13778 29af 00       		.byte	0
 13779 29b0 00       		.byte	0
 13780 29b1 00       		.byte	0
 13781 29b2 00       		.byte	0
 13782 29b3 00       		.byte	0
 13783 29b4 00       		.byte	0
 13784 29b5 00       		.byte	0
 13785 29b6 00       		.byte	0
 13786 29b7 00       		.byte	0
 13787 29b8 00       		.byte	0
 13788 29b9 00       		.byte	0
 13789 29ba 00       		.byte	0
 13790 29bb 00       		.byte	0
 13791 29bc 00       		.byte	0
 13792 29bd 00       		.byte	0
 13793 29be 00       		.byte	0
 13794 29bf 00       		.byte	0
 13795 29c0 00       		.byte	0
 13796 29c1 00       		.byte	0
 13797 29c2 00       		.byte	0
 13798 29c3 00       		.byte	0
 13799 29c4 00       		.byte	0
 13800 29c5 00       		.byte	0
 13801 29c6 00       		.byte	0
 13802 29c7 00       		.byte	0
 13803 29c8 00       		.byte	0
 13804 29c9 00       		.byte	0
 13805 29ca 00       		.byte	0
 13806 29cb 00       		.byte	0
 13807 29cc 00       		.byte	0
 13808 29cd 00       		.byte	0
 13809 29ce 00       		.byte	0
 13810 29cf 00       		.byte	0
 13811 29d0 00       		.byte	0
 13812 29d1 00       		.byte	0
 13813 29d2 00       		.byte	0
 13814 29d3 00       		.byte	0
 13815 29d4 00       		.byte	0
 13816 29d5 00       		.byte	0
 13817 29d6 00       		.byte	0
 13818 29d7 00       		.byte	0
 13819 29d8 00       		.byte	0
 13820 29d9 00       		.byte	0
 13821 29da 00       		.byte	0
 13822 29db 00       		.byte	0
 13823 29dc 00       		.byte	0
 13824 29dd 00       		.byte	0
 13825 29de 00       		.byte	0
 13826 29df 00       		.byte	0
 13827 29e0 00       		.byte	0
 13828 29e1 00       		.byte	0
 13829 29e2 00       		.byte	0
 13830 29e3 00       		.byte	0
 13831 29e4 00       		.byte	0
 13832 29e5 00       		.byte	0
GAS LISTING /tmp/ccjfHZuC.s 			page 271


 13833 29e6 00       		.byte	0
 13834 29e7 00       		.byte	0
 13835 29e8 00       		.byte	0
 13836 29e9 00       		.byte	0
 13837 29ea 00       		.byte	0
 13838 29eb 00       		.byte	0
 13839 29ec 00       		.byte	0
 13840 29ed 00       		.byte	0
 13841 29ee 00       		.byte	0
 13842 29ef 00       		.byte	0
 13843 29f0 00       		.byte	0
 13844 29f1 00       		.byte	0
 13845 29f2 00       		.byte	0
 13846 29f3 00       		.byte	0
 13847 29f4 00       		.byte	0
 13848 29f5 00       		.byte	0
 13849 29f6 00       		.byte	0
 13850 29f7 00       		.byte	0
 13851 29f8 00       		.byte	0
 13852 29f9 00       		.byte	0
 13853 29fa 00       		.byte	0
 13854 29fb 00       		.byte	0
 13855 29fc 00       		.byte	0
 13856 29fd 00       		.byte	0
 13857 29fe 00       		.byte	0
 13858 29ff 00       		.byte	0
 13859 2a00 00       		.byte	0
 13860 2a01 00       		.byte	0
 13861 2a02 00       		.byte	0
 13862 2a03 00       		.byte	0
 13863 2a04 00       		.byte	0
 13864 2a05 00       		.byte	0
 13865 2a06 00       		.byte	0
 13866 2a07 00       		.byte	0
 13867 2a08 00       		.byte	0
 13868 2a09 00       		.byte	0
 13869 2a0a 00       		.byte	0
 13870 2a0b 00       		.byte	0
 13871 2a0c 00       		.byte	0
 13872 2a0d 00       		.byte	0
 13873 2a0e 00       		.byte	0
 13874 2a0f 00       		.byte	0
 13875 2a10 00       		.byte	0
 13876 2a11 00       		.byte	0
 13877 2a12 00       		.byte	0
 13878 2a13 00       		.byte	0
 13879 2a14 00       		.byte	0
 13880 2a15 00       		.byte	0
 13881 2a16 00       		.byte	0
 13882 2a17 00       		.byte	0
 13883 2a18 00       		.byte	0
 13884 2a19 00       		.byte	0
 13885 2a1a 00       		.byte	0
 13886 2a1b 00       		.byte	0
 13887 2a1c 00       		.byte	0
 13888 2a1d 00       		.byte	0
 13889 2a1e 00       		.byte	0
GAS LISTING /tmp/ccjfHZuC.s 			page 272


 13890 2a1f 00       		.byte	0
 13891 2a20 00       		.byte	0
 13892 2a21 00       		.byte	0
 13893 2a22 00       		.byte	0
 13894 2a23 00       		.byte	0
 13895 2a24 00       		.byte	0
 13896 2a25 00       		.byte	0
 13897 2a26 00       		.byte	0
 13898 2a27 00       		.byte	0
 13899 2a28 00       		.byte	0
 13900 2a29 00       		.byte	0
 13901 2a2a 00       		.byte	0
 13902 2a2b 00       		.byte	0
 13903 2a2c 00       		.byte	0
 13904 2a2d 00       		.byte	0
 13905 2a2e 00       		.byte	0
 13906 2a2f 00       		.byte	0
 13907 2a30 00       		.byte	0
 13908 2a31 00       		.byte	0
 13909 2a32 00       		.byte	0
 13910 2a33 00       		.byte	0
 13911 2a34 00       		.byte	0
 13912 2a35 00       		.byte	0
 13913 2a36 00       		.byte	0
 13914 2a37 00       		.byte	0
 13915 2a38 00       		.byte	0
 13916 2a39 00       		.byte	0
 13917 2a3a 00       		.byte	0
 13918 2a3b 00       		.byte	0
 13919 2a3c 00       		.byte	0
 13920 2a3d 00       		.byte	0
 13921 2a3e 00       		.byte	0
 13922 2a3f 00       		.byte	0
 13923 2a40 00       		.byte	0
 13924 2a41 00       		.byte	0
 13925 2a42 00       		.byte	0
 13926 2a43 00       		.byte	0
 13927 2a44 00       		.byte	0
 13928 2a45 00       		.byte	0
 13929 2a46 00       		.byte	0
 13930 2a47 00       		.byte	0
 13931 2a48 00       		.byte	0
 13932 2a49 00       		.byte	0
 13933 2a4a 00       		.byte	0
 13934 2a4b 00       		.byte	0
 13935 2a4c 00       		.byte	0
 13936 2a4d 00       		.byte	0
 13937 2a4e 00       		.byte	0
 13938 2a4f 00       		.byte	0
 13939 2a50 00       		.byte	0
 13940 2a51 00       		.byte	0
 13941 2a52 00       		.byte	0
 13942 2a53 00       		.byte	0
 13943 2a54 00       		.byte	0
 13944 2a55 00       		.byte	0
 13945 2a56 00       		.byte	0
 13946 2a57 00       		.byte	0
GAS LISTING /tmp/ccjfHZuC.s 			page 273


 13947 2a58 00       		.byte	0
 13948 2a59 00       		.byte	0
 13949 2a5a 00       		.byte	0
 13950 2a5b 00       		.byte	0
 13951 2a5c 00       		.byte	0
 13952 2a5d 00       		.byte	0
 13953 2a5e 00       		.byte	0
 13954 2a5f 00       		.byte	0
 13955 2a60 00       		.byte	0
 13956 2a61 00       		.byte	0
 13957 2a62 00       		.byte	0
 13958 2a63 00       		.byte	0
 13959 2a64 00       		.byte	0
 13960 2a65 00       		.byte	0
 13961 2a66 00       		.byte	0
 13962 2a67 00       		.byte	0
 13963 2a68 00       		.byte	0
 13964 2a69 00       		.byte	0
 13965 2a6a 00       		.byte	0
 13966 2a6b 00       		.byte	0
 13967 2a6c 00       		.byte	0
 13968 2a6d 00       		.byte	0
 13969 2a6e 00       		.byte	0
 13970 2a6f 00       		.byte	0
 13971 2a70 00       		.byte	0
 13972 2a71 00       		.byte	0
 13973 2a72 00       		.byte	0
 13974 2a73 00       		.byte	0
 13975 2a74 00       		.byte	0
 13976 2a75 00       		.byte	0
 13977 2a76 00       		.byte	0
 13978 2a77 00       		.byte	0
 13979 2a78 00       		.byte	0
 13980 2a79 00       		.byte	0
 13981 2a7a 00       		.byte	0
 13982 2a7b 00       		.byte	0
 13983 2a7c 00       		.byte	0
 13984 2a7d 00       		.byte	0
 13985 2a7e 00       		.byte	0
 13986 2a7f 00       		.byte	0
 13987 2a80 00       		.byte	0
 13988 2a81 00       		.byte	0
 13989 2a82 00       		.byte	0
 13990 2a83 00       		.byte	0
 13991 2a84 00       		.byte	0
 13992 2a85 00       		.byte	0
 13993 2a86 00       		.byte	0
 13994 2a87 00       		.byte	0
 13995 2a88 00       		.byte	0
 13996 2a89 00       		.byte	0
 13997 2a8a 00       		.byte	0
 13998 2a8b 00       		.byte	0
 13999 2a8c 00       		.byte	0
 14000 2a8d 00       		.byte	0
 14001 2a8e 00       		.byte	0
 14002 2a8f 00       		.byte	0
 14003 2a90 00       		.byte	0
GAS LISTING /tmp/ccjfHZuC.s 			page 274


 14004 2a91 00       		.byte	0
 14005 2a92 00       		.byte	0
 14006 2a93 00       		.byte	0
 14007 2a94 00       		.byte	0
 14008 2a95 00       		.byte	0
 14009 2a96 00       		.byte	0
 14010 2a97 00       		.byte	0
 14011 2a98 00       		.byte	0
 14012 2a99 00       		.byte	0
 14013 2a9a 00       		.byte	0
 14014 2a9b 00       		.byte	0
 14015 2a9c 00       		.byte	0
 14016 2a9d 00       		.byte	0
 14017 2a9e 00       		.byte	0
 14018 2a9f 00       		.byte	0
 14019 2aa0 00       		.byte	0
 14020 2aa1 00       		.byte	0
 14021 2aa2 00       		.byte	0
 14022 2aa3 00       		.byte	0
 14023 2aa4 00       		.byte	0
 14024 2aa5 00       		.byte	0
 14025 2aa6 00       		.byte	0
 14026 2aa7 00       		.byte	0
 14027 2aa8 00       		.byte	0
 14028 2aa9 00       		.byte	0
 14029 2aaa 00       		.byte	0
 14030 2aab 00       		.byte	0
 14031 2aac 00       		.byte	0
 14032 2aad 00       		.byte	0
 14033 2aae 00       		.byte	0
 14034 2aaf 00       		.byte	0
 14035 2ab0 00       		.byte	0
 14036 2ab1 00       		.byte	0
 14037 2ab2 00       		.byte	0
 14038 2ab3 00       		.byte	0
 14039 2ab4 00       		.byte	0
 14040 2ab5 00       		.byte	0
 14041 2ab6 00       		.byte	0
 14042 2ab7 00       		.byte	0
 14043 2ab8 00       		.byte	0
 14044 2ab9 00       		.byte	0
 14045 2aba 00       		.byte	0
 14046 2abb 00       		.byte	0
 14047 2abc 00       		.byte	0
 14048 2abd 00       		.byte	0
 14049 2abe 00       		.byte	0
 14050 2abf 00       		.byte	0
 14051 2ac0 00       		.byte	0
 14052 2ac1 00       		.byte	0
 14053 2ac2 00       		.byte	0
 14054 2ac3 00       		.byte	0
 14055 2ac4 00       		.byte	0
 14056 2ac5 00       		.byte	0
 14057 2ac6 00       		.byte	0
 14058 2ac7 00       		.byte	0
 14059 2ac8 00       		.byte	0
 14060 2ac9 00       		.byte	0
GAS LISTING /tmp/ccjfHZuC.s 			page 275


 14061 2aca 00       		.byte	0
 14062 2acb 00       		.byte	0
 14063 2acc 00       		.byte	0
 14064 2acd 00       		.byte	0
 14065 2ace 00       		.byte	0
 14066 2acf 00       		.byte	0
 14067 2ad0 00       		.byte	0
 14068 2ad1 00       		.byte	0
 14069 2ad2 00       		.byte	0
 14070 2ad3 00       		.byte	0
 14071 2ad4 00       		.byte	0
 14072 2ad5 00       		.byte	0
 14073 2ad6 00       		.byte	0
 14074 2ad7 00       		.byte	0
 14075 2ad8 00       		.byte	0
 14076 2ad9 00       		.byte	0
 14077 2ada 00       		.byte	0
 14078 2adb 00       		.byte	0
 14079 2adc 00       		.byte	0
 14080 2add 00       		.byte	0
 14081 2ade 00       		.byte	0
 14082 2adf 00       		.byte	0
 14083 2ae0 00       		.byte	0
 14084 2ae1 00       		.byte	0
 14085 2ae2 00       		.byte	0
 14086 2ae3 00       		.byte	0
 14087 2ae4 00       		.byte	0
 14088 2ae5 00       		.byte	0
 14089 2ae6 00       		.byte	0
 14090 2ae7 00       		.byte	0
 14091 2ae8 00       		.byte	0
 14092 2ae9 00       		.byte	0
 14093 2aea 00       		.byte	0
 14094 2aeb 00       		.byte	0
 14095 2aec 00       		.byte	0
 14096 2aed 00       		.byte	0
 14097 2aee 00       		.byte	0
 14098 2aef 00       		.byte	0
 14099 2af0 00       		.byte	0
 14100 2af1 00       		.byte	0
 14101 2af2 00       		.byte	0
 14102 2af3 00       		.byte	0
 14103 2af4 00       		.byte	0
 14104 2af5 00       		.byte	0
 14105 2af6 00       		.byte	0
 14106 2af7 00       		.byte	0
 14107 2af8 00       		.byte	0
 14108 2af9 00       		.byte	0
 14109 2afa 00       		.byte	0
 14110 2afb 00       		.byte	0
 14111 2afc 00       		.byte	0
 14112 2afd 00       		.byte	0
 14113 2afe 00       		.byte	0
 14114 2aff 00       		.byte	0
 14115 2b00 00       		.byte	0
 14116 2b01 00       		.byte	0
 14117 2b02 00       		.byte	0
GAS LISTING /tmp/ccjfHZuC.s 			page 276


 14118 2b03 00       		.byte	0
 14119 2b04 00       		.byte	0
 14120 2b05 00       		.byte	0
 14121 2b06 00       		.byte	0
 14122 2b07 00       		.byte	0
 14123 2b08 00       		.byte	0
 14124 2b09 00       		.byte	0
 14125 2b0a 00       		.byte	0
 14126 2b0b 00       		.byte	0
 14127 2b0c 00       		.byte	0
 14128 2b0d 00       		.byte	0
 14129 2b0e 00       		.byte	0
 14130 2b0f 00       		.byte	0
 14131 2b10 00       		.byte	0
 14132 2b11 00       		.byte	0
 14133 2b12 00       		.byte	0
 14134 2b13 00       		.byte	0
 14135 2b14 00       		.byte	0
 14136 2b15 00       		.byte	0
 14137 2b16 00       		.byte	0
 14138 2b17 00       		.byte	0
 14139 2b18 00       		.byte	0
 14140 2b19 00       		.byte	0
 14141 2b1a 00       		.byte	0
 14142 2b1b 00       		.byte	0
 14143 2b1c 00       		.byte	0
 14144 2b1d 00       		.byte	0
 14145 2b1e 00       		.byte	0
 14146 2b1f 00       		.byte	0
 14147 2b20 00       		.byte	0
 14148 2b21 00       		.byte	0
 14149 2b22 00       		.byte	0
 14150 2b23 00       		.byte	0
 14151 2b24 00       		.byte	0
 14152 2b25 00       		.byte	0
 14153 2b26 00       		.byte	0
 14154 2b27 00       		.byte	0
 14155 2b28 00       		.byte	0
 14156 2b29 00       		.byte	0
 14157 2b2a 00       		.byte	0
 14158 2b2b 00       		.byte	0
 14159 2b2c 00       		.byte	0
 14160 2b2d 00       		.byte	0
 14161 2b2e 00       		.byte	0
 14162 2b2f 00       		.byte	0
 14163 2b30 00       		.byte	0
 14164 2b31 00       		.byte	0
 14165 2b32 00       		.byte	0
 14166 2b33 00       		.byte	0
 14167 2b34 00       		.byte	0
 14168 2b35 00       		.byte	0
 14169 2b36 00       		.byte	0
 14170 2b37 00       		.byte	0
 14171 2b38 00       		.byte	0
 14172 2b39 00       		.byte	0
 14173 2b3a 00       		.byte	0
 14174 2b3b 00       		.byte	0
GAS LISTING /tmp/ccjfHZuC.s 			page 277


 14175 2b3c 00       		.byte	0
 14176 2b3d 00       		.byte	0
 14177 2b3e 00       		.byte	0
 14178 2b3f 00       		.byte	0
 14179 2b40 00       		.byte	0
 14180 2b41 00       		.byte	0
 14181 2b42 00       		.byte	0
 14182 2b43 00       		.byte	0
 14183 2b44 00       		.byte	0
 14184 2b45 00       		.byte	0
 14185 2b46 00       		.byte	0
 14186 2b47 00       		.byte	0
 14187 2b48 00       		.byte	0
 14188 2b49 00       		.byte	0
 14189 2b4a 00       		.byte	0
 14190 2b4b 00       		.byte	0
 14191 2b4c 00       		.byte	0
 14192 2b4d 00       		.byte	0
 14193 2b4e 00       		.byte	0
 14194 2b4f 00       		.byte	0
 14195 2b50 00       		.byte	0
 14196 2b51 00       		.byte	0
 14197 2b52 00       		.byte	0
 14198 2b53 00       		.byte	0
 14199 2b54 00       		.byte	0
 14200 2b55 00       		.byte	0
 14201 2b56 00       		.byte	0
 14202 2b57 00       		.byte	0
 14203 2b58 00       		.byte	0
 14204 2b59 00       		.byte	0
 14205 2b5a 00       		.byte	0
 14206 2b5b 00       		.byte	0
 14207 2b5c 00       		.byte	0
 14208 2b5d 00       		.byte	0
 14209 2b5e 00       		.byte	0
 14210 2b5f 00       		.byte	0
 14211 2b60 00       		.byte	0
 14212 2b61 00       		.byte	0
 14213 2b62 00       		.byte	0
 14214 2b63 00       		.byte	0
 14215 2b64 00       		.byte	0
 14216 2b65 00       		.byte	0
 14217 2b66 00       		.byte	0
 14218 2b67 00       		.byte	0
 14219 2b68 00       		.byte	0
 14220 2b69 00       		.byte	0
 14221 2b6a 00       		.byte	0
 14222 2b6b 00       		.byte	0
 14223 2b6c 00       		.byte	0
 14224 2b6d 00       		.byte	0
 14225 2b6e 00       		.byte	0
 14226 2b6f 00       		.byte	0
 14227 2b70 00       		.byte	0
 14228 2b71 00       		.byte	0
 14229 2b72 00       		.byte	0
 14230 2b73 00       		.byte	0
 14231 2b74 00       		.byte	0
GAS LISTING /tmp/ccjfHZuC.s 			page 278


 14232 2b75 00       		.byte	0
 14233 2b76 00       		.byte	0
 14234 2b77 00       		.byte	0
 14235 2b78 00       		.byte	0
 14236 2b79 00       		.byte	0
 14237 2b7a 00       		.byte	0
 14238 2b7b 00       		.byte	0
 14239 2b7c 00       		.byte	0
 14240 2b7d 00       		.byte	0
 14241 2b7e 00       		.byte	0
 14242 2b7f 00       		.byte	0
 14243 2b80 00       		.byte	0
 14244 2b81 00       		.byte	0
 14245 2b82 00       		.byte	0
 14246 2b83 00       		.byte	0
 14247 2b84 00       		.byte	0
 14248 2b85 00       		.byte	0
 14249 2b86 00       		.byte	0
 14250 2b87 00       		.byte	0
 14251 2b88 00       		.byte	0
 14252 2b89 00       		.byte	0
 14253 2b8a 00       		.byte	0
 14254 2b8b 00       		.byte	0
 14255 2b8c 00       		.byte	0
 14256 2b8d 00       		.byte	0
 14257 2b8e 00       		.byte	0
 14258 2b8f 00       		.byte	0
 14259 2b90 00       		.byte	0
 14260 2b91 00       		.byte	0
 14261 2b92 00       		.byte	0
 14262 2b93 00       		.byte	0
 14263 2b94 00       		.byte	0
 14264 2b95 00       		.byte	0
 14265 2b96 00       		.byte	0
 14266 2b97 00       		.byte	0
 14267 2b98 00       		.byte	0
 14268 2b99 00       		.byte	0
 14269 2b9a 00       		.byte	0
 14270 2b9b 00       		.byte	0
 14271 2b9c 00       		.byte	0
 14272 2b9d 00       		.byte	0
 14273 2b9e 00       		.byte	0
 14274 2b9f 00       		.byte	0
 14275 2ba0 00       		.byte	0
 14276 2ba1 00       		.byte	0
 14277 2ba2 00       		.byte	0
 14278 2ba3 00       		.byte	0
 14279 2ba4 00       		.byte	0
 14280 2ba5 00       		.byte	0
 14281 2ba6 00       		.byte	0
 14282 2ba7 00       		.byte	0
 14283 2ba8 00       		.byte	0
 14284 2ba9 00       		.byte	0
 14285 2baa 00       		.byte	0
 14286 2bab 00       		.byte	0
 14287 2bac 00       		.byte	0
 14288 2bad 00       		.byte	0
GAS LISTING /tmp/ccjfHZuC.s 			page 279


 14289 2bae 00       		.byte	0
 14290 2baf 00       		.byte	0
 14291 2bb0 00       		.byte	0
 14292 2bb1 00       		.byte	0
 14293 2bb2 00       		.byte	0
 14294 2bb3 00       		.byte	0
 14295 2bb4 00       		.byte	0
 14296 2bb5 00       		.byte	0
 14297 2bb6 00       		.byte	0
 14298 2bb7 00       		.byte	0
 14299 2bb8 00       		.byte	0
 14300 2bb9 00       		.byte	0
 14301 2bba 00       		.byte	0
 14302 2bbb 00       		.byte	0
 14303 2bbc 00       		.byte	0
 14304 2bbd 00       		.byte	0
 14305 2bbe 00       		.byte	0
 14306 2bbf 00       		.byte	0
 14307 2bc0 00       		.byte	0
 14308 2bc1 00       		.byte	0
 14309 2bc2 00       		.byte	0
 14310 2bc3 00       		.byte	0
 14311 2bc4 00       		.byte	0
 14312 2bc5 00       		.byte	0
 14313 2bc6 00       		.byte	0
 14314 2bc7 00       		.byte	0
 14315 2bc8 00       		.byte	0
 14316 2bc9 00       		.byte	0
 14317 2bca 00       		.byte	0
 14318 2bcb 00       		.byte	0
 14319 2bcc 00       		.byte	0
 14320 2bcd 00       		.byte	0
 14321 2bce 00       		.byte	0
 14322 2bcf 00       		.byte	0
 14323 2bd0 00       		.byte	0
 14324 2bd1 00       		.byte	0
 14325 2bd2 00       		.byte	0
 14326 2bd3 00       		.byte	0
 14327 2bd4 00       		.byte	0
 14328 2bd5 00       		.byte	0
 14329 2bd6 00       		.byte	0
 14330 2bd7 00       		.byte	0
 14331 2bd8 00       		.byte	0
 14332 2bd9 00       		.byte	0
 14333 2bda 00       		.byte	0
 14334 2bdb 00       		.byte	0
 14335 2bdc 00       		.byte	0
 14336 2bdd 00       		.byte	0
 14337 2bde 00       		.byte	0
 14338 2bdf 00       		.byte	0
 14339 2be0 00       		.byte	0
 14340 2be1 00       		.byte	0
 14341 2be2 00       		.byte	0
 14342 2be3 00       		.byte	0
 14343 2be4 00       		.byte	0
 14344 2be5 00       		.byte	0
 14345 2be6 00       		.byte	0
GAS LISTING /tmp/ccjfHZuC.s 			page 280


 14346 2be7 00       		.byte	0
 14347 2be8 00       		.byte	0
 14348 2be9 00       		.byte	0
 14349 2bea 00       		.byte	0
 14350 2beb 00       		.byte	0
 14351 2bec 00       		.byte	0
 14352 2bed 00       		.byte	0
 14353 2bee 00       		.byte	0
 14354 2bef 00       		.byte	0
 14355 2bf0 00       		.byte	0
 14356 2bf1 00       		.byte	0
 14357 2bf2 00       		.byte	0
 14358 2bf3 00       		.byte	0
 14359 2bf4 00       		.byte	0
 14360 2bf5 00       		.byte	0
 14361 2bf6 00       		.byte	0
 14362 2bf7 00       		.byte	0
 14363 2bf8 00       		.byte	0
 14364 2bf9 00       		.byte	0
 14365 2bfa 00       		.byte	0
 14366 2bfb 00       		.byte	0
 14367 2bfc 00       		.byte	0
 14368 2bfd 00       		.byte	0
 14369 2bfe 00       		.byte	0
 14370 2bff 00       		.byte	0
 14371 2c00 00       		.byte	0
 14372 2c01 00       		.byte	0
 14373 2c02 00       		.byte	0
 14374 2c03 00       		.byte	0
 14375 2c04 00       		.byte	0
 14376 2c05 00       		.byte	0
 14377 2c06 00       		.byte	0
 14378 2c07 00       		.byte	0
 14379 2c08 00       		.byte	0
 14380 2c09 00       		.byte	0
 14381 2c0a 00       		.byte	0
 14382 2c0b 00       		.byte	0
 14383 2c0c 00       		.byte	0
 14384 2c0d 00       		.byte	0
 14385 2c0e 00       		.byte	0
 14386 2c0f 00       		.byte	0
 14387 2c10 00       		.byte	0
 14388 2c11 00       		.byte	0
 14389 2c12 00       		.byte	0
 14390 2c13 00       		.byte	0
 14391 2c14 00       		.byte	0
 14392 2c15 00       		.byte	0
 14393 2c16 00       		.byte	0
 14394 2c17 00       		.byte	0
 14395 2c18 00       		.byte	0
 14396 2c19 00       		.byte	0
 14397 2c1a 00       		.byte	0
 14398 2c1b 00       		.byte	0
 14399 2c1c 00       		.byte	0
 14400 2c1d 00       		.byte	0
 14401 2c1e 00       		.byte	0
 14402 2c1f 00       		.byte	0
GAS LISTING /tmp/ccjfHZuC.s 			page 281


 14403              		.global _city
 14404              		.align 2
 14405              		.type	_city, @object
 14406              		.size	_city, 400
 14407              	_city:
 14408 2c20 3F000000 		.long	63
 14409 2c24 22000000 		.long	34
 14410 2c28 02000000 		.long	2
 14411 2c2c 18FCFFFF 		.long	-1000
 14412 2c30 00000000 		.long	0
 14413 2c34 00000000 		.long	0
 14414 2c38 18FCFFFF 		.long	-1000
 14415 2c3c C8000000 		.long	200
 14416 2c40 00000000 		.long	0
 14417 2c44 E0FCFFFF 		.long	-800
 14418 2c48 C8000000 		.long	200
 14419 2c4c 00000000 		.long	0
 14420 2c50 E0FCFFFF 		.long	-800
 14421 2c54 00000000 		.long	0
 14422 2c58 00000000 		.long	0
 14423 2c5c E0FCFFFF 		.long	-800
 14424 2c60 F4010000 		.long	500
 14425 2c64 00000000 		.long	0
 14426 2c68 70FEFFFF 		.long	-400
 14427 2c6c F4010000 		.long	500
 14428 2c70 00000000 		.long	0
 14429 2c74 70FEFFFF 		.long	-400
 14430 2c78 00000000 		.long	0
 14431 2c7c 00000000 		.long	0
 14432 2c80 0CFEFFFF 		.long	-500
 14433 2c84 F4010000 		.long	500
 14434 2c88 00000000 		.long	0
 14435 2c8c 0CFEFFFF 		.long	-500
 14436 2c90 58020000 		.long	600
 14437 2c94 00000000 		.long	0
 14438 2c98 38FFFFFF 		.long	-200
 14439 2c9c 58020000 		.long	600
 14440 2ca0 00000000 		.long	0
 14441 2ca4 38FFFFFF 		.long	-200
 14442 2ca8 00000000 		.long	0
 14443 2cac 00000000 		.long	0
 14444 2cb0 D4FEFFFF 		.long	-300
 14445 2cb4 58020000 		.long	600
 14446 2cb8 00000000 		.long	0
 14447 2cbc D4FEFFFF 		.long	-300
 14448 2cc0 BC020000 		.long	700
 14449 2cc4 00000000 		.long	0
 14450 2cc8 00000000 		.long	0
 14451 2ccc BC020000 		.long	700
 14452 2cd0 00000000 		.long	0
 14453 2cd4 00000000 		.long	0
 14454 2cd8 00000000 		.long	0
 14455 2cdc 00000000 		.long	0
 14456 2ce0 00000000 		.long	0
 14457 2ce4 F4010000 		.long	500
 14458 2ce8 00000000 		.long	0
 14459 2cec 2C010000 		.long	300
GAS LISTING /tmp/ccjfHZuC.s 			page 282


 14460 2cf0 F4010000 		.long	500
 14461 2cf4 00000000 		.long	0
 14462 2cf8 2C010000 		.long	300
 14463 2cfc 00000000 		.long	0
 14464 2d00 00000000 		.long	0
 14465 2d04 2C010000 		.long	300
 14466 2d08 BC020000 		.long	700
 14467 2d0c 00000000 		.long	0
 14468 2d10 E8030000 		.long	1000
 14469 2d14 BC020000 		.long	700
 14470 2d18 00000000 		.long	0
 14471 2d1c E8030000 		.long	1000
 14472 2d20 00000000 		.long	0
 14473 2d24 00000000 		.long	0
 14474 2d28 00000000 		.long	0
 14475 2d2c 01000000 		.long	1
 14476 2d30 01000000 		.long	1
 14477 2d34 02000000 		.long	2
 14478 2d38 02000000 		.long	2
 14479 2d3c 03000000 		.long	3
 14480 2d40 03000000 		.long	3
 14481 2d44 04000000 		.long	4
 14482 2d48 04000000 		.long	4
 14483 2d4c 05000000 		.long	5
 14484 2d50 05000000 		.long	5
 14485 2d54 06000000 		.long	6
 14486 2d58 07000000 		.long	7
 14487 2d5c 08000000 		.long	8
 14488 2d60 08000000 		.long	8
 14489 2d64 09000000 		.long	9
 14490 2d68 09000000 		.long	9
 14491 2d6c 0A000000 		.long	10
 14492 2d70 0B000000 		.long	11
 14493 2d74 0C000000 		.long	12
 14494 2d78 0C000000 		.long	12
 14495 2d7c 0D000000 		.long	13
 14496 2d80 0D000000 		.long	13
 14497 2d84 0E000000 		.long	14
 14498 2d88 0F000000 		.long	15
 14499 2d8c 10000000 		.long	16
 14500 2d90 10000000 		.long	16
 14501 2d94 11000000 		.long	17
 14502 2d98 10000000 		.long	16
 14503 2d9c 12000000 		.long	18
 14504 2da0 12000000 		.long	18
 14505 2da4 13000000 		.long	19
 14506 2da8 13000000 		.long	19
 14507 2dac 14000000 		.long	20
 14508              		.global _ground
 14509              		.align 2
 14510              		.type	_ground, @object
 14511              		.size	_ground, 156
 14512              	_ground:
 14513 2db0 18000000 		.long	24
 14514 2db4 0C000000 		.long	12
 14515 2db8 02000000 		.long	2
 14516 2dbc 90E8FFFF 		.long	-6000
GAS LISTING /tmp/ccjfHZuC.s 			page 283


 14517 2dc0 00000000 		.long	0
 14518 2dc4 00000000 		.long	0
 14519 2dc8 90E8FFFF 		.long	-6000
 14520 2dcc 00000000 		.long	0
 14521 2dd0 401F0000 		.long	8000
 14522 2dd4 30F8FFFF 		.long	-2000
 14523 2dd8 00000000 		.long	0
 14524 2ddc 00000000 		.long	0
 14525 2de0 30F8FFFF 		.long	-2000
 14526 2de4 00000000 		.long	0
 14527 2de8 401F0000 		.long	8000
 14528 2dec D0070000 		.long	2000
 14529 2df0 00000000 		.long	0
 14530 2df4 00000000 		.long	0
 14531 2df8 D0070000 		.long	2000
 14532 2dfc 00000000 		.long	0
 14533 2e00 401F0000 		.long	8000
 14534 2e04 70170000 		.long	6000
 14535 2e08 00000000 		.long	0
 14536 2e0c 00000000 		.long	0
 14537 2e10 70170000 		.long	6000
 14538 2e14 00000000 		.long	0
 14539 2e18 401F0000 		.long	8000
 14540 2e1c 00000000 		.long	0
 14541 2e20 01000000 		.long	1
 14542 2e24 00000000 		.long	0
 14543 2e28 06000000 		.long	6
 14544 2e2c 06000000 		.long	6
 14545 2e30 07000000 		.long	7
 14546 2e34 07000000 		.long	7
 14547 2e38 01000000 		.long	1
 14548 2e3c 02000000 		.long	2
 14549 2e40 03000000 		.long	3
 14550 2e44 04000000 		.long	4
 14551 2e48 05000000 		.long	5
 14552              		.global _meteor
 14553              		.align 2
 14554              		.type	_meteor, @object
 14555              		.size	_meteor, 180
 14556              	_meteor:
 14557 2e4c 12000000 		.long	18
 14558 2e50 18000000 		.long	24
 14559 2e54 02000000 		.long	2
 14560 2e58 38FFFFFF 		.long	-200
 14561 2e5c 00000000 		.long	0
 14562 2e60 38FFFFFF 		.long	-200
 14563 2e64 38FFFFFF 		.long	-200
 14564 2e68 00000000 		.long	0
 14565 2e6c C8000000 		.long	200
 14566 2e70 C8000000 		.long	200
 14567 2e74 00000000 		.long	0
 14568 2e78 C8000000 		.long	200
 14569 2e7c C8000000 		.long	200
 14570 2e80 00000000 		.long	0
 14571 2e84 38FFFFFF 		.long	-200
 14572 2e88 00000000 		.long	0
 14573 2e8c C8000000 		.long	200
GAS LISTING /tmp/ccjfHZuC.s 			page 284


 14574 2e90 00000000 		.long	0
 14575 2e94 00000000 		.long	0
 14576 2e98 38FFFFFF 		.long	-200
 14577 2e9c 00000000 		.long	0
 14578 2ea0 00000000 		.long	0
 14579 2ea4 01000000 		.long	1
 14580 2ea8 01000000 		.long	1
 14581 2eac 02000000 		.long	2
 14582 2eb0 02000000 		.long	2
 14583 2eb4 03000000 		.long	3
 14584 2eb8 03000000 		.long	3
 14585 2ebc 00000000 		.long	0
 14586 2ec0 00000000 		.long	0
 14587 2ec4 04000000 		.long	4
 14588 2ec8 04000000 		.long	4
 14589 2ecc 02000000 		.long	2
 14590 2ed0 02000000 		.long	2
 14591 2ed4 05000000 		.long	5
 14592 2ed8 05000000 		.long	5
 14593 2edc 00000000 		.long	0
 14594 2ee0 01000000 		.long	1
 14595 2ee4 04000000 		.long	4
 14596 2ee8 04000000 		.long	4
 14597 2eec 03000000 		.long	3
 14598 2ef0 03000000 		.long	3
 14599 2ef4 05000000 		.long	5
 14600 2ef8 05000000 		.long	5
 14601 2efc 01000000 		.long	1
 14602              		.global _frameSkip
 14603              		.section .bss
 14604              		.type	_frameSkip, @object
 14605              		.size	_frameSkip, 1
 14606              	_frameSkip:
 14607 0010 00       		.zero	1
 14608              		.global _frameSkipCount
 14609              		.type	_frameSkipCount, @object
 14610              		.size	_frameSkipCount, 1
 14611              	_frameSkipCount:
 14612 0011 00       		.zero	1
 14613              		.global _gameNodeIdx
 14614              		.type	_gameNodeIdx, @object
 14615              		.size	_gameNodeIdx, 1
 14616              	_gameNodeIdx:
 14617 0012 00       		.zero	1
 14618 0013 00       		.section .data
 14619              		.align 1
 14620              		.type	_pgflip___3012, @object
 14621              		.size	_pgflip___3012, 2
 14622              	_pgflip___3012:
 14623 0008 0800     		.hword	8
 14624              		.comm	_vertexBuffer,20000,4
 14625              		.comm	_cam,144,4
 14626              		.comm	_tick,4,4
 14627              		.comm	_crossH,20,4
 14628              		.comm	_accelerator,1,1
 14629              		.comm	_meteorSpeed,4,4
 14630              		.comm	_gameNodes,960,4
GAS LISTING /tmp/ccjfHZuC.s 			page 285


 14631              		.comm	_g,204,4
 14632              		.comm	_c1,204,4
 14633              		.comm	_c2,204,4
 14634              		.comm	_c3,204,4
 14635              		.comm	_c4,204,4
 14636              		.comm	_c5,204,4
 14637              		.comm	_c6,204,4
 14638              		.comm	_m1,204,4
 14639              		.comm	_m2,204,4
 14640              		.comm	_m3,204,4
 14641              		.comm	_m4,204,4
 14642              		.comm	_m5,204,4
 14643              		.comm	_m6,204,4
 14644 000a 0000     		.ident	"GCC: (GNU) 4.4.2"
GAS LISTING /tmp/ccjfHZuC.s 			page 286


DEFINED SYMBOLS
                            *ABS*:00000000 meteordefender.c
     /tmp/ccjfHZuC.s:4      .text:00000000 _jump_addr
     /tmp/ccjfHZuC.s:11     .text:00000012 __dojump
     /tmp/ccjfHZuC.s:18     .text:00000014 _vbWaitFrame
     /tmp/ccjfHZuC.s:5176   .data:00000000 _VIP_REGS
     /tmp/ccjfHZuC.s:41     .text:00000048 _vbDisplayOn
     /tmp/ccjfHZuC.s:111    .text:0000014c _vbDisplayOff
     /tmp/ccjfHZuC.s:136    .text:0000019c _vbDisplayShow
     /tmp/ccjfHZuC.s:155    .text:000001d4 _vbDisplayHide
     /tmp/ccjfHZuC.s:172    .text:00000204 _vbFXFadeIn
     /tmp/ccjfHZuC.s:208    .text:00000268 _vbFXFadeOut
     /tmp/ccjfHZuC.s:245    .text:000002d4 _vbSetColTable
     /tmp/ccjfHZuC.s:5230   .rodata:00000020 _colTable
     /tmp/ccjfHZuC.s:288    .text:00000348 _affine_clr_param
     /tmp/ccjfHZuC.s:321    .text:00000394 _affine_scale
     /tmp/ccjfHZuC.s:418    .text:000004a8 _affine_fast_scale
     /tmp/ccjfHZuC.s:472    .text:00000530 _set_intlevel
     /tmp/ccjfHZuC.s:484    .text:00000550 _get_intlevel
     /tmp/ccjfHZuC.s:495    .text:0000055c _vbReadPad
     /tmp/ccjfHZuC.s:520    .text:000005a0 _vbPadKeyDown
     /tmp/ccjfHZuC.s:5412   .bss:00000000 _oldkeydown
     /tmp/ccjfHZuC.s:536    .text:000005c8 _vbPadKeyUp
     /tmp/ccjfHZuC.s:5418   .bss:00000002 _oldkeyup
     /tmp/ccjfHZuC.s:552    .text:000005f0 _copymem
     /tmp/ccjfHZuC.s:573    .text:00000614 _setmem
     /tmp/ccjfHZuC.s:592    .text:00000634 _addmem
     /tmp/ccjfHZuC.s:616    .text:00000660 _cls
     /tmp/ccjfHZuC.s:628    .text:00000678 _vbTextOut
     /tmp/ccjfHZuC.s:663    .text:000006c4 _vbPrint
     /tmp/ccjfHZuC.s:751    .text:00000780 _vbSetObject
     /tmp/ccjfHZuC.s:790    .text:000007ec _randseed
     /tmp/ccjfHZuC.s:832    .text:00000840 _randnum
     /tmp/ccjfHZuC.s:840    .text:00000848 _vbSetWorld
     /tmp/ccjfHZuC.s:916    .text:0000091c _timer_enable
     /tmp/ccjfHZuC.s:5454   .bss:00000004 _tcr_val
     /tmp/ccjfHZuC.s:943    .text:00000960 _timer_get
     /tmp/ccjfHZuC.s:959    .text:00000988 _timer_set
     /tmp/ccjfHZuC.s:973    .text:000009a8 _timer_freq
     /tmp/ccjfHZuC.s:1000   .text:000009f0 _timer_int
     /tmp/ccjfHZuC.s:1027   .text:00000a34 _timer_getstat
     /tmp/ccjfHZuC.s:1038   .text:00000a48 _timer_clearstat
     /tmp/ccjfHZuC.s:1050   .text:00000a64 _g3d_copyVector3d
     /tmp/ccjfHZuC.s:1066   .text:00000a90 _g3d_scale
     /tmp/ccjfHZuC.s:1107   .text:00000b00 _g3d_rotateXAxis
     /tmp/ccjfHZuC.s:5846   .rodata:00000680 _sine
     /tmp/ccjfHZuC.s:5481   .rodata:000000e0 _cosine
     /tmp/ccjfHZuC.s:1142   .text:00000b58 _g3d_rotateYAxis
     /tmp/ccjfHZuC.s:1177   .text:00000bb0 _g3d_rotateZAxis
     /tmp/ccjfHZuC.s:1212   .text:00000c08 _g3d_rotateAllAxis
     /tmp/ccjfHZuC.s:1364   .text:00000d8c _g3d_translate
     /tmp/ccjfHZuC.s:1380   .text:00000db0 _g3d_cameraTranslate
     /tmp/ccjfHZuC.s:1396   .text:00000dd4 _g3d_calculateProjection
                            *COM*:00000090 _cam
     /tmp/ccjfHZuC.s:1430   .text:00000e28 _g3d_detectCollision
     /tmp/ccjfHZuC.s:1522   .text:00000eec _g3d_clipZAxis
     /tmp/ccjfHZuC.s:1594   .text:00000f88 _g3d_drawPoint
GAS LISTING /tmp/ccjfHZuC.s 			page 287


     /tmp/ccjfHZuC.s:5467   .data:00000004 _currentFrameBuffer
     /tmp/ccjfHZuC.s:1644   .text:00000ffc _g3d_initObject
     /tmp/ccjfHZuC.s:1684   .text:00001080 _g3d_moveObject
     /tmp/ccjfHZuC.s:1879   .text:00001268 _g3d_moveCamera
     /tmp/ccjfHZuC.s:2053   .text:0000141c _calculateSpeed
     /tmp/ccjfHZuC.s:2085   .text:00001464 _handleInput
                            *COM*:00000001 _accelerator
                            *COM*:00000014 _crossH
     /tmp/ccjfHZuC.s:2233   .text:00001610 _addNode
     /tmp/ccjfHZuC.s:14616  .bss:00000012 _gameNodeIdx
                            *COM*:000003c0 _gameNodes
     /tmp/ccjfHZuC.s:2275   .text:0000167c _getHitSquare
     /tmp/ccjfHZuC.s:5460   .bss:00000008 _numVertices
                            *COM*:00004e20 _vertexBuffer
     /tmp/ccjfHZuC.s:2335   .text:00001718 _detectHit
     /tmp/ccjfHZuC.s:2342   .text:0000171c _initCam
     /tmp/ccjfHZuC.s:2365   .text:00001764 _timeHnd
                            *COM*:00000004 _tick
     /tmp/ccjfHZuC.s:2399   .text:000017bc _vbInit
     /tmp/ccjfHZuC.s:6210   .rodata:00000c20 _PVB_FONT
     /tmp/ccjfHZuC.s:2458   .text:00001888 _screenControl
     /tmp/ccjfHZuC.s:14622  .data:00000008 _pgflip___3012
     /tmp/ccjfHZuC.s:5474   .bss:0000000c _nextFrameBuffer
     /tmp/ccjfHZuC.s:2497   .text:00001904 _g3d_drawLine
     /tmp/ccjfHZuC.s:2735   .text:00001ae8 _drawCrossHairs
     /tmp/ccjfHZuC.s:2808   .text:00001bc0 _g3d_cameraRotateAllAxis
     /tmp/ccjfHZuC.s:2966   .text:00001d50 _initObjects
                            *COM*:000000cc _g
     /tmp/ccjfHZuC.s:14512  .rodata:00002db0 _ground
     /tmp/ccjfHZuC.s:14407  .rodata:00002c20 _city
                            *COM*:000000cc _c1
                            *COM*:000000cc _c2
                            *COM*:000000cc _c3
                            *COM*:000000cc _c4
                            *COM*:000000cc _c5
                            *COM*:000000cc _c6
     /tmp/ccjfHZuC.s:14556  .rodata:00002e4c _meteor
                            *COM*:000000cc _m1
                            *COM*:000000cc _m2
                            *COM*:000000cc _m3
                            *COM*:000000cc _m4
                            *COM*:000000cc _m5
                            *COM*:000000cc _m6
                            *COM*:00000004 _meteorSpeed
     /tmp/ccjfHZuC.s:3636   .text:00002734 _g3d_renderVector3d
     /tmp/ccjfHZuC.s:3970   .text:00002a6c _g3d_renderObject
     /tmp/ccjfHZuC.s:4044   .text:00002b28 _g3d_clipObject
     /tmp/ccjfHZuC.s:4250   .text:00002d10 _g3d_drawObject
     /tmp/ccjfHZuC.s:4644   .text:000030e4 _main
     /tmp/ccjfHZuC.s:14606  .bss:00000010 _frameSkip
     /tmp/ccjfHZuC.s:14611  .bss:00000011 _frameSkipCount
     /tmp/ccjfHZuC.s:5183   .rodata:00000000 _L_FRAME0
     /tmp/ccjfHZuC.s:5189   .rodata:00000004 _L_FRAME1
     /tmp/ccjfHZuC.s:5195   .rodata:00000008 _R_FRAME0
     /tmp/ccjfHZuC.s:5201   .rodata:0000000c _R_FRAME1
     /tmp/ccjfHZuC.s:5207   .rodata:00000010 _BGMM
     /tmp/ccjfHZuC.s:5213   .rodata:00000014 _WAM
GAS LISTING /tmp/ccjfHZuC.s 			page 288


     /tmp/ccjfHZuC.s:5219   .rodata:00000018 _CLMN_TBL
     /tmp/ccjfHZuC.s:5225   .rodata:0000001c _OAM
     /tmp/ccjfHZuC.s:5363   .rodata:000000a0 _WAVEDATA1
     /tmp/ccjfHZuC.s:5369   .rodata:000000a4 _WAVEDATA2
     /tmp/ccjfHZuC.s:5375   .rodata:000000a8 _WAVEDATA3
     /tmp/ccjfHZuC.s:5381   .rodata:000000ac _WAVEDATA4
     /tmp/ccjfHZuC.s:5387   .rodata:000000b0 _WAVEDATA5
     /tmp/ccjfHZuC.s:5393   .rodata:000000b4 _MODDATA
     /tmp/ccjfHZuC.s:5399   .rodata:000000b8 _SND_REGS
     /tmp/ccjfHZuC.s:5405   .rodata:000000bc _HW_REGS
     /tmp/ccjfHZuC.s:5425   .rodata:000000c0 _EXPANSION
     /tmp/ccjfHZuC.s:5431   .rodata:000000c4 _WORKRAM
     /tmp/ccjfHZuC.s:5437   .rodata:000000c8 _SAVERAM
     /tmp/ccjfHZuC.s:5442   .rodata:000000cc _nums
     /tmp/ccjfHZuC.s:5448   .rodata:000000dc _WA

UNDEFINED SYMBOLS
__save_r24_r31
__return_r24_r31
__save_r25_r31
__return_r25_r31
__save_r31
__return_r31
__save_r27_r31
__return_r27_r31
__save_r28_r31
__return_r28_r31
__save_r29_r31
_tim_vector
__return_r29_r31
__save_r2_r31
__return_r2_r31
__save_r22_r31
__return_r22_r31
